
/Users/abdulhannanmustajab/Desktop/Projects/IoT/Particle/VaccineFacilityMonitor/VaccineFacilityMonitor/target/1.5.0/boron/VaccineFacilityMonitor.elf:     file format elf32-littlearm

Sections:
Idx Name          Size      VMA       LMA       File off  Algn
  0 .module_info  00000018  000d4000  000d4000  00004000  2**2
                  CONTENTS, ALLOC, LOAD, READONLY, DATA
  1 .dynalib      00000004  000d4018  000d4018  00004018  2**2
                  CONTENTS, ALLOC, LOAD, READONLY, DATA
  2 .text         00007970  000d4020  000d4020  00004020  2**3
                  CONTENTS, ALLOC, LOAD, READONLY, CODE
  3 .ARM.exidx    00000008  000db990  000db990  0000b990  2**2
                  CONTENTS, ALLOC, LOAD, READONLY, DATA
  4 .backup       00000004  2003f400  000db998  0000f400  2**2
                  CONTENTS, ALLOC, LOAD, DATA
  5 .data         0000025c  2003ded0  000db99c  0001ded0  2**2
                  CONTENTS, ALLOC, LOAD, DATA
  6 .bss          000006c4  2003e130  2003e130  0002e130  2**3
                  ALLOC
  7 .module_info_suffix 00000028  000dbbf8  000dbbf8  0002bbf8  2**0
                  CONTENTS, ALLOC, LOAD, READONLY, DATA
  8 .module_info_crc 00000004  000dbc20  000dbc20  0002bc20  2**0
                  CONTENTS, ALLOC, LOAD, READONLY, DATA
  9 .debug_info   000f14c6  00000000  00000000  0002bc24  2**0
                  CONTENTS, READONLY, DEBUGGING
 10 .debug_abbrev 00012dd9  00000000  00000000  0011d0ea  2**0
                  CONTENTS, READONLY, DEBUGGING
 11 .debug_loc    00021fec  00000000  00000000  0012fec3  2**0
                  CONTENTS, READONLY, DEBUGGING
 12 .debug_aranges 000028b0  00000000  00000000  00151eaf  2**0
                  CONTENTS, READONLY, DEBUGGING
 13 .debug_ranges 00004d60  00000000  00000000  0015475f  2**0
                  CONTENTS, READONLY, DEBUGGING
 14 .debug_macro  00037530  00000000  00000000  001594bf  2**0
                  CONTENTS, READONLY, DEBUGGING
 15 .debug_line   0002df8b  00000000  00000000  001909ef  2**0
                  CONTENTS, READONLY, DEBUGGING
 16 .debug_str    00108d5d  00000000  00000000  001be97a  2**0
                  CONTENTS, READONLY, DEBUGGING
 17 .debug_frame  0000e274  00000000  00000000  002c76d8  2**2
                  CONTENTS, READONLY, DEBUGGING

Disassembly of section .text:

000d4020 <module_user_pre_init>:
/**
 * Initializes this user module. Returns the start of the heap.
 */
void* module_user_pre_init() {

    if ( (&link_global_data_start!=&link_global_data_initial_values) && (link_global_data_size != 0))
   d4020:	4809      	ldr	r0, [pc, #36]	; (d4048 <module_user_pre_init+0x28>)
   d4022:	490a      	ldr	r1, [pc, #40]	; (d404c <module_user_pre_init+0x2c>)
   d4024:	4288      	cmp	r0, r1
extern constructor_ptr_t link_constructors_end;

/**
 * Initializes this user module. Returns the start of the heap.
 */
void* module_user_pre_init() {
   d4026:	b508      	push	{r3, lr}

    if ( (&link_global_data_start!=&link_global_data_initial_values) && (link_global_data_size != 0))
   d4028:	d005      	beq.n	d4036 <module_user_pre_init+0x16>
   d402a:	4a09      	ldr	r2, [pc, #36]	; (d4050 <module_user_pre_init+0x30>)
   d402c:	4282      	cmp	r2, r0
   d402e:	d002      	beq.n	d4036 <module_user_pre_init+0x16>
    {
        memcpy(&link_global_data_start, &link_global_data_initial_values, link_global_data_size);
   d4030:	1a12      	subs	r2, r2, r0
   d4032:	f004 fd79 	bl	d8b28 <memcpy>
    }

    memset(&link_bss_location, 0, link_bss_size );
   d4036:	4807      	ldr	r0, [pc, #28]	; (d4054 <module_user_pre_init+0x34>)
   d4038:	4a07      	ldr	r2, [pc, #28]	; (d4058 <module_user_pre_init+0x38>)
   d403a:	2100      	movs	r1, #0
   d403c:	1a12      	subs	r2, r2, r0
   d403e:	f004 fd7e 	bl	d8b3e <memset>
    return &link_global_data_start;
}
   d4042:	4801      	ldr	r0, [pc, #4]	; (d4048 <module_user_pre_init+0x28>)
   d4044:	bd08      	pop	{r3, pc}
   d4046:	bf00      	nop
   d4048:	2003ded0 	.word	0x2003ded0
   d404c:	000db99c 	.word	0x000db99c
   d4050:	2003e12c 	.word	0x2003e12c
   d4054:	2003e130 	.word	0x2003e130
   d4058:	2003e7f4 	.word	0x2003e7f4

000d405c <module_user_init>:
extern constructor_ptr_t link_constructors_location[];
extern constructor_ptr_t link_constructors_end;
#define link_constructors_size   ((unsigned long)&link_constructors_end  -  (unsigned long)&link_constructors_location )

void module_user_init()
{
   d405c:	b570      	push	{r4, r5, r6, lr}
    module_user_init_hook();
   d405e:	f003 fb4b 	bl	d76f8 <module_user_init_hook>
   d4062:	4c07      	ldr	r4, [pc, #28]	; (d4080 <module_user_init+0x24>)
   d4064:	4b07      	ldr	r3, [pc, #28]	; (d4084 <module_user_init+0x28>)
   d4066:	1ae4      	subs	r4, r4, r3
   d4068:	08a4      	lsrs	r4, r4, #2

    // invoke constructors
    int ctor_num;
    for (ctor_num=0; ctor_num < link_constructors_size/sizeof(constructor_ptr_t); ctor_num++ )
   d406a:	2500      	movs	r5, #0
   d406c:	461e      	mov	r6, r3
   d406e:	42a5      	cmp	r5, r4
   d4070:	d004      	beq.n	d407c <module_user_init+0x20>
    {
        link_constructors_location[ctor_num]();
   d4072:	f856 3025 	ldr.w	r3, [r6, r5, lsl #2]
   d4076:	4798      	blx	r3
{
    module_user_init_hook();

    // invoke constructors
    int ctor_num;
    for (ctor_num=0; ctor_num < link_constructors_size/sizeof(constructor_ptr_t); ctor_num++ )
   d4078:	3501      	adds	r5, #1
   d407a:	e7f8      	b.n	d406e <module_user_init+0x12>
    {
        link_constructors_location[ctor_num]();
    }
}
   d407c:	bd70      	pop	{r4, r5, r6, pc}
   d407e:	bf00      	nop
   d4080:	000db990 	.word	0x000db990
   d4084:	000db954 	.word	0x000db954

000d4088 <module_user_setup>:

/**
 * Export these functions with a fuller name so they don't clash with the setup/loop wrappers in the system module.
 */
void module_user_setup() {
    setup();
   d4088:	f001 ba7a 	b.w	d5580 <setup>

000d408c <module_user_loop>:
}

void module_user_loop() {
   d408c:	b508      	push	{r3, lr}
    loop();
   d408e:	f001 f8a5 	bl	d51dc <loop>
    _post_loop();
}
   d4092:	e8bd 4008 	ldmia.w	sp!, {r3, lr}
    setup();
}

void module_user_loop() {
    loop();
    _post_loop();
   d4096:	f003 baf1 	b.w	d767c <_post_loop>

000d409a <_Znwj>:
   d409a:	f002 b8bf 	b.w	d621c <malloc>

000d409e <_ZdlPv>:
   d409e:	f002 b8c5 	b.w	d622c <free>

000d40a2 <_ZdaPv>:
	free(p);
}

void operator delete[](void *p)
{
	free(p);
   d40a2:	f002 b8c3 	b.w	d622c <free>

000d40a6 <__cxa_guard_acquire>:

/* Provide default implemenation for __cxa_guard_acquire() and
 * __cxa_guard_release(). Note: these must be revisited if a multitasking
 * OS is ported to this platform. */
__extension__ typedef int __guard __attribute__((mode (__DI__)));
int __cxa_guard_acquire(__guard *g) {return !*(char *)(g);};
   d40a6:	7800      	ldrb	r0, [r0, #0]
   d40a8:	fab0 f080 	clz	r0, r0
   d40ac:	0940      	lsrs	r0, r0, #5
   d40ae:	4770      	bx	lr

000d40b0 <__cxa_guard_release>:
void __cxa_guard_release (__guard *g) {*(char *)g = 1;};
   d40b0:	2301      	movs	r3, #1
   d40b2:	7003      	strb	r3, [r0, #0]
   d40b4:	4770      	bx	lr

000d40b6 <null_ptr_check>:
 */
static int8_t null_ptr_check(const struct bme680_dev *dev)
{
	int8_t rslt;

	if ((dev == NULL) || (dev->read == NULL) || (dev->write == NULL) || (dev->delay_ms == NULL)) {
   d40b6:	b148      	cbz	r0, d40cc <null_ptr_check+0x16>
   d40b8:	6c83      	ldr	r3, [r0, #72]	; 0x48
   d40ba:	b13b      	cbz	r3, d40cc <null_ptr_check+0x16>
   d40bc:	6cc3      	ldr	r3, [r0, #76]	; 0x4c
   d40be:	b12b      	cbz	r3, d40cc <null_ptr_check+0x16>
   d40c0:	6d00      	ldr	r0, [r0, #80]	; 0x50
   d40c2:	fab0 f080 	clz	r0, r0
   d40c6:	0940      	lsrs	r0, r0, #5
   d40c8:	4240      	negs	r0, r0
   d40ca:	4770      	bx	lr
		/* Device structure pointer is not valid */
		rslt = BME680_E_NULL_PTR;
   d40cc:	f04f 30ff 	mov.w	r0, #4294967295	; 0xffffffff
		/* Device structure is fine */
		rslt = BME680_OK;
	}

	return rslt;
}
   d40d0:	4770      	bx	lr

000d40d2 <set_mem_page>:

/*!
 * @brief This internal API is used to set the memory page based on register address.
 */
static int8_t set_mem_page(uint8_t reg_addr, struct bme680_dev *dev)
{
   d40d2:	b573      	push	{r0, r1, r4, r5, r6, lr}
   d40d4:	4602      	mov	r2, r0
	int8_t rslt;
	uint8_t reg;
	uint8_t mem_page;

	/* Check for null pointers in the device structure*/
	rslt = null_ptr_check(dev);
   d40d6:	4608      	mov	r0, r1

/*!
 * @brief This internal API is used to set the memory page based on register address.
 */
static int8_t set_mem_page(uint8_t reg_addr, struct bme680_dev *dev)
{
   d40d8:	460c      	mov	r4, r1
	int8_t rslt;
	uint8_t reg;
	uint8_t mem_page;

	/* Check for null pointers in the device structure*/
	rslt = null_ptr_check(dev);
   d40da:	f7ff ffec 	bl	d40b6 <null_ptr_check>
	if (rslt == BME680_OK) {
   d40de:	4605      	mov	r5, r0
   d40e0:	bb50      	cbnz	r0, d4138 <set_mem_page+0x66>
		if (reg_addr > 0x7f)
			mem_page = BME680_MEM_PAGE1;
		else
			mem_page = BME680_MEM_PAGE0;
   d40e2:	f012 0f80 	tst.w	r2, #128	; 0x80

		if (mem_page != dev->mem_page) {
   d40e6:	78ca      	ldrb	r2, [r1, #3]
	rslt = null_ptr_check(dev);
	if (rslt == BME680_OK) {
		if (reg_addr > 0x7f)
			mem_page = BME680_MEM_PAGE1;
		else
			mem_page = BME680_MEM_PAGE0;
   d40e8:	bf14      	ite	ne
   d40ea:	2300      	movne	r3, #0
   d40ec:	2310      	moveq	r3, #16

		if (mem_page != dev->mem_page) {
   d40ee:	429a      	cmp	r2, r3
   d40f0:	d022      	beq.n	d4138 <set_mem_page+0x66>
			dev->mem_page = mem_page;
   d40f2:	70cb      	strb	r3, [r1, #3]

			dev->com_rslt = dev->read(dev->dev_id, BME680_MEM_PAGE_ADDR | BME680_SPI_RD_MSK, &reg, 1);
   d40f4:	6c8e      	ldr	r6, [r1, #72]	; 0x48
   d40f6:	7860      	ldrb	r0, [r4, #1]
   d40f8:	2301      	movs	r3, #1
   d40fa:	f10d 0207 	add.w	r2, sp, #7
   d40fe:	21f3      	movs	r1, #243	; 0xf3
   d4100:	47b0      	blx	r6
   d4102:	f884 0054 	strb.w	r0, [r4, #84]	; 0x54
			if (dev->com_rslt != 0)
   d4106:	b110      	cbz	r0, d410e <set_mem_page+0x3c>
				reg = reg | (dev->mem_page & BME680_MEM_PAGE_MSK);

				dev->com_rslt = dev->write(dev->dev_id, BME680_MEM_PAGE_ADDR & BME680_SPI_WR_MSK,
					&reg, 1);
				if (dev->com_rslt != 0)
					rslt = BME680_E_COM_FAIL;
   d4108:	f06f 0501 	mvn.w	r5, #1
   d410c:	e014      	b.n	d4138 <set_mem_page+0x66>
			if (dev->com_rslt != 0)
				rslt = BME680_E_COM_FAIL;

			if (rslt == BME680_OK) {
				reg = reg & (~BME680_MEM_PAGE_MSK);
				reg = reg | (dev->mem_page & BME680_MEM_PAGE_MSK);
   d410e:	78e3      	ldrb	r3, [r4, #3]

				dev->com_rslt = dev->write(dev->dev_id, BME680_MEM_PAGE_ADDR & BME680_SPI_WR_MSK,
   d4110:	6ce6      	ldr	r6, [r4, #76]	; 0x4c
   d4112:	7860      	ldrb	r0, [r4, #1]
			if (dev->com_rslt != 0)
				rslt = BME680_E_COM_FAIL;

			if (rslt == BME680_OK) {
				reg = reg & (~BME680_MEM_PAGE_MSK);
				reg = reg | (dev->mem_page & BME680_MEM_PAGE_MSK);
   d4114:	f003 0210 	and.w	r2, r3, #16
   d4118:	f89d 3007 	ldrb.w	r3, [sp, #7]
   d411c:	f023 0310 	bic.w	r3, r3, #16
   d4120:	4313      	orrs	r3, r2
   d4122:	f88d 3007 	strb.w	r3, [sp, #7]

				dev->com_rslt = dev->write(dev->dev_id, BME680_MEM_PAGE_ADDR & BME680_SPI_WR_MSK,
   d4126:	f10d 0207 	add.w	r2, sp, #7
   d412a:	2301      	movs	r3, #1
   d412c:	2173      	movs	r1, #115	; 0x73
   d412e:	47b0      	blx	r6
   d4130:	f884 0054 	strb.w	r0, [r4, #84]	; 0x54
					&reg, 1);
				if (dev->com_rslt != 0)
   d4134:	2800      	cmp	r0, #0
   d4136:	d1e7      	bne.n	d4108 <set_mem_page+0x36>
			}
		}
	}

	return rslt;
}
   d4138:	4628      	mov	r0, r5
   d413a:	b002      	add	sp, #8
   d413c:	bd70      	pop	{r4, r5, r6, pc}

000d413e <get_mem_page>:

/*!
 * @brief This internal API is used to get the memory page based on register address.
 */
static int8_t get_mem_page(struct bme680_dev *dev)
{
   d413e:	b573      	push	{r0, r1, r4, r5, r6, lr}
   d4140:	4604      	mov	r4, r0
	int8_t rslt;
	uint8_t reg;

	/* Check for null pointer in the device structure*/
	rslt = null_ptr_check(dev);
   d4142:	f7ff ffb8 	bl	d40b6 <null_ptr_check>
	if (rslt == BME680_OK) {
   d4146:	4605      	mov	r5, r0
   d4148:	b988      	cbnz	r0, d416e <get_mem_page+0x30>
		dev->com_rslt = dev->read(dev->dev_id, BME680_MEM_PAGE_ADDR | BME680_SPI_RD_MSK, &reg, 1);
   d414a:	6ca6      	ldr	r6, [r4, #72]	; 0x48
   d414c:	7860      	ldrb	r0, [r4, #1]
   d414e:	2301      	movs	r3, #1
   d4150:	f10d 0207 	add.w	r2, sp, #7
   d4154:	21f3      	movs	r1, #243	; 0xf3
   d4156:	47b0      	blx	r6
   d4158:	f884 0054 	strb.w	r0, [r4, #84]	; 0x54
		if (dev->com_rslt != 0)
   d415c:	b928      	cbnz	r0, d416a <get_mem_page+0x2c>
			rslt = BME680_E_COM_FAIL;
		else
			dev->mem_page = reg & BME680_MEM_PAGE_MSK;
   d415e:	f89d 3007 	ldrb.w	r3, [sp, #7]
   d4162:	f003 0310 	and.w	r3, r3, #16
   d4166:	70e3      	strb	r3, [r4, #3]
   d4168:	e001      	b.n	d416e <get_mem_page+0x30>
	/* Check for null pointer in the device structure*/
	rslt = null_ptr_check(dev);
	if (rslt == BME680_OK) {
		dev->com_rslt = dev->read(dev->dev_id, BME680_MEM_PAGE_ADDR | BME680_SPI_RD_MSK, &reg, 1);
		if (dev->com_rslt != 0)
			rslt = BME680_E_COM_FAIL;
   d416a:	f06f 0501 	mvn.w	r5, #1
		else
			dev->mem_page = reg & BME680_MEM_PAGE_MSK;
	}

	return rslt;
}
   d416e:	4628      	mov	r0, r5
   d4170:	b002      	add	sp, #8
   d4172:	bd70      	pop	{r4, r5, r6, pc}

000d4174 <boundary_check.isra.1.constprop.2>:
 */
static int8_t boundary_check(uint8_t *value, uint8_t min, uint8_t max, struct bme680_dev *dev)
{
	int8_t rslt = BME680_OK;

	if (value != NULL) {
   d4174:	b140      	cbz	r0, d4188 <boundary_check.isra.1.constprop.2+0x14>
			/* Auto correct the invalid value to minimum value */
			*value = min;
			dev->info_msg |= BME680_I_MIN_CORRECTION;
		}
		/* Check if value is above maximum value */
		if (*value > max) {
   d4176:	7803      	ldrb	r3, [r0, #0]
   d4178:	428b      	cmp	r3, r1
   d417a:	d908      	bls.n	d418e <boundary_check.isra.1.constprop.2+0x1a>
			/* Auto correct the invalid value to maximum value */
			*value = max;
   d417c:	7001      	strb	r1, [r0, #0]
			dev->info_msg |= BME680_I_MAX_CORRECTION;
   d417e:	7813      	ldrb	r3, [r2, #0]
   d4180:	f043 0302 	orr.w	r3, r3, #2
   d4184:	7013      	strb	r3, [r2, #0]
   d4186:	e002      	b.n	d418e <boundary_check.isra.1.constprop.2+0x1a>
		}
	} else {
		rslt = BME680_E_NULL_PTR;
   d4188:	f04f 30ff 	mov.w	r0, #4294967295	; 0xffffffff
   d418c:	4770      	bx	lr
 * @brief This internal API is used to validate the boundary
 * conditions.
 */
static int8_t boundary_check(uint8_t *value, uint8_t min, uint8_t max, struct bme680_dev *dev)
{
	int8_t rslt = BME680_OK;
   d418e:	2000      	movs	r0, #0
	} else {
		rslt = BME680_E_NULL_PTR;
	}

	return rslt;
}
   d4190:	4770      	bx	lr

000d4192 <bme680_get_regs>:

/*!
 * @brief This API reads the data from the given register address of the sensor.
 */
int8_t bme680_get_regs(uint8_t reg_addr, uint8_t *reg_data, uint16_t len, struct bme680_dev *dev)
{
   d4192:	e92d 43f8 	stmdb	sp!, {r3, r4, r5, r6, r7, r8, r9, lr}
   d4196:	4606      	mov	r6, r0
	int8_t rslt;

	/* Check for null pointer in the device structure*/
	rslt = null_ptr_check(dev);
   d4198:	4618      	mov	r0, r3

/*!
 * @brief This API reads the data from the given register address of the sensor.
 */
int8_t bme680_get_regs(uint8_t reg_addr, uint8_t *reg_data, uint16_t len, struct bme680_dev *dev)
{
   d419a:	4688      	mov	r8, r1
   d419c:	4691      	mov	r9, r2
   d419e:	461d      	mov	r5, r3
	int8_t rslt;

	/* Check for null pointer in the device structure*/
	rslt = null_ptr_check(dev);
   d41a0:	f7ff ff89 	bl	d40b6 <null_ptr_check>
	if (rslt == BME680_OK) {
   d41a4:	4604      	mov	r4, r0
   d41a6:	b9a8      	cbnz	r0, d41d4 <bme680_get_regs+0x42>
		if (dev->intf == BME680_SPI_INTF) {
   d41a8:	78ab      	ldrb	r3, [r5, #2]
   d41aa:	b93b      	cbnz	r3, d41bc <bme680_get_regs+0x2a>
			/* Set the memory page */
			rslt = set_mem_page(reg_addr, dev);
   d41ac:	4629      	mov	r1, r5
   d41ae:	4630      	mov	r0, r6
   d41b0:	f7ff ff8f 	bl	d40d2 <set_mem_page>
			if (rslt == BME680_OK)
   d41b4:	4604      	mov	r4, r0
   d41b6:	b908      	cbnz	r0, d41bc <bme680_get_regs+0x2a>
				reg_addr = reg_addr | BME680_SPI_RD_MSK;
   d41b8:	f046 0680 	orr.w	r6, r6, #128	; 0x80
		}
		dev->com_rslt = dev->read(dev->dev_id, reg_addr, reg_data, len);
   d41bc:	6caf      	ldr	r7, [r5, #72]	; 0x48
   d41be:	7868      	ldrb	r0, [r5, #1]
   d41c0:	464b      	mov	r3, r9
   d41c2:	4642      	mov	r2, r8
   d41c4:	4631      	mov	r1, r6
   d41c6:	47b8      	blx	r7
		if (dev->com_rslt != 0)
   d41c8:	2800      	cmp	r0, #0
			/* Set the memory page */
			rslt = set_mem_page(reg_addr, dev);
			if (rslt == BME680_OK)
				reg_addr = reg_addr | BME680_SPI_RD_MSK;
		}
		dev->com_rslt = dev->read(dev->dev_id, reg_addr, reg_data, len);
   d41ca:	f885 0054 	strb.w	r0, [r5, #84]	; 0x54
		if (dev->com_rslt != 0)
			rslt = BME680_E_COM_FAIL;
   d41ce:	bf18      	it	ne
   d41d0:	f06f 0401 	mvnne.w	r4, #1
	}

	return rslt;
}
   d41d4:	4620      	mov	r0, r4
   d41d6:	e8bd 83f8 	ldmia.w	sp!, {r3, r4, r5, r6, r7, r8, r9, pc}

000d41da <bme680_set_regs>:
/*!
 * @brief This API writes the given data to the register address
 * of the sensor.
 */
int8_t bme680_set_regs(const uint8_t *reg_addr, const uint8_t *reg_data, uint8_t len, struct bme680_dev *dev)
{
   d41da:	e92d 4ff0 	stmdb	sp!, {r4, r5, r6, r7, r8, r9, sl, fp, lr}
   d41de:	b08b      	sub	sp, #44	; 0x2c
   d41e0:	461e      	mov	r6, r3
   d41e2:	4683      	mov	fp, r0
   d41e4:	468a      	mov	sl, r1
   d41e6:	4614      	mov	r4, r2
	int8_t rslt;
	/* Length of the temporary buffer is 2*(length of register)*/
	uint8_t tmp_buff[BME680_TMP_BUFFER_LENGTH] = { 0 };
   d41e8:	2100      	movs	r1, #0
   d41ea:	2228      	movs	r2, #40	; 0x28
   d41ec:	4668      	mov	r0, sp
   d41ee:	f004 fca6 	bl	d8b3e <memset>
	uint16_t index;

	/* Check for null pointer in the device structure*/
	rslt = null_ptr_check(dev);
   d41f2:	4630      	mov	r0, r6
   d41f4:	f7ff ff5f 	bl	d40b6 <null_ptr_check>
	if (rslt == BME680_OK) {
   d41f8:	4605      	mov	r5, r0
   d41fa:	bba8      	cbnz	r0, d4268 <bme680_set_regs+0x8e>
		if ((len > 0) && (len < BME680_TMP_BUFFER_LENGTH / 2)) {
   d41fc:	1e63      	subs	r3, r4, #1
   d41fe:	2b12      	cmp	r3, #18
   d4200:	d830      	bhi.n	d4264 <bme680_set_regs+0x8a>
   d4202:	f10d 0801 	add.w	r8, sp, #1
   d4206:	f10a 3aff 	add.w	sl, sl, #4294967295	; 0xffffffff
   d420a:	465f      	mov	r7, fp
   d420c:	46c1      	mov	r9, r8
			/* Interleave the 2 arrays */
			for (index = 0; index < len; index++) {
   d420e:	b2a4      	uxth	r4, r4
   d4210:	ebcb 0307 	rsb	r3, fp, r7
   d4214:	b29b      	uxth	r3, r3
   d4216:	429c      	cmp	r4, r3
   d4218:	d913      	bls.n	d4242 <bme680_set_regs+0x68>
				if (dev->intf == BME680_SPI_INTF) {
   d421a:	78b3      	ldrb	r3, [r6, #2]
   d421c:	b943      	cbnz	r3, d4230 <bme680_set_regs+0x56>
					/* Set the memory page */
					rslt = set_mem_page(reg_addr[index], dev);
   d421e:	4631      	mov	r1, r6
   d4220:	7838      	ldrb	r0, [r7, #0]
   d4222:	f7ff ff56 	bl	d40d2 <set_mem_page>
					tmp_buff[(2 * index)] = reg_addr[index] & BME680_SPI_WR_MSK;
   d4226:	783b      	ldrb	r3, [r7, #0]
		if ((len > 0) && (len < BME680_TMP_BUFFER_LENGTH / 2)) {
			/* Interleave the 2 arrays */
			for (index = 0; index < len; index++) {
				if (dev->intf == BME680_SPI_INTF) {
					/* Set the memory page */
					rslt = set_mem_page(reg_addr[index], dev);
   d4228:	4605      	mov	r5, r0
					tmp_buff[(2 * index)] = reg_addr[index] & BME680_SPI_WR_MSK;
   d422a:	f003 037f 	and.w	r3, r3, #127	; 0x7f
   d422e:	e000      	b.n	d4232 <bme680_set_regs+0x58>
				} else {
					tmp_buff[(2 * index)] = reg_addr[index];
   d4230:	783b      	ldrb	r3, [r7, #0]
   d4232:	f808 3c01 	strb.w	r3, [r8, #-1]
				}
				tmp_buff[(2 * index) + 1] = reg_data[index];
   d4236:	f81a 3f01 	ldrb.w	r3, [sl, #1]!
   d423a:	f808 3b02 	strb.w	r3, [r8], #2
   d423e:	3701      	adds	r7, #1
   d4240:	e7e6      	b.n	d4210 <bme680_set_regs+0x36>
			}
			/* Write the interleaved array */
			if (rslt == BME680_OK) {
   d4242:	b98d      	cbnz	r5, d4268 <bme680_set_regs+0x8e>
				dev->com_rslt = dev->write(dev->dev_id, tmp_buff[0], &tmp_buff[1], (2 * len) - 1);
   d4244:	0063      	lsls	r3, r4, #1
   d4246:	3b01      	subs	r3, #1
   d4248:	6cf4      	ldr	r4, [r6, #76]	; 0x4c
   d424a:	f89d 1000 	ldrb.w	r1, [sp]
   d424e:	7870      	ldrb	r0, [r6, #1]
   d4250:	b29b      	uxth	r3, r3
   d4252:	464a      	mov	r2, r9
   d4254:	47a0      	blx	r4
				if (dev->com_rslt != 0)
					rslt = BME680_E_COM_FAIL;
   d4256:	2800      	cmp	r0, #0
				}
				tmp_buff[(2 * index) + 1] = reg_data[index];
			}
			/* Write the interleaved array */
			if (rslt == BME680_OK) {
				dev->com_rslt = dev->write(dev->dev_id, tmp_buff[0], &tmp_buff[1], (2 * len) - 1);
   d4258:	f886 0054 	strb.w	r0, [r6, #84]	; 0x54
				if (dev->com_rslt != 0)
					rslt = BME680_E_COM_FAIL;
   d425c:	bf18      	it	ne
   d425e:	f06f 0501 	mvnne.w	r5, #1
   d4262:	e001      	b.n	d4268 <bme680_set_regs+0x8e>
			}
		} else {
			rslt = BME680_E_INVALID_LENGTH;
   d4264:	f06f 0503 	mvn.w	r5, #3
		}
	}

	return rslt;
}
   d4268:	4628      	mov	r0, r5
   d426a:	b00b      	add	sp, #44	; 0x2c
   d426c:	e8bd 8ff0 	ldmia.w	sp!, {r4, r5, r6, r7, r8, r9, sl, fp, pc}

000d4270 <bme680_soft_reset>:

/*!
 * @brief This API performs the soft reset of the sensor.
 */
int8_t bme680_soft_reset(struct bme680_dev *dev)
{
   d4270:	b537      	push	{r0, r1, r2, r4, r5, lr}
	int8_t rslt;
	uint8_t reg_addr = BME680_SOFT_RESET_ADDR;
   d4272:	23e0      	movs	r3, #224	; 0xe0
   d4274:	f88d 3006 	strb.w	r3, [sp, #6]
	/* 0xb6 is the soft reset command */
	uint8_t soft_rst_cmd = BME680_SOFT_RESET_CMD;
   d4278:	23b6      	movs	r3, #182	; 0xb6

/*!
 * @brief This API performs the soft reset of the sensor.
 */
int8_t bme680_soft_reset(struct bme680_dev *dev)
{
   d427a:	4605      	mov	r5, r0
	int8_t rslt;
	uint8_t reg_addr = BME680_SOFT_RESET_ADDR;
	/* 0xb6 is the soft reset command */
	uint8_t soft_rst_cmd = BME680_SOFT_RESET_CMD;
   d427c:	f88d 3007 	strb.w	r3, [sp, #7]

	/* Check for null pointer in the device structure*/
	rslt = null_ptr_check(dev);
   d4280:	f7ff ff19 	bl	d40b6 <null_ptr_check>
	if (rslt == BME680_OK) {
   d4284:	4604      	mov	r4, r0
   d4286:	b9d8      	cbnz	r0, d42c0 <bme680_soft_reset+0x50>
		if (dev->intf == BME680_SPI_INTF)
   d4288:	78ab      	ldrb	r3, [r5, #2]
   d428a:	b16b      	cbz	r3, d42a8 <bme680_soft_reset+0x38>
			rslt = get_mem_page(dev);

		/* Reset the device */
		if (rslt == BME680_OK) {
			rslt = bme680_set_regs(&reg_addr, &soft_rst_cmd, 1, dev);
   d428c:	462b      	mov	r3, r5
   d428e:	2201      	movs	r2, #1
   d4290:	f10d 0107 	add.w	r1, sp, #7
   d4294:	f10d 0006 	add.w	r0, sp, #6
   d4298:	f7ff ff9f 	bl	d41da <bme680_set_regs>
			/* Wait for 5ms */
			dev->delay_ms(BME680_RESET_PERIOD);
   d429c:	6d2b      	ldr	r3, [r5, #80]	; 0x50
		if (dev->intf == BME680_SPI_INTF)
			rslt = get_mem_page(dev);

		/* Reset the device */
		if (rslt == BME680_OK) {
			rslt = bme680_set_regs(&reg_addr, &soft_rst_cmd, 1, dev);
   d429e:	4604      	mov	r4, r0
			/* Wait for 5ms */
			dev->delay_ms(BME680_RESET_PERIOD);
   d42a0:	200a      	movs	r0, #10
   d42a2:	4798      	blx	r3

			if (rslt == BME680_OK) {
   d42a4:	b134      	cbz	r4, d42b4 <bme680_soft_reset+0x44>
   d42a6:	e00b      	b.n	d42c0 <bme680_soft_reset+0x50>

	/* Check for null pointer in the device structure*/
	rslt = null_ptr_check(dev);
	if (rslt == BME680_OK) {
		if (dev->intf == BME680_SPI_INTF)
			rslt = get_mem_page(dev);
   d42a8:	4628      	mov	r0, r5
   d42aa:	f7ff ff48 	bl	d413e <get_mem_page>

		/* Reset the device */
		if (rslt == BME680_OK) {
   d42ae:	4604      	mov	r4, r0
   d42b0:	b930      	cbnz	r0, d42c0 <bme680_soft_reset+0x50>
   d42b2:	e7eb      	b.n	d428c <bme680_soft_reset+0x1c>
			/* Wait for 5ms */
			dev->delay_ms(BME680_RESET_PERIOD);

			if (rslt == BME680_OK) {
				/* After reset get the memory page */
				if (dev->intf == BME680_SPI_INTF)
   d42b4:	78ab      	ldrb	r3, [r5, #2]
   d42b6:	b91b      	cbnz	r3, d42c0 <bme680_soft_reset+0x50>
					rslt = get_mem_page(dev);
   d42b8:	4628      	mov	r0, r5
   d42ba:	f7ff ff40 	bl	d413e <get_mem_page>
   d42be:	4604      	mov	r4, r0
			}
		}
	}

	return rslt;
}
   d42c0:	4620      	mov	r0, r4
   d42c2:	b003      	add	sp, #12
   d42c4:	bd30      	pop	{r4, r5, pc}

000d42c6 <bme680_init>:
/*!
 *@brief This API is the entry point.
 *It reads the chip-id and calibration data from the sensor.
 */
int8_t bme680_init(struct bme680_dev *dev)
{
   d42c6:	b530      	push	{r4, r5, lr}
   d42c8:	b08d      	sub	sp, #52	; 0x34
   d42ca:	4604      	mov	r4, r0
	int8_t rslt;

	/* Check for null pointer in the device structure*/
	rslt = null_ptr_check(dev);
   d42cc:	f7ff fef3 	bl	d40b6 <null_ptr_check>
	if (rslt == BME680_OK) {
   d42d0:	4605      	mov	r5, r0
   d42d2:	2800      	cmp	r0, #0
   d42d4:	f040 80d5 	bne.w	d4482 <bme680_init+0x1bc>
		/* Soft reset to restore it to default values*/
		rslt = bme680_soft_reset(dev);
   d42d8:	4620      	mov	r0, r4
   d42da:	f7ff ffc9 	bl	d4270 <bme680_soft_reset>
		if (rslt == BME680_OK) {
   d42de:	4605      	mov	r5, r0
   d42e0:	2800      	cmp	r0, #0
   d42e2:	f040 80ce 	bne.w	d4482 <bme680_init+0x1bc>
			rslt = bme680_get_regs(BME680_CHIP_ID_ADDR, &dev->chip_id, 1, dev);
   d42e6:	4623      	mov	r3, r4
   d42e8:	2201      	movs	r2, #1
   d42ea:	4621      	mov	r1, r4
   d42ec:	20d0      	movs	r0, #208	; 0xd0
   d42ee:	f7ff ff50 	bl	d4192 <bme680_get_regs>
			if (rslt == BME680_OK) {
   d42f2:	4605      	mov	r5, r0
   d42f4:	2800      	cmp	r0, #0
   d42f6:	f040 80c4 	bne.w	d4482 <bme680_init+0x1bc>
				if (dev->chip_id == BME680_CHIP_ID) {
   d42fa:	7823      	ldrb	r3, [r4, #0]
   d42fc:	2b61      	cmp	r3, #97	; 0x61
   d42fe:	f040 80be 	bne.w	d447e <bme680_init+0x1b8>
 * @brief This internal API is used to read the calibrated data from the sensor.
 */
static int8_t get_calib_data(struct bme680_dev *dev)
{
	int8_t rslt;
	uint8_t coeff_array[BME680_COEFF_SIZE] = { 0 };
   d4302:	4601      	mov	r1, r0
   d4304:	2229      	movs	r2, #41	; 0x29
   d4306:	a801      	add	r0, sp, #4
   d4308:	f004 fc19 	bl	d8b3e <memset>
	uint8_t temp_var = 0; /* Temporary variable */

	/* Check for null pointer in the device structure*/
	rslt = null_ptr_check(dev);
   d430c:	4620      	mov	r0, r4
 */
static int8_t get_calib_data(struct bme680_dev *dev)
{
	int8_t rslt;
	uint8_t coeff_array[BME680_COEFF_SIZE] = { 0 };
	uint8_t temp_var = 0; /* Temporary variable */
   d430e:	f88d 5003 	strb.w	r5, [sp, #3]

	/* Check for null pointer in the device structure*/
	rslt = null_ptr_check(dev);
   d4312:	f7ff fed0 	bl	d40b6 <null_ptr_check>
	if (rslt == BME680_OK) {
   d4316:	4605      	mov	r5, r0
   d4318:	2800      	cmp	r0, #0
   d431a:	f040 80b2 	bne.w	d4482 <bme680_init+0x1bc>
		rslt = bme680_get_regs(BME680_COEFF_ADDR1, coeff_array, BME680_COEFF_ADDR1_LEN, dev);
   d431e:	4623      	mov	r3, r4
   d4320:	2219      	movs	r2, #25
   d4322:	a901      	add	r1, sp, #4
   d4324:	2089      	movs	r0, #137	; 0x89
   d4326:	f7ff ff34 	bl	d4192 <bme680_get_regs>
		/* Append the second half in the same array */
		if (rslt == BME680_OK)
   d432a:	4605      	mov	r5, r0
   d432c:	b938      	cbnz	r0, d433e <bme680_init+0x78>
			rslt = bme680_get_regs(BME680_COEFF_ADDR2, &coeff_array[BME680_COEFF_ADDR1_LEN]
   d432e:	4623      	mov	r3, r4
   d4330:	2210      	movs	r2, #16
   d4332:	f10d 011d 	add.w	r1, sp, #29
   d4336:	20e1      	movs	r0, #225	; 0xe1
   d4338:	f7ff ff2b 	bl	d4192 <bme680_get_regs>
   d433c:	4605      	mov	r5, r0
			, BME680_COEFF_ADDR2_LEN, dev);

		/* Temperature related coefficients */
		dev->calib.par_t1 = (uint16_t) (BME680_CONCAT_BYTES(coeff_array[BME680_T1_MSB_REG],
   d433e:	f89d 2026 	ldrb.w	r2, [sp, #38]	; 0x26
   d4342:	f89d 3025 	ldrb.w	r3, [sp, #37]	; 0x25
   d4346:	ea43 2302 	orr.w	r3, r3, r2, lsl #8
   d434a:	82e3      	strh	r3, [r4, #22]
			coeff_array[BME680_T1_LSB_REG]));
		dev->calib.par_t2 = (int16_t) (BME680_CONCAT_BYTES(coeff_array[BME680_T2_MSB_REG],
   d434c:	f89d 2006 	ldrb.w	r2, [sp, #6]
   d4350:	f89d 3005 	ldrb.w	r3, [sp, #5]
   d4354:	ea43 2302 	orr.w	r3, r3, r2, lsl #8
   d4358:	8323      	strh	r3, [r4, #24]
			coeff_array[BME680_T2_LSB_REG]));
		dev->calib.par_t3 = (int8_t) (coeff_array[BME680_T3_REG]);
   d435a:	f89d 3007 	ldrb.w	r3, [sp, #7]

		/* Pressure related coefficients */
		dev->calib.par_p1 = (uint16_t) (BME680_CONCAT_BYTES(coeff_array[BME680_P1_MSB_REG],
   d435e:	f89d 200a 	ldrb.w	r2, [sp, #10]
		/* Temperature related coefficients */
		dev->calib.par_t1 = (uint16_t) (BME680_CONCAT_BYTES(coeff_array[BME680_T1_MSB_REG],
			coeff_array[BME680_T1_LSB_REG]));
		dev->calib.par_t2 = (int16_t) (BME680_CONCAT_BYTES(coeff_array[BME680_T2_MSB_REG],
			coeff_array[BME680_T2_LSB_REG]));
		dev->calib.par_t3 = (int8_t) (coeff_array[BME680_T3_REG]);
   d4362:	76a3      	strb	r3, [r4, #26]

		/* Pressure related coefficients */
		dev->calib.par_p1 = (uint16_t) (BME680_CONCAT_BYTES(coeff_array[BME680_P1_MSB_REG],
   d4364:	f89d 3009 	ldrb.w	r3, [sp, #9]
   d4368:	ea43 2302 	orr.w	r3, r3, r2, lsl #8
   d436c:	83a3      	strh	r3, [r4, #28]
			coeff_array[BME680_P1_LSB_REG]));
		dev->calib.par_p2 = (int16_t) (BME680_CONCAT_BYTES(coeff_array[BME680_P2_MSB_REG],
   d436e:	f89d 200c 	ldrb.w	r2, [sp, #12]
   d4372:	f89d 300b 	ldrb.w	r3, [sp, #11]
   d4376:	ea43 2302 	orr.w	r3, r3, r2, lsl #8
   d437a:	83e3      	strh	r3, [r4, #30]
			coeff_array[BME680_P2_LSB_REG]));
		dev->calib.par_p3 = (int8_t) coeff_array[BME680_P3_REG];
   d437c:	f89d 300d 	ldrb.w	r3, [sp, #13]
		dev->calib.par_p4 = (int16_t) (BME680_CONCAT_BYTES(coeff_array[BME680_P4_MSB_REG],
   d4380:	f89d 2010 	ldrb.w	r2, [sp, #16]
		/* Pressure related coefficients */
		dev->calib.par_p1 = (uint16_t) (BME680_CONCAT_BYTES(coeff_array[BME680_P1_MSB_REG],
			coeff_array[BME680_P1_LSB_REG]));
		dev->calib.par_p2 = (int16_t) (BME680_CONCAT_BYTES(coeff_array[BME680_P2_MSB_REG],
			coeff_array[BME680_P2_LSB_REG]));
		dev->calib.par_p3 = (int8_t) coeff_array[BME680_P3_REG];
   d4384:	f884 3020 	strb.w	r3, [r4, #32]
		dev->calib.par_p4 = (int16_t) (BME680_CONCAT_BYTES(coeff_array[BME680_P4_MSB_REG],
   d4388:	f89d 300f 	ldrb.w	r3, [sp, #15]
   d438c:	ea43 2302 	orr.w	r3, r3, r2, lsl #8
   d4390:	8463      	strh	r3, [r4, #34]	; 0x22
			coeff_array[BME680_P4_LSB_REG]));
		dev->calib.par_p5 = (int16_t) (BME680_CONCAT_BYTES(coeff_array[BME680_P5_MSB_REG],
   d4392:	f89d 2012 	ldrb.w	r2, [sp, #18]
   d4396:	f89d 3011 	ldrb.w	r3, [sp, #17]
   d439a:	ea43 2302 	orr.w	r3, r3, r2, lsl #8
   d439e:	84a3      	strh	r3, [r4, #36]	; 0x24
			coeff_array[BME680_P5_LSB_REG]));
		dev->calib.par_p6 = (int8_t) (coeff_array[BME680_P6_REG]);
   d43a0:	f89d 3014 	ldrb.w	r3, [sp, #20]
   d43a4:	f884 3026 	strb.w	r3, [r4, #38]	; 0x26
		dev->calib.par_p7 = (int8_t) (coeff_array[BME680_P7_REG]);
   d43a8:	f89d 3013 	ldrb.w	r3, [sp, #19]
		dev->calib.par_p8 = (int16_t) (BME680_CONCAT_BYTES(coeff_array[BME680_P8_MSB_REG],
   d43ac:	f89d 2018 	ldrb.w	r2, [sp, #24]
		dev->calib.par_p4 = (int16_t) (BME680_CONCAT_BYTES(coeff_array[BME680_P4_MSB_REG],
			coeff_array[BME680_P4_LSB_REG]));
		dev->calib.par_p5 = (int16_t) (BME680_CONCAT_BYTES(coeff_array[BME680_P5_MSB_REG],
			coeff_array[BME680_P5_LSB_REG]));
		dev->calib.par_p6 = (int8_t) (coeff_array[BME680_P6_REG]);
		dev->calib.par_p7 = (int8_t) (coeff_array[BME680_P7_REG]);
   d43b0:	f884 3027 	strb.w	r3, [r4, #39]	; 0x27
		dev->calib.par_p8 = (int16_t) (BME680_CONCAT_BYTES(coeff_array[BME680_P8_MSB_REG],
   d43b4:	f89d 3017 	ldrb.w	r3, [sp, #23]
   d43b8:	ea43 2302 	orr.w	r3, r3, r2, lsl #8
   d43bc:	8523      	strh	r3, [r4, #40]	; 0x28
			coeff_array[BME680_P8_LSB_REG]));
		dev->calib.par_p9 = (int16_t) (BME680_CONCAT_BYTES(coeff_array[BME680_P9_MSB_REG],
   d43be:	f89d 201a 	ldrb.w	r2, [sp, #26]
   d43c2:	f89d 3019 	ldrb.w	r3, [sp, #25]
   d43c6:	ea43 2302 	orr.w	r3, r3, r2, lsl #8
   d43ca:	8563      	strh	r3, [r4, #42]	; 0x2a
			coeff_array[BME680_P9_LSB_REG]));
		dev->calib.par_p10 = (uint8_t) (coeff_array[BME680_P10_REG]);
   d43cc:	f89d 301b 	ldrb.w	r3, [sp, #27]
   d43d0:	f884 302c 	strb.w	r3, [r4, #44]	; 0x2c

		/* Humidity related coefficients */
		dev->calib.par_h1 = (uint16_t) (((uint16_t) coeff_array[BME680_H1_MSB_REG] << BME680_HUM_REG_SHIFT_VAL)
			| (coeff_array[BME680_H1_LSB_REG] & BME680_BIT_H1_DATA_MSK));
   d43d4:	f89d 301e 	ldrb.w	r3, [sp, #30]
		dev->calib.par_p9 = (int16_t) (BME680_CONCAT_BYTES(coeff_array[BME680_P9_MSB_REG],
			coeff_array[BME680_P9_LSB_REG]));
		dev->calib.par_p10 = (uint8_t) (coeff_array[BME680_P10_REG]);

		/* Humidity related coefficients */
		dev->calib.par_h1 = (uint16_t) (((uint16_t) coeff_array[BME680_H1_MSB_REG] << BME680_HUM_REG_SHIFT_VAL)
   d43d8:	f89d 101f 	ldrb.w	r1, [sp, #31]
   d43dc:	f003 020f 	and.w	r2, r3, #15
   d43e0:	ea42 1201 	orr.w	r2, r2, r1, lsl #4
   d43e4:	8122      	strh	r2, [r4, #8]
			| (coeff_array[BME680_H1_LSB_REG] & BME680_BIT_H1_DATA_MSK));
		dev->calib.par_h2 = (uint16_t) (((uint16_t) coeff_array[BME680_H2_MSB_REG] << BME680_HUM_REG_SHIFT_VAL)
   d43e6:	f89d 201d 	ldrb.w	r2, [sp, #29]
   d43ea:	091b      	lsrs	r3, r3, #4
   d43ec:	ea43 1302 	orr.w	r3, r3, r2, lsl #4
   d43f0:	8163      	strh	r3, [r4, #10]
			| ((coeff_array[BME680_H2_LSB_REG]) >> BME680_HUM_REG_SHIFT_VAL));
		dev->calib.par_h3 = (int8_t) coeff_array[BME680_H3_REG];
   d43f2:	f89d 3020 	ldrb.w	r3, [sp, #32]
   d43f6:	7323      	strb	r3, [r4, #12]
		dev->calib.par_h4 = (int8_t) coeff_array[BME680_H4_REG];
   d43f8:	f89d 3021 	ldrb.w	r3, [sp, #33]	; 0x21
   d43fc:	7363      	strb	r3, [r4, #13]
		dev->calib.par_h5 = (int8_t) coeff_array[BME680_H5_REG];
   d43fe:	f89d 3022 	ldrb.w	r3, [sp, #34]	; 0x22
   d4402:	73a3      	strb	r3, [r4, #14]
		dev->calib.par_h6 = (uint8_t) coeff_array[BME680_H6_REG];
   d4404:	f89d 3023 	ldrb.w	r3, [sp, #35]	; 0x23
   d4408:	73e3      	strb	r3, [r4, #15]
		dev->calib.par_h7 = (int8_t) coeff_array[BME680_H7_REG];
   d440a:	f89d 3024 	ldrb.w	r3, [sp, #36]	; 0x24
   d440e:	7423      	strb	r3, [r4, #16]

		/* Gas heater related coefficients */
		dev->calib.par_gh1 = (int8_t) coeff_array[BME680_GH1_REG];
   d4410:	f89d 3029 	ldrb.w	r3, [sp, #41]	; 0x29
   d4414:	7463      	strb	r3, [r4, #17]
		dev->calib.par_gh2 = (int16_t) (BME680_CONCAT_BYTES(coeff_array[BME680_GH2_MSB_REG],
   d4416:	f89d 2028 	ldrb.w	r2, [sp, #40]	; 0x28
   d441a:	f89d 3027 	ldrb.w	r3, [sp, #39]	; 0x27
   d441e:	ea43 2302 	orr.w	r3, r3, r2, lsl #8
   d4422:	8263      	strh	r3, [r4, #18]
			coeff_array[BME680_GH2_LSB_REG]));
		dev->calib.par_gh3 = (int8_t) coeff_array[BME680_GH3_REG];
   d4424:	f89d 302a 	ldrb.w	r3, [sp, #42]	; 0x2a
   d4428:	7523      	strb	r3, [r4, #20]

		/* Other coefficients */
		if (rslt == BME680_OK) {
   d442a:	bb15      	cbnz	r5, d4472 <bme680_init+0x1ac>
			rslt = bme680_get_regs(BME680_ADDR_RES_HEAT_RANGE_ADDR, &temp_var, 1, dev);
   d442c:	4623      	mov	r3, r4
   d442e:	2201      	movs	r2, #1
   d4430:	f10d 0103 	add.w	r1, sp, #3
   d4434:	2002      	movs	r0, #2
   d4436:	f7ff feac 	bl	d4192 <bme680_get_regs>

			dev->calib.res_heat_range = ((temp_var & BME680_RHRANGE_MSK) / 16);
   d443a:	f89d 3003 	ldrb.w	r3, [sp, #3]
   d443e:	f3c3 1301 	ubfx	r3, r3, #4, #2
   d4442:	f884 3034 	strb.w	r3, [r4, #52]	; 0x34
			if (rslt == BME680_OK) {
   d4446:	4605      	mov	r5, r0
   d4448:	b998      	cbnz	r0, d4472 <bme680_init+0x1ac>
				rslt = bme680_get_regs(BME680_ADDR_RES_HEAT_VAL_ADDR, &temp_var, 1, dev);
   d444a:	4623      	mov	r3, r4
   d444c:	2201      	movs	r2, #1
   d444e:	f10d 0103 	add.w	r1, sp, #3
   d4452:	f7ff fe9e 	bl	d4192 <bme680_get_regs>

				dev->calib.res_heat_val = (int8_t) temp_var;
   d4456:	f89d 3003 	ldrb.w	r3, [sp, #3]
   d445a:	f884 3035 	strb.w	r3, [r4, #53]	; 0x35
				if (rslt == BME680_OK)
   d445e:	4605      	mov	r5, r0
   d4460:	b938      	cbnz	r0, d4472 <bme680_init+0x1ac>
					rslt = bme680_get_regs(BME680_ADDR_RANGE_SW_ERR_ADDR, &temp_var, 1, dev);
   d4462:	4623      	mov	r3, r4
   d4464:	2201      	movs	r2, #1
   d4466:	f10d 0103 	add.w	r1, sp, #3
   d446a:	2004      	movs	r0, #4
   d446c:	f7ff fe91 	bl	d4192 <bme680_get_regs>
   d4470:	4605      	mov	r5, r0
			}
		}
		dev->calib.range_sw_err = ((int8_t) temp_var & (int8_t) BME680_RSERROR_MSK) / 16;
   d4472:	f99d 3003 	ldrsb.w	r3, [sp, #3]
   d4476:	111b      	asrs	r3, r3, #4
   d4478:	f884 3036 	strb.w	r3, [r4, #54]	; 0x36
   d447c:	e001      	b.n	d4482 <bme680_init+0x1bc>
			if (rslt == BME680_OK) {
				if (dev->chip_id == BME680_CHIP_ID) {
					/* Get the Calibration data */
					rslt = get_calib_data(dev);
				} else {
					rslt = BME680_E_DEV_NOT_FOUND;
   d447e:	f06f 0502 	mvn.w	r5, #2
			}
		}
	}

	return rslt;
}
   d4482:	4628      	mov	r0, r5
   d4484:	b00d      	add	sp, #52	; 0x34
   d4486:	bd30      	pop	{r4, r5, pc}

000d4488 <bme680_set_sensor_mode>:

/*!
 * @brief This API is used to set the power mode of the sensor.
 */
int8_t bme680_set_sensor_mode(struct bme680_dev *dev)
{
   d4488:	b537      	push	{r0, r1, r2, r4, r5, lr}
	int8_t rslt;
	uint8_t tmp_pow_mode;
	uint8_t pow_mode = 0;
	uint8_t reg_addr = BME680_CONF_T_P_MODE_ADDR;
   d448a:	2374      	movs	r3, #116	; 0x74

/*!
 * @brief This API is used to set the power mode of the sensor.
 */
int8_t bme680_set_sensor_mode(struct bme680_dev *dev)
{
   d448c:	4604      	mov	r4, r0
	int8_t rslt;
	uint8_t tmp_pow_mode;
	uint8_t pow_mode = 0;
	uint8_t reg_addr = BME680_CONF_T_P_MODE_ADDR;
   d448e:	f88d 3007 	strb.w	r3, [sp, #7]

	/* Check for null pointer in the device structure*/
	rslt = null_ptr_check(dev);
   d4492:	f7ff fe10 	bl	d40b6 <null_ptr_check>
	if (rslt == BME680_OK) {
   d4496:	bba0      	cbnz	r0, d4502 <bme680_set_sensor_mode+0x7a>
   d4498:	4605      	mov	r5, r0
		/* Call recursively until in sleep */
		do {
			rslt = bme680_get_regs(BME680_CONF_T_P_MODE_ADDR, &tmp_pow_mode, 1, dev);
   d449a:	4623      	mov	r3, r4
   d449c:	2201      	movs	r2, #1
   d449e:	f10d 0106 	add.w	r1, sp, #6
   d44a2:	2074      	movs	r0, #116	; 0x74
   d44a4:	f7ff fe75 	bl	d4192 <bme680_get_regs>
			if (rslt == BME680_OK) {
   d44a8:	b9a0      	cbnz	r0, d44d4 <bme680_set_sensor_mode+0x4c>
				/* Put to sleep before changing mode */
				pow_mode = (tmp_pow_mode & BME680_MODE_MSK);
   d44aa:	f89d 3006 	ldrb.w	r3, [sp, #6]

				if (pow_mode != BME680_SLEEP_MODE) {
   d44ae:	f013 0503 	ands.w	r5, r3, #3
   d44b2:	d011      	beq.n	d44d8 <bme680_set_sensor_mode+0x50>
					tmp_pow_mode = tmp_pow_mode & (~BME680_MODE_MSK); /* Set to sleep */
   d44b4:	f023 0303 	bic.w	r3, r3, #3
   d44b8:	f88d 3006 	strb.w	r3, [sp, #6]
					rslt = bme680_set_regs(&reg_addr, &tmp_pow_mode, 1, dev);
   d44bc:	2201      	movs	r2, #1
   d44be:	4623      	mov	r3, r4
   d44c0:	f10d 0106 	add.w	r1, sp, #6
   d44c4:	f10d 0007 	add.w	r0, sp, #7
   d44c8:	f7ff fe87 	bl	d41da <bme680_set_regs>
					dev->delay_ms(BME680_POLL_PERIOD_MS);
   d44cc:	6d23      	ldr	r3, [r4, #80]	; 0x50
   d44ce:	200a      	movs	r0, #10
   d44d0:	4798      	blx	r3
   d44d2:	e7e2      	b.n	d449a <bme680_set_sensor_mode+0x12>
				}
			}
		} while (pow_mode != BME680_SLEEP_MODE);
   d44d4:	2d00      	cmp	r5, #0
   d44d6:	d1e0      	bne.n	d449a <bme680_set_sensor_mode+0x12>

		/* Already in sleep */
		if (dev->power_mode != BME680_SLEEP_MODE) {
   d44d8:	f894 3044 	ldrb.w	r3, [r4, #68]	; 0x44
   d44dc:	b18b      	cbz	r3, d4502 <bme680_set_sensor_mode+0x7a>
			tmp_pow_mode = (tmp_pow_mode & ~BME680_MODE_MSK) | (dev->power_mode & BME680_MODE_MSK);
   d44de:	f89d 2006 	ldrb.w	r2, [sp, #6]
   d44e2:	f003 0303 	and.w	r3, r3, #3
   d44e6:	f022 0203 	bic.w	r2, r2, #3
   d44ea:	4313      	orrs	r3, r2
   d44ec:	f88d 3006 	strb.w	r3, [sp, #6]
			if (rslt == BME680_OK)
   d44f0:	b938      	cbnz	r0, d4502 <bme680_set_sensor_mode+0x7a>
				rslt = bme680_set_regs(&reg_addr, &tmp_pow_mode, 1, dev);
   d44f2:	4623      	mov	r3, r4
   d44f4:	2201      	movs	r2, #1
   d44f6:	f10d 0106 	add.w	r1, sp, #6
   d44fa:	f10d 0007 	add.w	r0, sp, #7
   d44fe:	f7ff fe6c 	bl	d41da <bme680_set_regs>
		}
	}

	return rslt;
}
   d4502:	b003      	add	sp, #12
   d4504:	bd30      	pop	{r4, r5, pc}

000d4506 <bme680_set_sensor_settings>:
/*!
 * @brief This API is used to set the oversampling, filter and T,P,H, gas selection
 * settings in the sensor.
 */
int8_t bme680_set_sensor_settings(uint16_t desired_settings, struct bme680_dev *dev)
{
   d4506:	e92d 41f0 	stmdb	sp!, {r4, r5, r6, r7, r8, lr}
   d450a:	b088      	sub	sp, #32
	int8_t rslt;
	uint8_t reg_addr;
	uint8_t data = 0;
   d450c:	2300      	movs	r3, #0
/*!
 * @brief This API is used to set the oversampling, filter and T,P,H, gas selection
 * settings in the sensor.
 */
int8_t bme680_set_sensor_settings(uint16_t desired_settings, struct bme680_dev *dev)
{
   d450e:	4606      	mov	r6, r0
	uint8_t reg_array[BME680_REG_BUFFER_LENGTH] = { 0 };
	uint8_t data_array[BME680_REG_BUFFER_LENGTH] = { 0 };
	uint8_t intended_power_mode = dev->power_mode; /* Save intended power mode */

	/* Check for null pointer in the device structure*/
	rslt = null_ptr_check(dev);
   d4510:	4608      	mov	r0, r1
/*!
 * @brief This API is used to set the oversampling, filter and T,P,H, gas selection
 * settings in the sensor.
 */
int8_t bme680_set_sensor_settings(uint16_t desired_settings, struct bme680_dev *dev)
{
   d4512:	460c      	mov	r4, r1
	int8_t rslt;
	uint8_t reg_addr;
	uint8_t data = 0;
   d4514:	f88d 3007 	strb.w	r3, [sp, #7]
	uint8_t count = 0;
	uint8_t reg_array[BME680_REG_BUFFER_LENGTH] = { 0 };
   d4518:	9304      	str	r3, [sp, #16]
   d451a:	f8ad 3014 	strh.w	r3, [sp, #20]
	uint8_t data_array[BME680_REG_BUFFER_LENGTH] = { 0 };
   d451e:	9306      	str	r3, [sp, #24]
   d4520:	f8ad 301c 	strh.w	r3, [sp, #28]
	uint8_t intended_power_mode = dev->power_mode; /* Save intended power mode */

	/* Check for null pointer in the device structure*/
	rslt = null_ptr_check(dev);
   d4524:	f7ff fdc7 	bl	d40b6 <null_ptr_check>
	if (rslt == BME680_OK) {
   d4528:	2800      	cmp	r0, #0
   d452a:	f040 8166 	bne.w	d47fa <bme680_set_sensor_settings+0x2f4>
		if (desired_settings & BME680_GAS_MEAS_SEL)
   d452e:	0732      	lsls	r2, r6, #28
	uint8_t reg_addr;
	uint8_t data = 0;
	uint8_t count = 0;
	uint8_t reg_array[BME680_REG_BUFFER_LENGTH] = { 0 };
	uint8_t data_array[BME680_REG_BUFFER_LENGTH] = { 0 };
	uint8_t intended_power_mode = dev->power_mode; /* Save intended power mode */
   d4530:	f891 7044 	ldrb.w	r7, [r1, #68]	; 0x44

	/* Check for null pointer in the device structure*/
	rslt = null_ptr_check(dev);
	if (rslt == BME680_OK) {
		if (desired_settings & BME680_GAS_MEAS_SEL)
   d4534:	d56c      	bpl.n	d4610 <bme680_set_sensor_settings+0x10a>
	if (rslt == BME680_OK) {

		uint8_t reg_addr[2] = {0};
		uint8_t reg_data[2] = {0};

		if (dev->power_mode == BME680_FORCED_MODE) {
   d4536:	2f01      	cmp	r7, #1

	/* Check for null pointer in the device structure*/
	rslt = null_ptr_check(dev);
	if (rslt == BME680_OK) {

		uint8_t reg_addr[2] = {0};
   d4538:	f8ad 0008 	strh.w	r0, [sp, #8]
		uint8_t reg_data[2] = {0};
   d453c:	f8ad 000c 	strh.w	r0, [sp, #12]

		if (dev->power_mode == BME680_FORCED_MODE) {
   d4540:	d165      	bne.n	d460e <bme680_set_sensor_settings+0x108>
			reg_addr[0] = BME680_RES_HEAT0_ADDR;
			reg_data[0] = calc_heater_res(dev->gas_sett.heatr_temp, dev);
   d4542:	f8b1 5040 	ldrh.w	r5, [r1, #64]	; 0x40

		uint8_t reg_addr[2] = {0};
		uint8_t reg_data[2] = {0};

		if (dev->power_mode == BME680_FORCED_MODE) {
			reg_addr[0] = BME680_RES_HEAT0_ADDR;
   d4546:	235a      	movs	r3, #90	; 0x5a
	int32_t var3;
	int32_t var4;
	int32_t var5;
	int32_t heatr_res_x100;

	if (temp < 200) /* Cap temperature */
   d4548:	2dc7      	cmp	r5, #199	; 0xc7

		uint8_t reg_addr[2] = {0};
		uint8_t reg_data[2] = {0};

		if (dev->power_mode == BME680_FORCED_MODE) {
			reg_addr[0] = BME680_RES_HEAT0_ADDR;
   d454a:	f88d 3008 	strb.w	r3, [sp, #8]
	int32_t var3;
	int32_t var4;
	int32_t var5;
	int32_t heatr_res_x100;

	if (temp < 200) /* Cap temperature */
   d454e:	d905      	bls.n	d455c <bme680_set_sensor_settings+0x56>
   d4550:	f5b5 7fc8 	cmp.w	r5, #400	; 0x190
   d4554:	bf28      	it	cs
   d4556:	f44f 75c8 	movcs.w	r5, #400	; 0x190
   d455a:	e000      	b.n	d455e <bme680_set_sensor_settings+0x58>
		temp = 200;
   d455c:	25c8      	movs	r5, #200	; 0xc8
		uint8_t reg_addr[2] = {0};
		uint8_t reg_data[2] = {0};

		if (dev->power_mode == BME680_FORCED_MODE) {
			reg_addr[0] = BME680_RES_HEAT0_ADDR;
			reg_data[0] = calc_heater_res(dev->gas_sett.heatr_temp, dev);
   d455e:	f9b4 e012 	ldrsh.w	lr, [r4, #18]
   d4562:	f994 2011 	ldrsb.w	r2, [r4, #17]
	if (temp < 200) /* Cap temperature */
		temp = 200;
	else if (temp > 400)
		temp = 400;

	var1 = (((int32_t) dev->amb_temp * dev->calib.par_gh3) / 1000) * 256;
   d4566:	f994 3004 	ldrsb.w	r3, [r4, #4]
   d456a:	f994 0014 	ldrsb.w	r0, [r4, #20]
		uint8_t reg_addr[2] = {0};
		uint8_t reg_data[2] = {0};

		if (dev->power_mode == BME680_FORCED_MODE) {
			reg_addr[0] = BME680_RES_HEAT0_ADDR;
			reg_data[0] = calc_heater_res(dev->gas_sett.heatr_temp, dev);
   d456e:	f50e 3e16 	add.w	lr, lr, #153600	; 0x25800
   d4572:	f20e 1e99 	addw	lr, lr, #409	; 0x199
   d4576:	f502 7244 	add.w	r2, r2, #784	; 0x310
   d457a:	2114      	movs	r1, #20
   d457c:	fb13 f000 	smulbb	r0, r3, r0
   d4580:	fb05 f50e 	mul.w	r5, r5, lr
   d4584:	f44f 737a 	mov.w	r3, #1000	; 0x3e8
   d4588:	fb95 f5f1 	sdiv	r5, r5, r1
   d458c:	fb90 f3f3 	sdiv	r3, r0, r3
   d4590:	210a      	movs	r1, #10
   d4592:	021b      	lsls	r3, r3, #8
   d4594:	f505 1548 	add.w	r5, r5, #3276800	; 0x320000
   d4598:	fb95 f5f1 	sdiv	r5, r5, r1
   d459c:	436a      	muls	r2, r5
   d459e:	eb03 0162 	add.w	r1, r3, r2, asr #1
   d45a2:	f894 3034 	ldrb.w	r3, [r4, #52]	; 0x34
   d45a6:	3304      	adds	r3, #4
   d45a8:	fb91 f2f3 	sdiv	r2, r1, r3
   d45ac:	f994 1035 	ldrsb.w	r1, [r4, #53]	; 0x35
   d45b0:	2383      	movs	r3, #131	; 0x83
   d45b2:	434b      	muls	r3, r1
   d45b4:	f503 3380 	add.w	r3, r3, #65536	; 0x10000
   d45b8:	fb92 f3f3 	sdiv	r3, r2, r3
   d45bc:	2222      	movs	r2, #34	; 0x22
   d45be:	3bfa      	subs	r3, #250	; 0xfa
   d45c0:	4353      	muls	r3, r2
   d45c2:	3332      	adds	r3, #50	; 0x32
   d45c4:	2264      	movs	r2, #100	; 0x64
   d45c6:	fb93 f3f2 	sdiv	r3, r3, r2
   d45ca:	f88d 300c 	strb.w	r3, [sp, #12]
			reg_addr[1] = BME680_GAS_WAIT0_ADDR;
			reg_data[1] = calc_heater_dur(dev->gas_sett.heatr_dur);
   d45ce:	f8b4 3042 	ldrh.w	r3, [r4, #66]	; 0x42
		uint8_t reg_data[2] = {0};

		if (dev->power_mode == BME680_FORCED_MODE) {
			reg_addr[0] = BME680_RES_HEAT0_ADDR;
			reg_data[0] = calc_heater_res(dev->gas_sett.heatr_temp, dev);
			reg_addr[1] = BME680_GAS_WAIT0_ADDR;
   d45d2:	f88d 2009 	strb.w	r2, [sp, #9]
static uint8_t calc_heater_dur(uint16_t dur)
{
	uint8_t factor = 0;
	uint8_t durval;

	if (dur >= 0xfc0) {
   d45d6:	f5b3 6f7c 	cmp.w	r3, #4032	; 0xfc0
   d45da:	d20b      	bcs.n	d45f4 <bme680_set_sensor_settings+0xee>
   d45dc:	2200      	movs	r2, #0
		durval = 0xff; /* Max duration*/
	} else {
		while (dur > 0x3F) {
   d45de:	2b3f      	cmp	r3, #63	; 0x3f
   d45e0:	b2d1      	uxtb	r1, r2
   d45e2:	f102 0201 	add.w	r2, r2, #1
   d45e6:	d901      	bls.n	d45ec <bme680_set_sensor_settings+0xe6>
			dur = dur / 4;
   d45e8:	089b      	lsrs	r3, r3, #2
   d45ea:	e7f8      	b.n	d45de <bme680_set_sensor_settings+0xd8>
			factor += 1;
		}
		durval = (uint8_t) (dur + (factor * 64));
   d45ec:	eb03 1381 	add.w	r3, r3, r1, lsl #6
   d45f0:	b2db      	uxtb	r3, r3
   d45f2:	e000      	b.n	d45f6 <bme680_set_sensor_settings+0xf0>
{
	uint8_t factor = 0;
	uint8_t durval;

	if (dur >= 0xfc0) {
		durval = 0xff; /* Max duration*/
   d45f4:	23ff      	movs	r3, #255	; 0xff

		if (dev->power_mode == BME680_FORCED_MODE) {
			reg_addr[0] = BME680_RES_HEAT0_ADDR;
			reg_data[0] = calc_heater_res(dev->gas_sett.heatr_temp, dev);
			reg_addr[1] = BME680_GAS_WAIT0_ADDR;
			reg_data[1] = calc_heater_dur(dev->gas_sett.heatr_dur);
   d45f6:	f88d 300d 	strb.w	r3, [sp, #13]
			dev->gas_sett.nb_conv = 0;
   d45fa:	2300      	movs	r3, #0
   d45fc:	f884 303c 	strb.w	r3, [r4, #60]	; 0x3c
		} else {
			rslt = BME680_W_DEFINE_PWR_MODE;
		}
		if (rslt == BME680_OK)
			rslt = bme680_set_regs(reg_addr, reg_data, 2, dev);
   d4600:	2202      	movs	r2, #2
   d4602:	4623      	mov	r3, r4
   d4604:	a903      	add	r1, sp, #12
   d4606:	a802      	add	r0, sp, #8
   d4608:	f7ff fde7 	bl	d41da <bme680_set_regs>
   d460c:	e000      	b.n	d4610 <bme680_set_sensor_settings+0x10a>
	if (rslt == BME680_OK) {

		uint8_t reg_addr[2] = {0};
		uint8_t reg_data[2] = {0};

		if (dev->power_mode == BME680_FORCED_MODE) {
   d460e:	2001      	movs	r0, #1
	rslt = null_ptr_check(dev);
	if (rslt == BME680_OK) {
		if (desired_settings & BME680_GAS_MEAS_SEL)
			rslt = set_gas_config(dev);

		dev->power_mode = BME680_SLEEP_MODE;
   d4610:	2300      	movs	r3, #0
   d4612:	f884 3044 	strb.w	r3, [r4, #68]	; 0x44
		if (rslt == BME680_OK)
   d4616:	b910      	cbnz	r0, d461e <bme680_set_sensor_settings+0x118>
			rslt = bme680_set_sensor_mode(dev);
   d4618:	4620      	mov	r0, r4
   d461a:	f7ff ff35 	bl	d4488 <bme680_set_sensor_mode>

		/* Selecting the filter */
		if (desired_settings & BME680_FILTER_SEL) {
   d461e:	f006 0510 	and.w	r5, r6, #16
   d4622:	b2ad      	uxth	r5, r5
   d4624:	b305      	cbz	r5, d4668 <bme680_set_sensor_settings+0x162>
			rslt = boundary_check(&dev->tph_sett.filter, BME680_FILTER_SIZE_0, BME680_FILTER_SIZE_127, dev);
   d4626:	f104 0246 	add.w	r2, r4, #70	; 0x46
   d462a:	2107      	movs	r1, #7
   d462c:	f104 003b 	add.w	r0, r4, #59	; 0x3b
   d4630:	f7ff fda0 	bl	d4174 <boundary_check.isra.1.constprop.2>
			reg_addr = BME680_CONF_ODR_FILT_ADDR;

			if (rslt == BME680_OK)
   d4634:	b930      	cbnz	r0, d4644 <bme680_set_sensor_settings+0x13e>
				rslt = bme680_get_regs(reg_addr, &data, 1, dev);
   d4636:	4623      	mov	r3, r4
   d4638:	2201      	movs	r2, #1
   d463a:	f10d 0107 	add.w	r1, sp, #7
   d463e:	2075      	movs	r0, #117	; 0x75
   d4640:	f7ff fda7 	bl	d4192 <bme680_get_regs>

			if (desired_settings & BME680_FILTER_SEL)
				data = BME680_SET_BITS(data, BME680_FILTER, dev->tph_sett.filter);
   d4644:	f894 303b 	ldrb.w	r3, [r4, #59]	; 0x3b
   d4648:	009b      	lsls	r3, r3, #2
   d464a:	f003 021c 	and.w	r2, r3, #28
   d464e:	f89d 3007 	ldrb.w	r3, [sp, #7]
   d4652:	f023 031c 	bic.w	r3, r3, #28
   d4656:	4313      	orrs	r3, r2

			reg_array[count] = reg_addr; /* Append configuration */
   d4658:	2275      	movs	r2, #117	; 0x75

			if (rslt == BME680_OK)
				rslt = bme680_get_regs(reg_addr, &data, 1, dev);

			if (desired_settings & BME680_FILTER_SEL)
				data = BME680_SET_BITS(data, BME680_FILTER, dev->tph_sett.filter);
   d465a:	f88d 3007 	strb.w	r3, [sp, #7]

			reg_array[count] = reg_addr; /* Append configuration */
   d465e:	f88d 2010 	strb.w	r2, [sp, #16]
			data_array[count] = data;
   d4662:	f88d 3018 	strb.w	r3, [sp, #24]
			count++;
   d4666:	2501      	movs	r5, #1
		}

		/* Selecting heater control for the sensor */
		if (desired_settings & BME680_HCNTRL_SEL) {
   d4668:	06b3      	lsls	r3, r6, #26
   d466a:	d522      	bpl.n	d46b2 <bme680_set_sensor_settings+0x1ac>
			rslt = boundary_check(&dev->gas_sett.heatr_ctrl, BME680_ENABLE_HEATER,
   d466c:	f104 0246 	add.w	r2, r4, #70	; 0x46
   d4670:	2108      	movs	r1, #8
   d4672:	f104 003d 	add.w	r0, r4, #61	; 0x3d
   d4676:	f7ff fd7d 	bl	d4174 <boundary_check.isra.1.constprop.2>
				BME680_DISABLE_HEATER, dev);
			reg_addr = BME680_CONF_HEAT_CTRL_ADDR;

			if (rslt == BME680_OK)
   d467a:	b930      	cbnz	r0, d468a <bme680_set_sensor_settings+0x184>
				rslt = bme680_get_regs(reg_addr, &data, 1, dev);
   d467c:	4623      	mov	r3, r4
   d467e:	2201      	movs	r2, #1
   d4680:	f10d 0107 	add.w	r1, sp, #7
   d4684:	2070      	movs	r0, #112	; 0x70
   d4686:	f7ff fd84 	bl	d4192 <bme680_get_regs>
			data = BME680_SET_BITS_POS_0(data, BME680_HCTRL, dev->gas_sett.heatr_ctrl);
   d468a:	f89d 3007 	ldrb.w	r3, [sp, #7]
   d468e:	f023 0208 	bic.w	r2, r3, #8
   d4692:	f894 303d 	ldrb.w	r3, [r4, #61]	; 0x3d
   d4696:	f003 0308 	and.w	r3, r3, #8
   d469a:	4313      	orrs	r3, r2

			reg_array[count] = reg_addr; /* Append configuration */
   d469c:	aa08      	add	r2, sp, #32
   d469e:	442a      	add	r2, r5
   d46a0:	2170      	movs	r1, #112	; 0x70
			data_array[count] = data;
			count++;
   d46a2:	3501      	adds	r5, #1
				BME680_DISABLE_HEATER, dev);
			reg_addr = BME680_CONF_HEAT_CTRL_ADDR;

			if (rslt == BME680_OK)
				rslt = bme680_get_regs(reg_addr, &data, 1, dev);
			data = BME680_SET_BITS_POS_0(data, BME680_HCTRL, dev->gas_sett.heatr_ctrl);
   d46a4:	f88d 3007 	strb.w	r3, [sp, #7]

			reg_array[count] = reg_addr; /* Append configuration */
   d46a8:	f802 1c10 	strb.w	r1, [r2, #-16]
			data_array[count] = data;
   d46ac:	f802 3c08 	strb.w	r3, [r2, #-8]
			count++;
   d46b0:	b2ed      	uxtb	r5, r5
		}

		/* Selecting heater T,P oversampling for the sensor */
		if (desired_settings & (BME680_OST_SEL | BME680_OSP_SEL)) {
   d46b2:	07b1      	lsls	r1, r6, #30
   d46b4:	d033      	beq.n	d471e <bme680_set_sensor_settings+0x218>
			rslt = boundary_check(&dev->tph_sett.os_temp, BME680_OS_NONE, BME680_OS_16X, dev);
   d46b6:	f104 0246 	add.w	r2, r4, #70	; 0x46
   d46ba:	2105      	movs	r1, #5
   d46bc:	f104 0039 	add.w	r0, r4, #57	; 0x39
   d46c0:	f7ff fd58 	bl	d4174 <boundary_check.isra.1.constprop.2>
			reg_addr = BME680_CONF_T_P_MODE_ADDR;

			if (rslt == BME680_OK)
   d46c4:	b930      	cbnz	r0, d46d4 <bme680_set_sensor_settings+0x1ce>
				rslt = bme680_get_regs(reg_addr, &data, 1, dev);
   d46c6:	4623      	mov	r3, r4
   d46c8:	2201      	movs	r2, #1
   d46ca:	f10d 0107 	add.w	r1, sp, #7
   d46ce:	2074      	movs	r0, #116	; 0x74
   d46d0:	f7ff fd5f 	bl	d4192 <bme680_get_regs>

			if (desired_settings & BME680_OST_SEL)
   d46d4:	07f2      	lsls	r2, r6, #31
   d46d6:	d509      	bpl.n	d46ec <bme680_set_sensor_settings+0x1e6>
				data = BME680_SET_BITS(data, BME680_OST, dev->tph_sett.os_temp);
   d46d8:	f89d 3007 	ldrb.w	r3, [sp, #7]
   d46dc:	f894 2039 	ldrb.w	r2, [r4, #57]	; 0x39
   d46e0:	f003 031f 	and.w	r3, r3, #31
   d46e4:	ea43 1342 	orr.w	r3, r3, r2, lsl #5
   d46e8:	f88d 3007 	strb.w	r3, [sp, #7]

			if (desired_settings & BME680_OSP_SEL)
   d46ec:	07b3      	lsls	r3, r6, #30
   d46ee:	d50b      	bpl.n	d4708 <bme680_set_sensor_settings+0x202>
				data = BME680_SET_BITS(data, BME680_OSP, dev->tph_sett.os_pres);
   d46f0:	f894 303a 	ldrb.w	r3, [r4, #58]	; 0x3a
   d46f4:	009b      	lsls	r3, r3, #2
   d46f6:	f003 021c 	and.w	r2, r3, #28
   d46fa:	f89d 3007 	ldrb.w	r3, [sp, #7]
   d46fe:	f023 031c 	bic.w	r3, r3, #28
   d4702:	4313      	orrs	r3, r2
   d4704:	f88d 3007 	strb.w	r3, [sp, #7]

			reg_array[count] = reg_addr;
   d4708:	ab08      	add	r3, sp, #32
   d470a:	442b      	add	r3, r5
   d470c:	2274      	movs	r2, #116	; 0x74
   d470e:	f803 2c10 	strb.w	r2, [r3, #-16]
			data_array[count] = data;
			count++;
   d4712:	3501      	adds	r5, #1

			if (desired_settings & BME680_OSP_SEL)
				data = BME680_SET_BITS(data, BME680_OSP, dev->tph_sett.os_pres);

			reg_array[count] = reg_addr;
			data_array[count] = data;
   d4714:	f89d 2007 	ldrb.w	r2, [sp, #7]
   d4718:	f803 2c08 	strb.w	r2, [r3, #-8]
			count++;
   d471c:	b2ed      	uxtb	r5, r5
		}

		/* Selecting humidity oversampling for the sensor */
		if (desired_settings & BME680_OSH_SEL) {
   d471e:	0771      	lsls	r1, r6, #29
   d4720:	d522      	bpl.n	d4768 <bme680_set_sensor_settings+0x262>
			rslt = boundary_check(&dev->tph_sett.os_hum, BME680_OS_NONE, BME680_OS_16X, dev);
   d4722:	f104 0246 	add.w	r2, r4, #70	; 0x46
   d4726:	2105      	movs	r1, #5
   d4728:	f104 0038 	add.w	r0, r4, #56	; 0x38
   d472c:	f7ff fd22 	bl	d4174 <boundary_check.isra.1.constprop.2>
			reg_addr = BME680_CONF_OS_H_ADDR;

			if (rslt == BME680_OK)
   d4730:	b930      	cbnz	r0, d4740 <bme680_set_sensor_settings+0x23a>
				rslt = bme680_get_regs(reg_addr, &data, 1, dev);
   d4732:	4623      	mov	r3, r4
   d4734:	2201      	movs	r2, #1
   d4736:	f10d 0107 	add.w	r1, sp, #7
   d473a:	2072      	movs	r0, #114	; 0x72
   d473c:	f7ff fd29 	bl	d4192 <bme680_get_regs>
			data = BME680_SET_BITS_POS_0(data, BME680_OSH, dev->tph_sett.os_hum);
   d4740:	f89d 3007 	ldrb.w	r3, [sp, #7]
   d4744:	f023 0207 	bic.w	r2, r3, #7
   d4748:	f894 3038 	ldrb.w	r3, [r4, #56]	; 0x38
   d474c:	f003 0307 	and.w	r3, r3, #7
   d4750:	4313      	orrs	r3, r2

			reg_array[count] = reg_addr; /* Append configuration */
   d4752:	aa08      	add	r2, sp, #32
   d4754:	442a      	add	r2, r5
   d4756:	2172      	movs	r1, #114	; 0x72
			data_array[count] = data;
			count++;
   d4758:	3501      	adds	r5, #1
			rslt = boundary_check(&dev->tph_sett.os_hum, BME680_OS_NONE, BME680_OS_16X, dev);
			reg_addr = BME680_CONF_OS_H_ADDR;

			if (rslt == BME680_OK)
				rslt = bme680_get_regs(reg_addr, &data, 1, dev);
			data = BME680_SET_BITS_POS_0(data, BME680_OSH, dev->tph_sett.os_hum);
   d475a:	f88d 3007 	strb.w	r3, [sp, #7]

			reg_array[count] = reg_addr; /* Append configuration */
   d475e:	f802 1c10 	strb.w	r1, [r2, #-16]
			data_array[count] = data;
   d4762:	f802 3c08 	strb.w	r3, [r2, #-8]
			count++;
   d4766:	b2ed      	uxtb	r5, r5
		}

		/* Selecting the runGas and NB conversion settings for the sensor */
		if (desired_settings & (BME680_RUN_GAS_SEL | BME680_NBCONV_SEL)) {
   d4768:	f016 0fc0 	tst.w	r6, #192	; 0xc0
   d476c:	d03c      	beq.n	d47e8 <bme680_set_sensor_settings+0x2e2>
   d476e:	f104 0846 	add.w	r8, r4, #70	; 0x46
			rslt = boundary_check(&dev->gas_sett.run_gas, BME680_RUN_GAS_DISABLE,
   d4772:	4642      	mov	r2, r8
   d4774:	2101      	movs	r1, #1
   d4776:	f104 003e 	add.w	r0, r4, #62	; 0x3e
   d477a:	f7ff fcfb 	bl	d4174 <boundary_check.isra.1.constprop.2>
				BME680_RUN_GAS_ENABLE, dev);
			if (rslt == BME680_OK) {
   d477e:	b968      	cbnz	r0, d479c <bme680_set_sensor_settings+0x296>
				/* Validate boundary conditions */
				rslt = boundary_check(&dev->gas_sett.nb_conv, BME680_NBCONV_MIN,
   d4780:	4642      	mov	r2, r8
   d4782:	210a      	movs	r1, #10
   d4784:	f104 003c 	add.w	r0, r4, #60	; 0x3c
   d4788:	f7ff fcf4 	bl	d4174 <boundary_check.isra.1.constprop.2>
					BME680_NBCONV_MAX, dev);
			}

			reg_addr = BME680_CONF_ODR_RUN_GAS_NBC_ADDR;

			if (rslt == BME680_OK)
   d478c:	b930      	cbnz	r0, d479c <bme680_set_sensor_settings+0x296>
				rslt = bme680_get_regs(reg_addr, &data, 1, dev);
   d478e:	4623      	mov	r3, r4
   d4790:	2201      	movs	r2, #1
   d4792:	f10d 0107 	add.w	r1, sp, #7
   d4796:	2071      	movs	r0, #113	; 0x71
   d4798:	f7ff fcfb 	bl	d4192 <bme680_get_regs>

			if (desired_settings & BME680_RUN_GAS_SEL)
   d479c:	0672      	lsls	r2, r6, #25
   d479e:	d50b      	bpl.n	d47b8 <bme680_set_sensor_settings+0x2b2>
				data = BME680_SET_BITS(data, BME680_RUN_GAS, dev->gas_sett.run_gas);
   d47a0:	f894 303e 	ldrb.w	r3, [r4, #62]	; 0x3e
   d47a4:	011b      	lsls	r3, r3, #4
   d47a6:	f003 0210 	and.w	r2, r3, #16
   d47aa:	f89d 3007 	ldrb.w	r3, [sp, #7]
   d47ae:	f023 0310 	bic.w	r3, r3, #16
   d47b2:	4313      	orrs	r3, r2
   d47b4:	f88d 3007 	strb.w	r3, [sp, #7]

			if (desired_settings & BME680_NBCONV_SEL)
   d47b8:	0633      	lsls	r3, r6, #24
   d47ba:	d50a      	bpl.n	d47d2 <bme680_set_sensor_settings+0x2cc>
				data = BME680_SET_BITS_POS_0(data, BME680_NBCONV, dev->gas_sett.nb_conv);
   d47bc:	f89d 3007 	ldrb.w	r3, [sp, #7]
   d47c0:	f023 020f 	bic.w	r2, r3, #15
   d47c4:	f894 303c 	ldrb.w	r3, [r4, #60]	; 0x3c
   d47c8:	f003 030f 	and.w	r3, r3, #15
   d47cc:	4313      	orrs	r3, r2
   d47ce:	f88d 3007 	strb.w	r3, [sp, #7]

			reg_array[count] = reg_addr; /* Append configuration */
   d47d2:	ab08      	add	r3, sp, #32
   d47d4:	442b      	add	r3, r5
   d47d6:	2271      	movs	r2, #113	; 0x71
   d47d8:	f803 2c10 	strb.w	r2, [r3, #-16]
			data_array[count] = data;
			count++;
   d47dc:	3501      	adds	r5, #1

			if (desired_settings & BME680_NBCONV_SEL)
				data = BME680_SET_BITS_POS_0(data, BME680_NBCONV, dev->gas_sett.nb_conv);

			reg_array[count] = reg_addr; /* Append configuration */
			data_array[count] = data;
   d47de:	f89d 2007 	ldrb.w	r2, [sp, #7]
   d47e2:	f803 2c08 	strb.w	r2, [r3, #-8]
			count++;
   d47e6:	b2ed      	uxtb	r5, r5
		}

		if (rslt == BME680_OK)
   d47e8:	b928      	cbnz	r0, d47f6 <bme680_set_sensor_settings+0x2f0>
			rslt = bme680_set_regs(reg_array, data_array, count, dev);
   d47ea:	4623      	mov	r3, r4
   d47ec:	462a      	mov	r2, r5
   d47ee:	a906      	add	r1, sp, #24
   d47f0:	a804      	add	r0, sp, #16
   d47f2:	f7ff fcf2 	bl	d41da <bme680_set_regs>

		/* Restore previous intended power mode */
		dev->power_mode = intended_power_mode;
   d47f6:	f884 7044 	strb.w	r7, [r4, #68]	; 0x44
	}

	return rslt;
}
   d47fa:	b008      	add	sp, #32
   d47fc:	e8bd 81f0 	ldmia.w	sp!, {r4, r5, r6, r7, r8, pc}

000d4800 <bme680_get_profile_dur>:

/*!
 * @brief This API is used to get the profile duration of the sensor.
 */
void bme680_get_profile_dur(uint16_t *duration, const struct bme680_dev *dev)
{
   d4800:	b513      	push	{r0, r1, r4, lr}
	uint32_t tph_dur; /* Calculate in us */
	uint32_t meas_cycles;
	uint8_t os_to_meas_cycles[6] = {0, 1, 2, 4, 8, 16};
   d4802:	4b18      	ldr	r3, [pc, #96]	; (d4864 <bme680_get_profile_dur+0x64>)

/*!
 * @brief This API is used to get the profile duration of the sensor.
 */
void bme680_get_profile_dur(uint16_t *duration, const struct bme680_dev *dev)
{
   d4804:	4604      	mov	r4, r0
	uint32_t tph_dur; /* Calculate in us */
	uint32_t meas_cycles;
	uint8_t os_to_meas_cycles[6] = {0, 1, 2, 4, 8, 16};
   d4806:	6818      	ldr	r0, [r3, #0]
   d4808:	889b      	ldrh	r3, [r3, #4]
   d480a:	f8ad 3004 	strh.w	r3, [sp, #4]

	meas_cycles = os_to_meas_cycles[dev->tph_sett.os_temp];
   d480e:	f891 3039 	ldrb.w	r3, [r1, #57]	; 0x39
 */
void bme680_get_profile_dur(uint16_t *duration, const struct bme680_dev *dev)
{
	uint32_t tph_dur; /* Calculate in us */
	uint32_t meas_cycles;
	uint8_t os_to_meas_cycles[6] = {0, 1, 2, 4, 8, 16};
   d4812:	9000      	str	r0, [sp, #0]

	meas_cycles = os_to_meas_cycles[dev->tph_sett.os_temp];
   d4814:	aa02      	add	r2, sp, #8
   d4816:	4413      	add	r3, r2
	meas_cycles += os_to_meas_cycles[dev->tph_sett.os_pres];
   d4818:	f891 203a 	ldrb.w	r2, [r1, #58]	; 0x3a
{
	uint32_t tph_dur; /* Calculate in us */
	uint32_t meas_cycles;
	uint8_t os_to_meas_cycles[6] = {0, 1, 2, 4, 8, 16};

	meas_cycles = os_to_meas_cycles[dev->tph_sett.os_temp];
   d481c:	f813 3c08 	ldrb.w	r3, [r3, #-8]
	meas_cycles += os_to_meas_cycles[dev->tph_sett.os_pres];
   d4820:	a802      	add	r0, sp, #8
   d4822:	4402      	add	r2, r0
   d4824:	f812 2c08 	ldrb.w	r2, [r2, #-8]
   d4828:	4413      	add	r3, r2
	meas_cycles += os_to_meas_cycles[dev->tph_sett.os_hum];
   d482a:	f891 2038 	ldrb.w	r2, [r1, #56]	; 0x38
   d482e:	4402      	add	r2, r0

	/* TPH measurement duration */
	tph_dur = meas_cycles * UINT32_C(1963);
   d4830:	f812 2c08 	ldrb.w	r2, [r2, #-8]
   d4834:	4413      	add	r3, r2
   d4836:	f240 72ab 	movw	r2, #1963	; 0x7ab
   d483a:	4353      	muls	r3, r2
	tph_dur += UINT32_C(477 * 4); /* TPH switching duration */
	tph_dur += UINT32_C(477 * 5); /* Gas measurement duration */
	tph_dur += UINT32_C(500); /* Get it to the closest whole number.*/
   d483c:	f503 5395 	add.w	r3, r3, #4768	; 0x12a0
	tph_dur /= UINT32_C(1000); /* Convert to ms */
   d4840:	f44f 727a 	mov.w	r2, #1000	; 0x3e8

	/* TPH measurement duration */
	tph_dur = meas_cycles * UINT32_C(1963);
	tph_dur += UINT32_C(477 * 4); /* TPH switching duration */
	tph_dur += UINT32_C(477 * 5); /* Gas measurement duration */
	tph_dur += UINT32_C(500); /* Get it to the closest whole number.*/
   d4844:	3319      	adds	r3, #25
	tph_dur /= UINT32_C(1000); /* Convert to ms */
   d4846:	fbb3 f3f2 	udiv	r3, r3, r2

	tph_dur += UINT32_C(1); /* Wake up duration of 1ms */

	*duration = (uint16_t) tph_dur;
   d484a:	3301      	adds	r3, #1
   d484c:	b29b      	uxth	r3, r3
   d484e:	8023      	strh	r3, [r4, #0]

	/* Get the gas duration only when the run gas is enabled */
	if (dev->gas_sett.run_gas) {
   d4850:	f891 203e 	ldrb.w	r2, [r1, #62]	; 0x3e
   d4854:	b11a      	cbz	r2, d485e <bme680_get_profile_dur+0x5e>
		/* The remaining time should be used for heating */
		*duration += dev->gas_sett.heatr_dur;
   d4856:	f8b1 2042 	ldrh.w	r2, [r1, #66]	; 0x42
   d485a:	4413      	add	r3, r2
   d485c:	8023      	strh	r3, [r4, #0]
	}
}
   d485e:	b002      	add	sp, #8
   d4860:	bd10      	pop	{r4, pc}
   d4862:	bf00      	nop
   d4864:	000daf48 	.word	0x000daf48

000d4868 <bme680_get_sensor_data>:
 * @brief This API reads the pressure, temperature and humidity and gas data
 * from the sensor, compensates the data and store it in the bme680_data
 * structure instance passed by the user.
 */
int8_t bme680_get_sensor_data(struct bme680_field_data *data, struct bme680_dev *dev)
{
   d4868:	e92d 4ff0 	stmdb	sp!, {r4, r5, r6, r7, r8, r9, sl, fp, lr}
   d486c:	4680      	mov	r8, r0
   d486e:	b089      	sub	sp, #36	; 0x24
	int8_t rslt;

	/* Check for null pointer in the device structure*/
	rslt = null_ptr_check(dev);
   d4870:	4608      	mov	r0, r1
 * @brief This API reads the pressure, temperature and humidity and gas data
 * from the sensor, compensates the data and store it in the bme680_data
 * structure instance passed by the user.
 */
int8_t bme680_get_sensor_data(struct bme680_field_data *data, struct bme680_dev *dev)
{
   d4872:	460c      	mov	r4, r1
	int8_t rslt;

	/* Check for null pointer in the device structure*/
	rslt = null_ptr_check(dev);
   d4874:	f7ff fc1f 	bl	d40b6 <null_ptr_check>
	if (rslt == BME680_OK) {
   d4878:	4605      	mov	r5, r0
   d487a:	2800      	cmp	r0, #0
   d487c:	f040 8167 	bne.w	d4b4e <bme680_get_sensor_data+0x2e6>
 * @brief This internal API is used to calculate the field data of sensor.
 */
static int8_t read_field_data(struct bme680_field_data *data, struct bme680_dev *dev)
{
	int8_t rslt;
	uint8_t buff[BME680_FIELD_LENGTH] = { 0 };
   d4880:	af04      	add	r7, sp, #16
   d4882:	4601      	mov	r1, r0
   d4884:	220f      	movs	r2, #15
   d4886:	4638      	mov	r0, r7
   d4888:	f004 f959 	bl	d8b3e <memset>
	uint16_t adc_hum;
	uint16_t adc_gas_res;
	uint8_t tries = 10;

	/* Check for null pointer in the device structure*/
	rslt = null_ptr_check(dev);
   d488c:	4620      	mov	r0, r4
   d488e:	f7ff fc12 	bl	d40b6 <null_ptr_check>
   d4892:	260a      	movs	r6, #10
   d4894:	4605      	mov	r5, r0
	do {
		if (rslt == BME680_OK) {
   d4896:	2d00      	cmp	r5, #0
   d4898:	f040 8153 	bne.w	d4b42 <bme680_get_sensor_data+0x2da>
			rslt = bme680_get_regs(((uint8_t) (BME680_FIELD0_ADDR)), buff, (uint16_t) BME680_FIELD_LENGTH,
   d489c:	4623      	mov	r3, r4
   d489e:	220f      	movs	r2, #15
   d48a0:	4639      	mov	r1, r7
   d48a2:	201d      	movs	r0, #29
   d48a4:	f7ff fc75 	bl	d4192 <bme680_get_regs>
   d48a8:	4605      	mov	r5, r0
				dev);

			data->status = buff[0] & BME680_NEW_DATA_MSK;
   d48aa:	f89d 0010 	ldrb.w	r0, [sp, #16]
			adc_pres = (uint32_t) (((uint32_t) buff[2] * 4096) | ((uint32_t) buff[3] * 16)
				| ((uint32_t) buff[4] / 16));
			adc_temp = (uint32_t) (((uint32_t) buff[5] * 4096) | ((uint32_t) buff[6] * 16)
				| ((uint32_t) buff[7] / 16));
			adc_hum = (uint16_t) (((uint32_t) buff[8] * 256) | (uint32_t) buff[9]);
			adc_gas_res = (uint16_t) ((uint32_t) buff[13] * 4 | (((uint32_t) buff[14]) / 64));
   d48ae:	f89d e01e 	ldrb.w	lr, [sp, #30]
			data->status = buff[0] & BME680_NEW_DATA_MSK;
			data->gas_index = buff[0] & BME680_GAS_INDEX_MSK;
			data->meas_index = buff[1];

			/* read the raw data from the sensor */
			adc_pres = (uint32_t) (((uint32_t) buff[2] * 4096) | ((uint32_t) buff[3] * 16)
   d48b2:	f89d 9013 	ldrb.w	r9, [sp, #19]
				| ((uint32_t) buff[4] / 16));
   d48b6:	f89d c014 	ldrb.w	ip, [sp, #20]
			adc_temp = (uint32_t) (((uint32_t) buff[5] * 4096) | ((uint32_t) buff[6] * 16)
   d48ba:	f89d b015 	ldrb.w	fp, [sp, #21]
   d48be:	f89d 1016 	ldrb.w	r1, [sp, #22]
				| ((uint32_t) buff[7] / 16));
   d48c2:	f89d 2017 	ldrb.w	r2, [sp, #23]
		if (rslt == BME680_OK) {
			rslt = bme680_get_regs(((uint8_t) (BME680_FIELD0_ADDR)), buff, (uint16_t) BME680_FIELD_LENGTH,
				dev);

			data->status = buff[0] & BME680_NEW_DATA_MSK;
			data->gas_index = buff[0] & BME680_GAS_INDEX_MSK;
   d48c6:	f000 030f 	and.w	r3, r0, #15
   d48ca:	f888 3001 	strb.w	r3, [r8, #1]
			data->meas_index = buff[1];
   d48ce:	f89d 3011 	ldrb.w	r3, [sp, #17]
   d48d2:	f888 3002 	strb.w	r3, [r8, #2]

			/* read the raw data from the sensor */
			adc_pres = (uint32_t) (((uint32_t) buff[2] * 4096) | ((uint32_t) buff[3] * 16)
   d48d6:	f89d 3012 	ldrb.w	r3, [sp, #18]
   d48da:	9300      	str	r3, [sp, #0]
				| ((uint32_t) buff[4] / 16));
			adc_temp = (uint32_t) (((uint32_t) buff[5] * 4096) | ((uint32_t) buff[6] * 16)
				| ((uint32_t) buff[7] / 16));
			adc_hum = (uint16_t) (((uint32_t) buff[8] * 256) | (uint32_t) buff[9]);
   d48dc:	f89d 3018 	ldrb.w	r3, [sp, #24]
   d48e0:	9301      	str	r3, [sp, #4]
   d48e2:	f89d 3019 	ldrb.w	r3, [sp, #25]
   d48e6:	9302      	str	r3, [sp, #8]
			adc_gas_res = (uint16_t) ((uint32_t) buff[13] * 4 | (((uint32_t) buff[14]) / 64));
   d48e8:	f89d 301d 	ldrb.w	r3, [sp, #29]
   d48ec:	9303      	str	r3, [sp, #12]
			gas_range = buff[14] & BME680_GAS_RANGE_MSK;

			data->status |= buff[14] & BME680_GASM_VALID_MSK;
   d48ee:	fa4f f38e 	sxtb.w	r3, lr
			data->status |= buff[14] & BME680_HEAT_STAB_MSK;
   d48f2:	f003 0a20 	and.w	sl, r3, #32
   d48f6:	f020 007f 	bic.w	r0, r0, #127	; 0x7f
   d48fa:	ea40 000a 	orr.w	r0, r0, sl
   d48fe:	f003 0310 	and.w	r3, r3, #16
   d4902:	4318      	orrs	r0, r3
   d4904:	b240      	sxtb	r0, r0

			if (data->status & BME680_NEW_DATA_MSK) {
   d4906:	2800      	cmp	r0, #0
			adc_hum = (uint16_t) (((uint32_t) buff[8] * 256) | (uint32_t) buff[9]);
			adc_gas_res = (uint16_t) ((uint32_t) buff[13] * 4 | (((uint32_t) buff[14]) / 64));
			gas_range = buff[14] & BME680_GAS_RANGE_MSK;

			data->status |= buff[14] & BME680_GASM_VALID_MSK;
			data->status |= buff[14] & BME680_HEAT_STAB_MSK;
   d4908:	f888 0000 	strb.w	r0, [r8]

			if (data->status & BME680_NEW_DATA_MSK) {
   d490c:	f280 8116 	bge.w	d4b3c <bme680_get_sensor_data+0x2d4>
	int64_t var1;
	int64_t var2;
	int64_t var3;
	int16_t calc_temp;

	var1 = ((int32_t) temp_adc >> 3) - ((int32_t) dev->calib.par_t1 << 1);
   d4910:	0912      	lsrs	r2, r2, #4
   d4912:	ea42 1101 	orr.w	r1, r2, r1, lsl #4
   d4916:	ea41 3b0b 	orr.w	fp, r1, fp, lsl #12
   d491a:	8ae1      	ldrh	r1, [r4, #22]
	var2 = (var1 * (int32_t) dev->calib.par_t2) >> 11;
   d491c:	f9b4 0018 	ldrsh.w	r0, [r4, #24]
	int64_t var1;
	int64_t var2;
	int64_t var3;
	int16_t calc_temp;

	var1 = ((int32_t) temp_adc >> 3) - ((int32_t) dev->calib.par_t1 << 1);
   d4920:	0049      	lsls	r1, r1, #1
   d4922:	ebc1 01db 	rsb	r1, r1, fp, lsr #3
	var2 = (var1 * (int32_t) dev->calib.par_t2) >> 11;
	var3 = ((var1 >> 1) * (var1 >> 1)) >> 12;
   d4926:	460a      	mov	r2, r1
   d4928:	17cb      	asrs	r3, r1, #31
   d492a:	105b      	asrs	r3, r3, #1
   d492c:	ea4f 0232 	mov.w	r2, r2, rrx
	var3 = ((var3) * ((int32_t) dev->calib.par_t3 << 4)) >> 14;
   d4930:	fb02 f603 	mul.w	r6, r2, r3
   d4934:	fba2 2302 	umull	r2, r3, r2, r2
   d4938:	ea4f 3a12 	mov.w	sl, r2, lsr #12
   d493c:	f994 201a 	ldrsb.w	r2, [r4, #26]
   d4940:	eb03 0346 	add.w	r3, r3, r6, lsl #1
   d4944:	ea4a 5a03 	orr.w	sl, sl, r3, lsl #20
   d4948:	ea4f 3b23 	mov.w	fp, r3, asr #12
   d494c:	0113      	lsls	r3, r2, #4
   d494e:	17df      	asrs	r7, r3, #31
   d4950:	fb0a f607 	mul.w	r6, sl, r7
   d4954:	fb03 660b 	mla	r6, r3, fp, r6
	dev->calib.t_fine = (int32_t) (var2 + var3);
   d4958:	fb80 0101 	smull	r0, r1, r0, r1
	int16_t calc_temp;

	var1 = ((int32_t) temp_adc >> 3) - ((int32_t) dev->calib.par_t1 << 1);
	var2 = (var1 * (int32_t) dev->calib.par_t2) >> 11;
	var3 = ((var1 >> 1) * (var1 >> 1)) >> 12;
	var3 = ((var3) * ((int32_t) dev->calib.par_t3 << 4)) >> 14;
   d495c:	fbaa 2303 	umull	r2, r3, sl, r3
   d4960:	4433      	add	r3, r6
	dev->calib.t_fine = (int32_t) (var2 + var3);
   d4962:	0ac0      	lsrs	r0, r0, #11
   d4964:	0b92      	lsrs	r2, r2, #14
   d4966:	ea40 5041 	orr.w	r0, r0, r1, lsl #21
   d496a:	ea42 4283 	orr.w	r2, r2, r3, lsl #18
   d496e:	1883      	adds	r3, r0, r2
   d4970:	6323      	str	r3, [r4, #48]	; 0x30

			data->status |= buff[14] & BME680_GASM_VALID_MSK;
			data->status |= buff[14] & BME680_HEAT_STAB_MSK;

			if (data->status & BME680_NEW_DATA_MSK) {
				data->temperature = calc_temperature(adc_temp, dev);
   d4972:	eb03 0383 	add.w	r3, r3, r3, lsl #2
   d4976:	3380      	adds	r3, #128	; 0x80
   d4978:	121b      	asrs	r3, r3, #8
   d497a:	f8a8 3004 	strh.w	r3, [r8, #4]
	int32_t var2 = 0;
	int32_t var3 = 0;
	int32_t var4 = 0;
	int32_t pressure_comp = 0;

	var1 = (((int32_t)dev->calib.t_fine) >> 1) - 64000;
   d497e:	6b23      	ldr	r3, [r4, #48]	; 0x30
	var2 = ((((var1 >> 2) * (var1 >> 2)) >> 11) *
   d4980:	f994 0026 	ldrsb.w	r0, [r4, #38]	; 0x26
	int32_t var2 = 0;
	int32_t var3 = 0;
	int32_t var4 = 0;
	int32_t pressure_comp = 0;

	var1 = (((int32_t)dev->calib.t_fine) >> 1) - 64000;
   d4984:	105b      	asrs	r3, r3, #1
   d4986:	f5a3 437a 	sub.w	r3, r3, #64000	; 0xfa00
	var2 = ((((var1 >> 2) * (var1 >> 2)) >> 11) *
   d498a:	109a      	asrs	r2, r3, #2
   d498c:	4352      	muls	r2, r2
   d498e:	12d1      	asrs	r1, r2, #11
   d4990:	4348      	muls	r0, r1
		(int32_t)dev->calib.par_p6) >> 2;
	var2 = var2 + ((var1 * (int32_t)dev->calib.par_p5) << 1);
	var2 = (var2 >> 2) + ((int32_t)dev->calib.par_p4 << 16);
   d4992:	f9b4 1024 	ldrsh.w	r1, [r4, #36]	; 0x24
   d4996:	4359      	muls	r1, r3
   d4998:	0049      	lsls	r1, r1, #1
   d499a:	eb01 01a0 	add.w	r1, r1, r0, asr #2
	var1 = (((((var1 >> 2) * (var1 >> 2)) >> 13) *
		((int32_t)dev->calib.par_p3 << 5)) >> 3) +
		(((int32_t)dev->calib.par_p2 * var1) >> 1);
   d499e:	f9b4 001e 	ldrsh.w	r0, [r4, #30]
   d49a2:	4343      	muls	r3, r0
	var1 = (((int32_t)dev->calib.t_fine) >> 1) - 64000;
	var2 = ((((var1 >> 2) * (var1 >> 2)) >> 11) *
		(int32_t)dev->calib.par_p6) >> 2;
	var2 = var2 + ((var1 * (int32_t)dev->calib.par_p5) << 1);
	var2 = (var2 >> 2) + ((int32_t)dev->calib.par_p4 << 16);
	var1 = (((((var1 >> 2) * (var1 >> 2)) >> 13) *
   d49a4:	f994 0020 	ldrsb.w	r0, [r4, #32]
   d49a8:	1352      	asrs	r2, r2, #13
   d49aa:	0140      	lsls	r0, r0, #5
   d49ac:	4342      	muls	r2, r0
   d49ae:	10d2      	asrs	r2, r2, #3
   d49b0:	eb02 0363 	add.w	r3, r2, r3, asr #1
		((int32_t)dev->calib.par_p3 << 5)) >> 3) +
		(((int32_t)dev->calib.par_p2 * var1) >> 1);
	var1 = var1 >> 18;
	var1 = ((32768 + var1) * (int32_t)dev->calib.par_p1) >> 15;
   d49b4:	149b      	asrs	r3, r3, #18
   d49b6:	8ba2      	ldrh	r2, [r4, #28]
	var3 = ((int32_t)(pressure_comp >> 8) * (int32_t)(pressure_comp >> 8) *
		(int32_t)(pressure_comp >> 8) *
		(int32_t)dev->calib.par_p10) >> 17;

	pressure_comp = (int32_t)(pressure_comp) + ((var1 + var2 + var3 +
		((int32_t)dev->calib.par_p7 << 7)) >> 4);
   d49b8:	f9b4 0028 	ldrsh.w	r0, [r4, #40]	; 0x28
	var2 = (var2 >> 2) + ((int32_t)dev->calib.par_p4 << 16);
	var1 = (((((var1 >> 2) * (var1 >> 2)) >> 13) *
		((int32_t)dev->calib.par_p3 << 5)) >> 3) +
		(((int32_t)dev->calib.par_p2 * var1) >> 1);
	var1 = var1 >> 18;
	var1 = ((32768 + var1) * (int32_t)dev->calib.par_p1) >> 15;
   d49bc:	f503 4300 	add.w	r3, r3, #32768	; 0x8000
   d49c0:	4353      	muls	r3, r2
	pressure_comp = 1048576 - pres_adc;
	pressure_comp = (int32_t)((pressure_comp - (var2 >> 12)) * ((uint32_t)3125));
	var4 = (1 << 31);
	if (pressure_comp >= var4)
		pressure_comp = ((pressure_comp / (uint32_t)var1) << 1);
   d49c2:	ea4f 1c1c 	mov.w	ip, ip, lsr #4
   d49c6:	9a00      	ldr	r2, [sp, #0]
   d49c8:	ea4c 1909 	orr.w	r9, ip, r9, lsl #4
   d49cc:	ea49 3902 	orr.w	r9, r9, r2, lsl #12
   d49d0:	f9b4 2022 	ldrsh.w	r2, [r4, #34]	; 0x22
   d49d4:	0412      	lsls	r2, r2, #16
   d49d6:	eb02 01a1 	add.w	r1, r2, r1, asr #2
   d49da:	f5c9 1980 	rsb	r9, r9, #1048576	; 0x100000
   d49de:	f640 4235 	movw	r2, #3125	; 0xc35
   d49e2:	eba9 3121 	sub.w	r1, r9, r1, asr #12
   d49e6:	4351      	muls	r1, r2
   d49e8:	13db      	asrs	r3, r3, #15
   d49ea:	fbb1 f3f3 	udiv	r3, r1, r3
   d49ee:	005b      	lsls	r3, r3, #1
	else
		pressure_comp = ((pressure_comp << 1) / (uint32_t)var1);
	var1 = ((int32_t)dev->calib.par_p9 * (int32_t)(((pressure_comp >> 3) *
		(pressure_comp >> 3)) >> 13)) >> 12;
   d49f0:	10d9      	asrs	r1, r3, #3
	var3 = ((int32_t)(pressure_comp >> 8) * (int32_t)(pressure_comp >> 8) *
		(int32_t)(pressure_comp >> 8) *
		(int32_t)dev->calib.par_p10) >> 17;

	pressure_comp = (int32_t)(pressure_comp) + ((var1 + var2 + var3 +
		((int32_t)dev->calib.par_p7 << 7)) >> 4);
   d49f2:	f9b4 202a 	ldrsh.w	r2, [r4, #42]	; 0x2a
   d49f6:	4349      	muls	r1, r1
   d49f8:	1349      	asrs	r1, r1, #13
   d49fa:	434a      	muls	r2, r1
   d49fc:	1099      	asrs	r1, r3, #2
   d49fe:	4341      	muls	r1, r0
		pressure_comp = ((pressure_comp << 1) / (uint32_t)var1);
	var1 = ((int32_t)dev->calib.par_p9 * (int32_t)(((pressure_comp >> 3) *
		(pressure_comp >> 3)) >> 13)) >> 12;
	var2 = ((int32_t)(pressure_comp >> 2) *
		(int32_t)dev->calib.par_p8) >> 13;
	var3 = ((int32_t)(pressure_comp >> 8) * (int32_t)(pressure_comp >> 8) *
   d4a00:	121e      	asrs	r6, r3, #8
		(int32_t)(pressure_comp >> 8) *
		(int32_t)dev->calib.par_p10) >> 17;

	pressure_comp = (int32_t)(pressure_comp) + ((var1 + var2 + var3 +
		((int32_t)dev->calib.par_p7 << 7)) >> 4);
   d4a02:	1349      	asrs	r1, r1, #13
   d4a04:	eb01 3122 	add.w	r1, r1, r2, asr #12
   d4a08:	fb06 f206 	mul.w	r2, r6, r6
   d4a0c:	4356      	muls	r6, r2
   d4a0e:	f894 202c 	ldrb.w	r2, [r4, #44]	; 0x2c
   d4a12:	4372      	muls	r2, r6
   d4a14:	eb01 4262 	add.w	r2, r1, r2, asr #17
   d4a18:	f994 1027 	ldrsb.w	r1, [r4, #39]	; 0x27
   d4a1c:	eb02 12c1 	add.w	r2, r2, r1, lsl #7
			data->status |= buff[14] & BME680_GASM_VALID_MSK;
			data->status |= buff[14] & BME680_HEAT_STAB_MSK;

			if (data->status & BME680_NEW_DATA_MSK) {
				data->temperature = calc_temperature(adc_temp, dev);
				data->pressure = calc_pressure(adc_pres, dev);
   d4a20:	eb03 1322 	add.w	r3, r3, r2, asr #4
   d4a24:	f8c8 3008 	str.w	r3, [r8, #8]
	int32_t var5;
	int32_t var6;
	int32_t temp_scaled;
	int32_t calc_hum;

	temp_scaled = (((int32_t) dev->calib.t_fine * 5) + 128) >> 8;
   d4a28:	6b23      	ldr	r3, [r4, #48]	; 0x30
		- (((temp_scaled * (int32_t) dev->calib.par_h3) / ((int32_t) 100)) >> 1);
	var2 = ((int32_t) dev->calib.par_h2
		* (((temp_scaled * (int32_t) dev->calib.par_h4) / ((int32_t) 100))
			+ (((temp_scaled * ((temp_scaled * (int32_t) dev->calib.par_h5) / ((int32_t) 100))) >> 6)
				/ ((int32_t) 100)) + (int32_t) (1 << 14))) >> 10;
	var3 = var1 * var2;
   d4a2a:	f994 100e 	ldrsb.w	r1, [r4, #14]
   d4a2e:	f994 000d 	ldrsb.w	r0, [r4, #13]
   d4a32:	8967      	ldrh	r7, [r4, #10]
   d4a34:	8926      	ldrh	r6, [r4, #8]
	int32_t var5;
	int32_t var6;
	int32_t temp_scaled;
	int32_t calc_hum;

	temp_scaled = (((int32_t) dev->calib.t_fine * 5) + 128) >> 8;
   d4a36:	eb03 0383 	add.w	r3, r3, r3, lsl #2
   d4a3a:	3380      	adds	r3, #128	; 0x80
   d4a3c:	121b      	asrs	r3, r3, #8
		- (((temp_scaled * (int32_t) dev->calib.par_h3) / ((int32_t) 100)) >> 1);
	var2 = ((int32_t) dev->calib.par_h2
		* (((temp_scaled * (int32_t) dev->calib.par_h4) / ((int32_t) 100))
			+ (((temp_scaled * ((temp_scaled * (int32_t) dev->calib.par_h5) / ((int32_t) 100))) >> 6)
				/ ((int32_t) 100)) + (int32_t) (1 << 14))) >> 10;
	var3 = var1 * var2;
   d4a3e:	2264      	movs	r2, #100	; 0x64
   d4a40:	4359      	muls	r1, r3
   d4a42:	fb91 f1f2 	sdiv	r1, r1, r2
   d4a46:	4359      	muls	r1, r3
   d4a48:	4358      	muls	r0, r3
   d4a4a:	1189      	asrs	r1, r1, #6
   d4a4c:	fb90 f0f2 	sdiv	r0, r0, r2
   d4a50:	fb91 f1f2 	sdiv	r1, r1, r2
   d4a54:	4401      	add	r1, r0
   d4a56:	f501 4180 	add.w	r1, r1, #16384	; 0x4000
   d4a5a:	4379      	muls	r1, r7
   d4a5c:	128f      	asrs	r7, r1, #10
   d4a5e:	9801      	ldr	r0, [sp, #4]
   d4a60:	9902      	ldr	r1, [sp, #8]
   d4a62:	ea41 2000 	orr.w	r0, r1, r0, lsl #8
   d4a66:	f994 100c 	ldrsb.w	r1, [r4, #12]
   d4a6a:	eba0 1606 	sub.w	r6, r0, r6, lsl #4
   d4a6e:	4359      	muls	r1, r3
   d4a70:	fb91 f1f2 	sdiv	r1, r1, r2
   d4a74:	eba6 0061 	sub.w	r0, r6, r1, asr #1
   d4a78:	fb00 f107 	mul.w	r1, r0, r7
	var4 = (int32_t) dev->calib.par_h6 << 7;
	var4 = ((var4) + ((temp_scaled * (int32_t) dev->calib.par_h7) / ((int32_t) 100))) >> 4;
   d4a7c:	f994 0010 	ldrsb.w	r0, [r4, #16]
   d4a80:	4343      	muls	r3, r0
   d4a82:	fb93 f2f2 	sdiv	r2, r3, r2
   d4a86:	7be3      	ldrb	r3, [r4, #15]
   d4a88:	eb02 12c3 	add.w	r2, r2, r3, lsl #7
	var5 = ((var3 >> 14) * (var3 >> 14)) >> 10;
   d4a8c:	138b      	asrs	r3, r1, #14
	var6 = (var4 * var5) >> 1;
	calc_hum = (((var3 + var6) >> 10) * ((int32_t) 1000)) >> 12;
   d4a8e:	435b      	muls	r3, r3
   d4a90:	1112      	asrs	r2, r2, #4
   d4a92:	129b      	asrs	r3, r3, #10
   d4a94:	4353      	muls	r3, r2
   d4a96:	eb01 0363 	add.w	r3, r1, r3, asr #1
   d4a9a:	f44f 727a 	mov.w	r2, #1000	; 0x3e8
   d4a9e:	129b      	asrs	r3, r3, #10
   d4aa0:	4353      	muls	r3, r2
   d4aa2:	131b      	asrs	r3, r3, #12
   d4aa4:	ea23 73e3 	bic.w	r3, r3, r3, asr #31
			data->status |= buff[14] & BME680_HEAT_STAB_MSK;

			if (data->status & BME680_NEW_DATA_MSK) {
				data->temperature = calc_temperature(adc_temp, dev);
				data->pressure = calc_pressure(adc_pres, dev);
				data->humidity = calc_humidity(adc_hum, dev);
   d4aa8:	4a2b      	ldr	r2, [pc, #172]	; (d4b58 <bme680_get_sensor_data+0x2f0>)
   d4aaa:	4293      	cmp	r3, r2
   d4aac:	bfd4      	ite	le
   d4aae:	f8c8 300c 	strle.w	r3, [r8, #12]
   d4ab2:	f8c8 200c 	strgt.w	r2, [r8, #12]
   d4ab6:	f994 3036 	ldrsb.w	r3, [r4, #54]	; 0x36
	int64_t var1;
	uint64_t var2;
	int64_t var3;
	uint32_t calc_gas_res;

	var1 = (int64_t) ((1340 + (5 * (int64_t) dev->calib.range_sw_err)) *
   d4aba:	2205      	movs	r2, #5
   d4abc:	f240 503c 	movw	r0, #1340	; 0x53c
   d4ac0:	2100      	movs	r1, #0
   d4ac2:	fbc3 0102 	smlal	r0, r1, r3, r2
		((int64_t) lookupTable1[gas_range])) >> 16;
   d4ac6:	f00e 060f 	and.w	r6, lr, #15
   d4aca:	4b24      	ldr	r3, [pc, #144]	; (d4b5c <bme680_get_sensor_data+0x2f4>)
	int64_t var1;
	uint64_t var2;
	int64_t var3;
	uint32_t calc_gas_res;

	var1 = (int64_t) ((1340 + (5 * (int64_t) dev->calib.range_sw_err)) *
   d4acc:	f853 7026 	ldr.w	r7, [r3, r6, lsl #2]
   d4ad0:	fba0 2307 	umull	r2, r3, r0, r7
   d4ad4:	fb07 3301 	mla	r3, r7, r1, r3
   d4ad8:	0c10      	lsrs	r0, r2, #16
   d4ada:	ea40 4003 	orr.w	r0, r0, r3, lsl #16
   d4ade:	1419      	asrs	r1, r3, #16
		((int64_t) lookupTable1[gas_range])) >> 16;
	var2 = (((int64_t) ((int64_t) gas_res_adc << 15) - (int64_t) (16777216)) + var1);
   d4ae0:	9b03      	ldr	r3, [sp, #12]
	var3 = (((int64_t) lookupTable2[gas_range] * (int64_t) var1) >> 9);
   d4ae2:	4f1f      	ldr	r7, [pc, #124]	; (d4b60 <bme680_get_sensor_data+0x2f8>)
	int64_t var3;
	uint32_t calc_gas_res;

	var1 = (int64_t) ((1340 + (5 * (int64_t) dev->calib.range_sw_err)) *
		((int64_t) lookupTable1[gas_range])) >> 16;
	var2 = (((int64_t) ((int64_t) gas_res_adc << 15) - (int64_t) (16777216)) + var1);
   d4ae4:	ea4f 1e9e 	mov.w	lr, lr, lsr #6
   d4ae8:	ea4e 0e83 	orr.w	lr, lr, r3, lsl #2
   d4aec:	ea4f 32ce 	mov.w	r2, lr, lsl #15

			if (data->status & BME680_NEW_DATA_MSK) {
				data->temperature = calc_temperature(adc_temp, dev);
				data->pressure = calc_pressure(adc_pres, dev);
				data->humidity = calc_humidity(adc_hum, dev);
				data->gas_resistance = calc_gas_resistance(adc_gas_res, gas_range, dev);
   d4af0:	f857 e026 	ldr.w	lr, [r7, r6, lsl #2]
	int64_t var3;
	uint32_t calc_gas_res;

	var1 = (int64_t) ((1340 + (5 * (int64_t) dev->calib.range_sw_err)) *
		((int64_t) lookupTable1[gas_range])) >> 16;
	var2 = (((int64_t) ((int64_t) gas_res_adc << 15) - (int64_t) (16777216)) + var1);
   d4af4:	f112 427f 	adds.w	r2, r2, #4278190080	; 0xff000000
   d4af8:	f04f 0300 	mov.w	r3, #0

			if (data->status & BME680_NEW_DATA_MSK) {
				data->temperature = calc_temperature(adc_temp, dev);
				data->pressure = calc_pressure(adc_pres, dev);
				data->humidity = calc_humidity(adc_hum, dev);
				data->gas_resistance = calc_gas_resistance(adc_gas_res, gas_range, dev);
   d4afc:	fbae 6700 	umull	r6, r7, lr, r0
	int64_t var3;
	uint32_t calc_gas_res;

	var1 = (int64_t) ((1340 + (5 * (int64_t) dev->calib.range_sw_err)) *
		((int64_t) lookupTable1[gas_range])) >> 16;
	var2 = (((int64_t) ((int64_t) gas_res_adc << 15) - (int64_t) (16777216)) + var1);
   d4b00:	f143 33ff 	adc.w	r3, r3, #4294967295	; 0xffffffff
   d4b04:	1812      	adds	r2, r2, r0
   d4b06:	414b      	adcs	r3, r1

			if (data->status & BME680_NEW_DATA_MSK) {
				data->temperature = calc_temperature(adc_temp, dev);
				data->pressure = calc_pressure(adc_pres, dev);
				data->humidity = calc_humidity(adc_hum, dev);
				data->gas_resistance = calc_gas_resistance(adc_gas_res, gas_range, dev);
   d4b08:	fb0e 7701 	mla	r7, lr, r1, r7
   d4b0c:	0a70      	lsrs	r0, r6, #9
   d4b0e:	ea40 50c7 	orr.w	r0, r0, r7, lsl #23
   d4b12:	1279      	asrs	r1, r7, #9
   d4b14:	105f      	asrs	r7, r3, #1
   d4b16:	ea4f 0632 	mov.w	r6, r2, rrx
   d4b1a:	1980      	adds	r0, r0, r6
   d4b1c:	4179      	adcs	r1, r7
   d4b1e:	f003 fd2d 	bl	d857c <__aeabi_ldivmod>
   d4b22:	f8c8 0010 	str.w	r0, [r8, #16]
	/* Check for null pointer in the device structure*/
	rslt = null_ptr_check(dev);
	if (rslt == BME680_OK) {
		/* Reading the sensor data in forced mode only */
		rslt = read_field_data(data, dev);
		if (rslt == BME680_OK) {
   d4b26:	b995      	cbnz	r5, d4b4e <bme680_get_sensor_data+0x2e6>
			if (data->status & BME680_NEW_DATA_MSK)
   d4b28:	f998 3000 	ldrsb.w	r3, [r8]
   d4b2c:	2b00      	cmp	r3, #0
				dev->new_fields = 1;
   d4b2e:	bfba      	itte	lt
   d4b30:	2301      	movlt	r3, #1
   d4b32:	f884 3045 	strblt.w	r3, [r4, #69]	; 0x45
			else
				dev->new_fields = 0;
   d4b36:	f884 5045 	strbge.w	r5, [r4, #69]	; 0x45
   d4b3a:	e008      	b.n	d4b4e <bme680_get_sensor_data+0x2e6>
				data->humidity = calc_humidity(adc_hum, dev);
				data->gas_resistance = calc_gas_resistance(adc_gas_res, gas_range, dev);
				break;
			}
			/* Delay to poll the data */
			dev->delay_ms(BME680_POLL_PERIOD_MS);
   d4b3c:	6d23      	ldr	r3, [r4, #80]	; 0x50
   d4b3e:	200a      	movs	r0, #10
   d4b40:	4798      	blx	r3
   d4b42:	3e01      	subs	r6, #1
		}
		tries--;
	} while (tries);
   d4b44:	f016 06ff 	ands.w	r6, r6, #255	; 0xff
   d4b48:	f47f aea5 	bne.w	d4896 <bme680_get_sensor_data+0x2e>

	if (!tries)
		rslt = BME680_W_NO_NEW_DATA;
   d4b4c:	2502      	movs	r5, #2
				dev->new_fields = 0;
		}
	}

	return rslt;
}
   d4b4e:	4628      	mov	r0, r5
   d4b50:	b009      	add	sp, #36	; 0x24
   d4b52:	e8bd 8ff0 	ldmia.w	sp!, {r4, r5, r6, r7, r8, r9, sl, fp, pc}
   d4b56:	bf00      	nop
   d4b58:	000186a0 	.word	0x000186a0
   d4b5c:	2003ded0 	.word	0x2003ded0
   d4b60:	2003df10 	.word	0x2003df10

000d4b64 <_Z10measureNow6String>:
// They are intended to allow for customization and control during installations
// and to allow for management.


int measureNow(String command) // Function to force sending data in current hour
{
   d4b64:	b508      	push	{r3, lr}
	operator StringIfHelperType() const { return buffer ? &String::StringIfHelper : 0; }
	int compareTo(const String &s) const;
	unsigned char equals(const String &s) const;
	unsigned char equals(const char *cstr) const;
	unsigned char operator == (const String &rhs) const {return equals(rhs);}
	unsigned char operator == (const char *cstr) const {return equals(cstr);}
   d4b66:	4904      	ldr	r1, [pc, #16]	; (d4b78 <_Z10measureNow6String+0x14>)
   d4b68:	f002 fb7a 	bl	d7260 <_ZNK6String6equalsEPKc>
  if (command == "1") {
   d4b6c:	b118      	cbz	r0, d4b76 <_Z10measureNow6String+0x12>
    state = MEASURING_STATE;
   d4b6e:	4b03      	ldr	r3, [pc, #12]	; (d4b7c <_Z10measureNow6String+0x18>)
   d4b70:	2203      	movs	r2, #3
   d4b72:	701a      	strb	r2, [r3, #0]
    return 1;
   d4b74:	2001      	movs	r0, #1
  }
  else return 0;
}
   d4b76:	bd08      	pop	{r3, pc}
   d4b78:	000db41a 	.word	0x000db41a
   d4b7c:	2003e279 	.word	0x2003e279

000d4b80 <_ZN11SystemClassD1Ev>:
    system_error_t error_;
    SleepResult compatResult_;
};


class SystemClass {
   d4b80:	b510      	push	{r4, lr}
   d4b82:	4604      	mov	r4, r0
        return toSleepResult();
    }

private:
    void freeWakeupSourceMemory() {
        if (wakeupSource_) {
   d4b84:	6800      	ldr	r0, [r0, #0]
   d4b86:	b108      	cbz	r0, d4b8c <_ZN11SystemClassD1Ev+0xc>
            free(wakeupSource_);
   d4b88:	f001 fb50 	bl	d622c <free>
    system_error_t error_;
    SleepResult compatResult_;
};


class SystemClass {
   d4b8c:	4620      	mov	r0, r4
   d4b8e:	bd10      	pop	{r4, pc}

000d4b90 <_ZN10CloudClass7publishEPKcS1_N8particle5FlagsI15PublishFlagTypehEES5_.isra.55.constprop.62>:
    inline particle::Future<bool> publish(const char *eventName, PublishFlags flags1, PublishFlags flags2 = PublishFlags())
    {
        return publish(eventName, NULL, flags1, flags2);
    }

    inline particle::Future<bool> publish(const char *eventName, const char *eventData, PublishFlags flags1, PublishFlags flags2 = PublishFlags())
   d4b90:	b537      	push	{r0, r1, r2, r4, r5, lr}
   d4b92:	f89d 4018 	ldrb.w	r4, [sp, #24]
   d4b96:	4323      	orrs	r3, r4
        return publish(eventName, eventData, DEFAULT_CLOUD_EVENT_TTL, flags1, flags2);
    }

    inline particle::Future<bool> publish(const char *eventName, const char *eventData, int ttl, PublishFlags flags1, PublishFlags flags2 = PublishFlags())
    {
        return publish_event(eventName, eventData, ttl, flags1 | flags2);
   d4b98:	f88d 3000 	strb.w	r3, [sp]
   d4b9c:	233c      	movs	r3, #60	; 0x3c
    inline particle::Future<bool> publish(const char *eventName, PublishFlags flags1, PublishFlags flags2 = PublishFlags())
    {
        return publish(eventName, NULL, flags1, flags2);
    }

    inline particle::Future<bool> publish(const char *eventName, const char *eventData, PublishFlags flags1, PublishFlags flags2 = PublishFlags())
   d4b9e:	4605      	mov	r5, r0
        return publish(eventName, eventData, DEFAULT_CLOUD_EVENT_TTL, flags1, flags2);
    }

    inline particle::Future<bool> publish(const char *eventName, const char *eventData, int ttl, PublishFlags flags1, PublishFlags flags2 = PublishFlags())
    {
        return publish_event(eventName, eventData, ttl, flags1 | flags2);
   d4ba0:	f001 fd82 	bl	d66a8 <_ZN10CloudClass13publish_eventEPKcS1_iN8particle5FlagsI15PublishFlagTypehEE>
    }

    inline particle::Future<bool> publish(const char *eventName, const char *eventData, PublishFlags flags1, PublishFlags flags2 = PublishFlags())
    {
        return publish(eventName, eventData, DEFAULT_CLOUD_EVENT_TTL, flags1, flags2);
    }
   d4ba4:	4628      	mov	r0, r5
   d4ba6:	b003      	add	sp, #12
   d4ba8:	bd30      	pop	{r4, r5, pc}
	...

000d4bac <_Z17connectToParticlev>:
  return 1;
}


// These functions control the connection and disconnection from Particle
bool connectToParticle() {
   d4bac:	e92d 43d0 	stmdb	sp!, {r4, r6, r7, r8, r9, lr}
    { SystemClass::sleep(wakeUpPin, edgeTriggerMode, seconds); }

    static bool connected(void) { return spark_cloud_flag_connected(); }
    static bool disconnected(void) { return !connected(); }
    static void connect(void) {
        spark_cloud_flag_connect();
   d4bb0:	f001 faa4 	bl	d60fc <spark_cloud_flag_connect>
   d4bb4:	f44f 7496 	mov.w	r4, #300	; 0x12c


    static uint32_t freeMemory();

    template<typename Condition, typename While> static bool waitConditionWhile(Condition _condition, While _while) {
        while (_while() && !_condition()) {
   d4bb8:	f240 36e7 	movw	r6, #999	; 0x3e7
   d4bbc:	2700      	movs	r7, #0
        HAL_Core_Button_Mirror_Pin_Disable((uint8_t)bootloader, 0, NULL);
    }

    // This function is similar to the global millis() but returns a 64-bit value
    static uint64_t millis() {
        return hal_timer_millis(nullptr);
   d4bbe:	2000      	movs	r0, #0
   d4bc0:	f001 f8d8 	bl	d5d74 <hal_timer_millis>


    static uint32_t freeMemory();

    template<typename Condition, typename While> static bool waitConditionWhile(Condition _condition, While _while) {
        while (_while() && !_condition()) {
   d4bc4:	f04f 0900 	mov.w	r9, #0
   d4bc8:	4680      	mov	r8, r0
        HAL_Core_Button_Mirror_Pin_Disable((uint8_t)bootloader, 0, NULL);
    }

    // This function is similar to the global millis() but returns a 64-bit value
    static uint64_t millis() {
        return hal_timer_millis(nullptr);
   d4bca:	2000      	movs	r0, #0
   d4bcc:	f001 f8d2 	bl	d5d74 <hal_timer_millis>


    static uint32_t freeMemory();

    template<typename Condition, typename While> static bool waitConditionWhile(Condition _condition, While _while) {
        while (_while() && !_condition()) {
   d4bd0:	ebb0 0008 	subs.w	r0, r0, r8
   d4bd4:	eb61 0109 	sbc.w	r1, r1, r9
   d4bd8:	428f      	cmp	r7, r1
   d4bda:	bf08      	it	eq
   d4bdc:	4286      	cmpeq	r6, r0
   d4bde:	d305      	bcc.n	d4bec <_Z17connectToParticlev+0x40>
    static void sleep(Spark_Sleep_TypeDef sleepMode, long seconds=0) __attribute__ ((deprecated("Please use System.sleep() instead.")))
    { SystemClass::sleep(sleepMode, seconds); }
    static void sleep(uint16_t wakeUpPin, InterruptMode edgeTriggerMode, long seconds=0) __attribute__ ((deprecated("Please use System.sleep() instead.")))
    { SystemClass::sleep(wakeUpPin, edgeTriggerMode, seconds); }

    static bool connected(void) { return spark_cloud_flag_connected(); }
   d4be0:	f001 fa94 	bl	d610c <spark_cloud_flag_connected>
   d4be4:	b910      	cbnz	r0, d4bec <_Z17connectToParticlev+0x40>
            spark_process();
   d4be6:	f001 fa81 	bl	d60ec <spark_process>
   d4bea:	e7ee      	b.n	d4bca <_Z17connectToParticlev+0x1e>
   d4bec:	f001 fa8e 	bl	d610c <spark_cloud_flag_connected>
  Particle.connect();
  // wait for *up to* 5 minutes
  for (int retry = 0; retry < 300 && !waitFor(Particle.connected,1000); retry++) {
   d4bf0:	b118      	cbz	r0, d4bfa <_Z17connectToParticlev+0x4e>
    Particle.process();
  }
  if (Particle.connected()) return 1;                               // Were able to connect successfully
  else return 0;                                                    // Failed to connect
}
   d4bf2:	e8bd 43d0 	ldmia.w	sp!, {r4, r6, r7, r8, r9, lr}
   d4bf6:	f001 ba89 	b.w	d610c <spark_cloud_flag_connected>
		return !timeout_fn;
	}

	static inline system_tick_t current_time()
	{
		return HAL_Timer_Get_Milli_Seconds();
   d4bfa:	f001 f8a3 	bl	d5d44 <HAL_Timer_Get_Milli_Seconds>
	/**
	 * Lifesign that the application is still working normally.
	 */
	static void checkin()
	{
		last_checkin = current_time();
   d4bfe:	4b03      	ldr	r3, [pc, #12]	; (d4c0c <_Z17connectToParticlev+0x60>)
   d4c00:	6018      	str	r0, [r3, #0]
        spark_cloud_flag_connect();
    }
    static void disconnect(void) { spark_cloud_flag_disconnect(); }
    static void process(void) {
    		application_checkin();
    		spark_process();
   d4c02:	f001 fa73 	bl	d60ec <spark_process>

// These functions control the connection and disconnection from Particle
bool connectToParticle() {
  Particle.connect();
  // wait for *up to* 5 minutes
  for (int retry = 0; retry < 300 && !waitFor(Particle.connected,1000); retry++) {
   d4c06:	3c01      	subs	r4, #1
   d4c08:	d0f3      	beq.n	d4bf2 <_Z17connectToParticlev+0x46>
   d4c0a:	e7d8      	b.n	d4bbe <_Z17connectToParticlev+0x12>
   d4c0c:	2003e6fc 	.word	0x2003e6fc

000d4c10 <_Z8BlinkLEDi>:
bool notConnected() {
  return !Particle.connected();                             // This is a requirement to use waitFor
}

// Function to Blink the LED for alerting. 
void BlinkLED(int LED){
   d4c10:	b510      	push	{r4, lr}
  digitalWrite(LED,HIGH);
   d4c12:	b284      	uxth	r4, r0
   d4c14:	2101      	movs	r1, #1
   d4c16:	4620      	mov	r0, r4
   d4c18:	f002 fdcd 	bl	d77b6 <digitalWrite>
  delay(1000);
   d4c1c:	f44f 707a 	mov.w	r0, #1000	; 0x3e8
   d4c20:	f001 fb34 	bl	d628c <delay>
  digitalWrite(LED,LOW);
   d4c24:	4620      	mov	r0, r4
   d4c26:	2100      	movs	r1, #0
   d4c28:	f002 fdc5 	bl	d77b6 <digitalWrite>
  delay(1000);
   d4c2c:	f44f 707a 	mov.w	r0, #1000	; 0x3e8
}
   d4c30:	e8bd 4010 	ldmia.w	sp!, {r4, lr}
// Function to Blink the LED for alerting. 
void BlinkLED(int LED){
  digitalWrite(LED,HIGH);
  delay(1000);
  digitalWrite(LED,LOW);
  delay(1000);
   d4c34:	f001 bb2a 	b.w	d628c <delay>

000d4c38 <_Z20meterParticlePublishv>:
  Serial.println(stateTransitionString);
}


bool meterParticlePublish(void)
{
   d4c38:	b508      	push	{r3, lr}

#ifdef __cplusplus
extern "C" {
#endif

inline system_tick_t millis(void) { return HAL_Timer_Get_Milli_Seconds(); }
   d4c3a:	f001 f883 	bl	d5d44 <HAL_Timer_Get_Milli_Seconds>
  if(millis() - lastPublish >= publishFrequency) return 1;
   d4c3e:	4b04      	ldr	r3, [pc, #16]	; (d4c50 <_Z20meterParticlePublishv+0x18>)
   d4c40:	681b      	ldr	r3, [r3, #0]
   d4c42:	1ac0      	subs	r0, r0, r3
  else return 0;
}
   d4c44:	f5b0 7f7a 	cmp.w	r0, #1000	; 0x3e8
   d4c48:	bf34      	ite	cc
   d4c4a:	2000      	movcc	r0, #0
   d4c4c:	2001      	movcs	r0, #1
   d4c4e:	bd08      	pop	{r3, pc}
   d4c50:	2003e348 	.word	0x2003e348

000d4c54 <_ZN11SystemClass13waitConditionIZ14UbidotsHandlerPKcS2_EUlvE0_EEbT_.isra.28>:
        }
        return _condition();
    }

    template<typename Condition> static bool waitCondition(Condition _condition) {
   d4c54:	b508      	push	{r3, lr}
}

int setLowerHumidityLimit(String value)
{
  lowerHumidityThreshold = value.toFloat();
  waitUntil(meterParticlePublish);
   d4c56:	f7ff ffef 	bl	d4c38 <_Z20meterParticlePublishv>


    static uint32_t freeMemory();

    template<typename Condition, typename While> static bool waitConditionWhile(Condition _condition, While _while) {
        while (_while() && !_condition()) {
   d4c5a:	b118      	cbz	r0, d4c64 <_ZN11SystemClass13waitConditionIZ14UbidotsHandlerPKcS2_EUlvE0_EEbT_.isra.28+0x10>
        return _condition();
    }

    template<typename Condition> static bool waitCondition(Condition _condition) {
        return waitConditionWhile(_condition, []{ return true; });
    }
   d4c5c:	e8bd 4008 	ldmia.w	sp!, {r3, lr}
   d4c60:	f7ff bfea 	b.w	d4c38 <_Z20meterParticlePublishv>

    static uint32_t freeMemory();

    template<typename Condition, typename While> static bool waitConditionWhile(Condition _condition, While _while) {
        while (_while() && !_condition()) {
            spark_process();
   d4c64:	f001 fa42 	bl	d60ec <spark_process>
   d4c68:	e7f5      	b.n	d4c56 <_ZN11SystemClass13waitConditionIZ14UbidotsHandlerPKcS2_EUlvE0_EEbT_.isra.28+0x2>
	...

000d4c6c <_Z20updateThresholdValuev>:
  Particle.publish("Lower Threshold Set",String(value),PRIVATE);
  updateThresholdValue();
  return 1;
}

void updateThresholdValue(){
   d4c6c:	b507      	push	{r0, r1, r2, lr}
    snprintf(upperTemperatureThresholdString,sizeof(upperTemperatureThresholdString),"Temp_Max : %f3.1f",upperTemperatureThreshold);
   d4c6e:	4b17      	ldr	r3, [pc, #92]	; (d4ccc <_Z20updateThresholdValuev+0x60>)
   d4c70:	6818      	ldr	r0, [r3, #0]
   d4c72:	f003 f8fd 	bl	d7e70 <__aeabi_f2d>
   d4c76:	4a16      	ldr	r2, [pc, #88]	; (d4cd0 <_Z20updateThresholdValuev+0x64>)
   d4c78:	e9cd 0100 	strd	r0, r1, [sp]
   d4c7c:	2108      	movs	r1, #8
   d4c7e:	4815      	ldr	r0, [pc, #84]	; (d4cd4 <_Z20updateThresholdValuev+0x68>)
   d4c80:	f001 faec 	bl	d625c <snprintf>
    snprintf(lowerTemperatureThresholdString,sizeof(lowerTemperatureThresholdString),"Temp_Mix : %3.1f",lowerTemperatureThreshold);
   d4c84:	4b14      	ldr	r3, [pc, #80]	; (d4cd8 <_Z20updateThresholdValuev+0x6c>)
   d4c86:	6818      	ldr	r0, [r3, #0]
   d4c88:	f003 f8f2 	bl	d7e70 <__aeabi_f2d>
   d4c8c:	4a13      	ldr	r2, [pc, #76]	; (d4cdc <_Z20updateThresholdValuev+0x70>)
   d4c8e:	e9cd 0100 	strd	r0, r1, [sp]
   d4c92:	2108      	movs	r1, #8
   d4c94:	4812      	ldr	r0, [pc, #72]	; (d4ce0 <_Z20updateThresholdValuev+0x74>)
   d4c96:	f001 fae1 	bl	d625c <snprintf>
    snprintf(upperHumidityThresholdString,sizeof(upperHumidityThresholdString),"Humidity_Max: %3.1f",upperHumidityThreshold);
   d4c9a:	4b12      	ldr	r3, [pc, #72]	; (d4ce4 <_Z20updateThresholdValuev+0x78>)
   d4c9c:	6818      	ldr	r0, [r3, #0]
   d4c9e:	f003 f8e7 	bl	d7e70 <__aeabi_f2d>
   d4ca2:	4a11      	ldr	r2, [pc, #68]	; (d4ce8 <_Z20updateThresholdValuev+0x7c>)
   d4ca4:	e9cd 0100 	strd	r0, r1, [sp]
   d4ca8:	2108      	movs	r1, #8
   d4caa:	4810      	ldr	r0, [pc, #64]	; (d4cec <_Z20updateThresholdValuev+0x80>)
   d4cac:	f001 fad6 	bl	d625c <snprintf>
    snprintf(lowerHumidityThresholdString,sizeof(lowerHumidityThresholdString),"Humidity_Min : %3.1f",lowerHumidityThreshold);
   d4cb0:	4b0f      	ldr	r3, [pc, #60]	; (d4cf0 <_Z20updateThresholdValuev+0x84>)
   d4cb2:	6818      	ldr	r0, [r3, #0]
   d4cb4:	f003 f8dc 	bl	d7e70 <__aeabi_f2d>
   d4cb8:	4a0e      	ldr	r2, [pc, #56]	; (d4cf4 <_Z20updateThresholdValuev+0x88>)
   d4cba:	e9cd 0100 	strd	r0, r1, [sp]
   d4cbe:	2108      	movs	r1, #8
   d4cc0:	480d      	ldr	r0, [pc, #52]	; (d4cf8 <_Z20updateThresholdValuev+0x8c>)
   d4cc2:	f001 facb 	bl	d625c <snprintf>
   d4cc6:	b003      	add	sp, #12
   d4cc8:	f85d fb04 	ldr.w	pc, [sp], #4
   d4ccc:	2003e028 	.word	0x2003e028
   d4cd0:	000daf8e 	.word	0x000daf8e
   d4cd4:	2003e168 	.word	0x2003e168
   d4cd8:	2003e02c 	.word	0x2003e02c
   d4cdc:	000dafa0 	.word	0x000dafa0
   d4ce0:	2003e158 	.word	0x2003e158
   d4ce4:	2003e034 	.word	0x2003e034
   d4ce8:	000dafb1 	.word	0x000dafb1
   d4cec:	2003e270 	.word	0x2003e270
   d4cf0:	2003e038 	.word	0x2003e038
   d4cf4:	000dafc5 	.word	0x000dafc5
   d4cf8:	2003e134 	.word	0x2003e134

000d4cfc <_ZNSt14__shared_countILN9__gnu_cxx12_Lock_policyE0EED1Ev>:
      explicit __shared_count(const __weak_count<_Lp>& __r);

      // Does not throw if __r._M_get_use_count() == 0, caller must check.
      explicit __shared_count(const __weak_count<_Lp>& __r, std::nothrow_t);

      ~__shared_count() noexcept
   d4cfc:	b538      	push	{r3, r4, r5, lr}
      {
	if (_M_pi != nullptr)
   d4cfe:	6804      	ldr	r4, [r0, #0]
      explicit __shared_count(const __weak_count<_Lp>& __r);

      // Does not throw if __r._M_get_use_count() == 0, caller must check.
      explicit __shared_count(const __weak_count<_Lp>& __r, std::nothrow_t);

      ~__shared_count() noexcept
   d4d00:	4605      	mov	r5, r0
      {
	if (_M_pi != nullptr)
   d4d02:	b17c      	cbz	r4, d4d24 <_ZNSt14__shared_countILN9__gnu_cxx12_Lock_policyE0EED1Ev+0x28>

  template<>
    inline void
    _Sp_counted_base<_S_single>::_M_release() noexcept
    {
      if (--_M_use_count == 0)
   d4d04:	6863      	ldr	r3, [r4, #4]
   d4d06:	3b01      	subs	r3, #1
   d4d08:	6063      	str	r3, [r4, #4]
   d4d0a:	b95b      	cbnz	r3, d4d24 <_ZNSt14__shared_countILN9__gnu_cxx12_Lock_policyE0EED1Ev+0x28>
        {
          _M_dispose();
   d4d0c:	6823      	ldr	r3, [r4, #0]
   d4d0e:	4620      	mov	r0, r4
   d4d10:	689b      	ldr	r3, [r3, #8]
   d4d12:	4798      	blx	r3
          if (--_M_weak_count == 0)
   d4d14:	68a3      	ldr	r3, [r4, #8]
   d4d16:	3b01      	subs	r3, #1
   d4d18:	60a3      	str	r3, [r4, #8]
   d4d1a:	b91b      	cbnz	r3, d4d24 <_ZNSt14__shared_countILN9__gnu_cxx12_Lock_policyE0EED1Ev+0x28>
            _M_destroy();
   d4d1c:	6823      	ldr	r3, [r4, #0]
   d4d1e:	4620      	mov	r0, r4
   d4d20:	68db      	ldr	r3, [r3, #12]
   d4d22:	4798      	blx	r3

      ~__shared_count() noexcept
      {
	if (_M_pi != nullptr)
	  _M_pi->_M_release();
      }
   d4d24:	4628      	mov	r0, r5
   d4d26:	bd38      	pop	{r3, r4, r5, pc}

000d4d28 <_Z9sendEventv>:
    break;
  }
}

void sendEvent()
{
   d4d28:	b500      	push	{lr}
  char data[256];                     
  snprintf(data, sizeof(data), "{\"Temperature\":%4.1f, \"Humidity\":%4.1f, \"Pressure\":%4.1f}", temperatureInC, relativeHumidity, pressureHpa);
   d4d2a:	4b1a      	ldr	r3, [pc, #104]	; (d4d94 <_Z9sendEventv+0x6c>)
   d4d2c:	e9d3 2300 	ldrd	r2, r3, [r3]
    break;
  }
}

void sendEvent()
{
   d4d30:	b0c9      	sub	sp, #292	; 0x124
  char data[256];                     
  snprintf(data, sizeof(data), "{\"Temperature\":%4.1f, \"Humidity\":%4.1f, \"Pressure\":%4.1f}", temperatureInC, relativeHumidity, pressureHpa);
   d4d32:	e9cd 2304 	strd	r2, r3, [sp, #16]
   d4d36:	4b18      	ldr	r3, [pc, #96]	; (d4d98 <_Z9sendEventv+0x70>)
   d4d38:	e9d3 2300 	ldrd	r2, r3, [r3]
   d4d3c:	e9cd 2302 	strd	r2, r3, [sp, #8]
   d4d40:	4b16      	ldr	r3, [pc, #88]	; (d4d9c <_Z9sendEventv+0x74>)
   d4d42:	e9d3 2300 	ldrd	r2, r3, [r3]
   d4d46:	f44f 7180 	mov.w	r1, #256	; 0x100
   d4d4a:	e9cd 2300 	strd	r2, r3, [sp]
   d4d4e:	a808      	add	r0, sp, #32
   d4d50:	4a13      	ldr	r2, [pc, #76]	; (d4da0 <_Z9sendEventv+0x78>)
   d4d52:	f001 fa83 	bl	d625c <snprintf>
   d4d56:	4b13      	ldr	r3, [pc, #76]	; (d4da4 <_Z9sendEventv+0x7c>)
  Particle.publish("storage-facility-hook", data, PRIVATE);
   d4d58:	4913      	ldr	r1, [pc, #76]	; (d4da8 <_Z9sendEventv+0x80>)
        val_(0) {
}

template<typename TagT, typename ValueT>
inline particle::Flags<TagT, ValueT>::Flags(Flag<TagT, ValueT> flag) :
        val_(flag.value()) {
   d4d5a:	781b      	ldrb	r3, [r3, #0]
   d4d5c:	2200      	movs	r2, #0
   d4d5e:	f88d 2000 	strb.w	r2, [sp]
   d4d62:	a806      	add	r0, sp, #24
   d4d64:	aa08      	add	r2, sp, #32
   d4d66:	f7ff ff13 	bl	d4b90 <_ZN10CloudClass7publishEPKcS1_N8particle5FlagsI15PublishFlagTypehEES5_.isra.55.constprop.62>
	: _M_ptr(__p), _M_refcount(__r._M_refcount) // never throws
	{ }

      __shared_ptr(const __shared_ptr&) noexcept = default;
      __shared_ptr& operator=(const __shared_ptr&) noexcept = default;
      ~__shared_ptr() = default;
   d4d6a:	a807      	add	r0, sp, #28
   d4d6c:	f7ff ffc6 	bl	d4cfc <_ZNSt14__shared_countILN9__gnu_cxx12_Lock_policyE0EED1Ev>
  currentHourlyPeriod = Time.hour();                                                        // Change the time period
   d4d70:	f002 fb38 	bl	d73e4 <_ZN9TimeClass4hourEv>
   d4d74:	4b0d      	ldr	r3, [pc, #52]	; (d4dac <_Z9sendEventv+0x84>)
   d4d76:	7018      	strb	r0, [r3, #0]
  currentDailyPeriod = Time.day();
   d4d78:	f002 fb48 	bl	d740c <_ZN9TimeClass3dayEv>
   d4d7c:	4b0c      	ldr	r3, [pc, #48]	; (d4db0 <_Z9sendEventv+0x88>)
   d4d7e:	7018      	strb	r0, [r3, #0]
  dataInFlight = true;                                                                      // set the data inflight flag
   d4d80:	4b0c      	ldr	r3, [pc, #48]	; (d4db4 <_Z9sendEventv+0x8c>)
   d4d82:	2201      	movs	r2, #1
   d4d84:	701a      	strb	r2, [r3, #0]
   d4d86:	f000 ffdd 	bl	d5d44 <HAL_Timer_Get_Milli_Seconds>
  webhookTimeStamp = millis();
   d4d8a:	4b0b      	ldr	r3, [pc, #44]	; (d4db8 <_Z9sendEventv+0x90>)
   d4d8c:	6018      	str	r0, [r3, #0]
}
   d4d8e:	b049      	add	sp, #292	; 0x124
   d4d90:	f85d fb04 	ldr.w	pc, [sp], #4
   d4d94:	2003e288 	.word	0x2003e288
   d4d98:	2003e160 	.word	0x2003e160
   d4d9c:	2003e2b0 	.word	0x2003e2b0
   d4da0:	000dafda 	.word	0x000dafda
   d4da4:	2003e151 	.word	0x2003e151
   d4da8:	000db014 	.word	0x000db014
   d4dac:	2003e290 	.word	0x2003e290
   d4db0:	2003e27a 	.word	0x2003e27a
   d4db4:	2003e030 	.word	0x2003e030
   d4db8:	2003e14c 	.word	0x2003e14c

000d4dbc <_Z14UbidotsHandlerPKcS0_>:

void UbidotsHandler(const char *event, const char *data)                                    // Looks at the response from Ubidots - Will reset Photon if no successful response
{                                                                                           // Response Template: "{{hourly.0.status_code}}" so, I should only get a 3 digit number back
   d4dbc:	b530      	push	{r4, r5, lr}
    // Response Template: "{{hourly.0.status_code}}"
  if (!data) {                                                                    // First check to see if there is any data
   d4dbe:	460c      	mov	r4, r1
  dataInFlight = true;                                                                      // set the data inflight flag
  webhookTimeStamp = millis();
}

void UbidotsHandler(const char *event, const char *data)                                    // Looks at the response from Ubidots - Will reset Photon if no successful response
{                                                                                           // Response Template: "{{hourly.0.status_code}}" so, I should only get a 3 digit number back
   d4dc0:	b085      	sub	sp, #20
   d4dc2:	4d1d      	ldr	r5, [pc, #116]	; (d4e38 <_Z14UbidotsHandlerPKcS0_+0x7c>)
    // Response Template: "{{hourly.0.status_code}}"
  if (!data) {                                                                    // First check to see if there is any data
   d4dc4:	b951      	cbnz	r1, d4ddc <_Z14UbidotsHandlerPKcS0_+0x20>
    if (verboseMode) {
   d4dc6:	782b      	ldrb	r3, [r5, #0]
   d4dc8:	2b00      	cmp	r3, #0
   d4dca:	d032      	beq.n	d4e32 <_Z14UbidotsHandlerPKcS0_+0x76>
      waitUntil(meterParticlePublish);
   d4dcc:	f7ff ff42 	bl	d4c54 <_ZN11SystemClass13waitConditionIZ14UbidotsHandlerPKcS2_EUlvE0_EEbT_.isra.28>
   d4dd0:	4b1a      	ldr	r3, [pc, #104]	; (d4e3c <_Z14UbidotsHandlerPKcS0_+0x80>)
      Particle.publish("Ubidots Hook", "No Data", PRIVATE);
   d4dd2:	4a1b      	ldr	r2, [pc, #108]	; (d4e40 <_Z14UbidotsHandlerPKcS0_+0x84>)
   d4dd4:	781b      	ldrb	r3, [r3, #0]
   d4dd6:	f88d 4000 	strb.w	r4, [sp]
   d4dda:	e023      	b.n	d4e24 <_Z14UbidotsHandlerPKcS0_+0x68>
    }
    return;
  }
  int responseCode = atoi(data);                                                  // Response is only a single number thanks to Template
   d4ddc:	4608      	mov	r0, r1
   d4dde:	f003 fd94 	bl	d890a <atoi>
  if ((responseCode == 200) || (responseCode == 201))
   d4de2:	38c8      	subs	r0, #200	; 0xc8
   d4de4:	2801      	cmp	r0, #1
  {
    if (verboseMode) {
   d4de6:	782b      	ldrb	r3, [r5, #0]
      Particle.publish("Ubidots Hook", "No Data", PRIVATE);
    }
    return;
  }
  int responseCode = atoi(data);                                                  // Response is only a single number thanks to Template
  if ((responseCode == 200) || (responseCode == 201))
   d4de8:	d813      	bhi.n	d4e12 <_Z14UbidotsHandlerPKcS0_+0x56>
  {
    if (verboseMode) {
   d4dea:	b173      	cbz	r3, d4e0a <_Z14UbidotsHandlerPKcS0_+0x4e>
      waitUntil(meterParticlePublish);
   d4dec:	f7ff ff32 	bl	d4c54 <_ZN11SystemClass13waitConditionIZ14UbidotsHandlerPKcS2_EUlvE0_EEbT_.isra.28>
   d4df0:	4b12      	ldr	r3, [pc, #72]	; (d4e3c <_Z14UbidotsHandlerPKcS0_+0x80>)
      Particle.publish("State", "Response Received", PRIVATE);
   d4df2:	4914      	ldr	r1, [pc, #80]	; (d4e44 <_Z14UbidotsHandlerPKcS0_+0x88>)
   d4df4:	781b      	ldrb	r3, [r3, #0]
   d4df6:	2200      	movs	r2, #0
   d4df8:	f88d 2000 	strb.w	r2, [sp]
   d4dfc:	a802      	add	r0, sp, #8
   d4dfe:	4a12      	ldr	r2, [pc, #72]	; (d4e48 <_Z14UbidotsHandlerPKcS0_+0x8c>)
   d4e00:	f7ff fec6 	bl	d4b90 <_ZN10CloudClass7publishEPKcS1_N8particle5FlagsI15PublishFlagTypehEES5_.isra.55.constprop.62>
   d4e04:	a803      	add	r0, sp, #12
   d4e06:	f7ff ff79 	bl	d4cfc <_ZNSt14__shared_countILN9__gnu_cxx12_Lock_policyE0EED1Ev>
      
    }
    dataInFlight = false;    
   d4e0a:	4b10      	ldr	r3, [pc, #64]	; (d4e4c <_Z14UbidotsHandlerPKcS0_+0x90>)
   d4e0c:	2200      	movs	r2, #0
   d4e0e:	701a      	strb	r2, [r3, #0]
   d4e10:	e00f      	b.n	d4e32 <_Z14UbidotsHandlerPKcS0_+0x76>
  }
  else if (verboseMode) {
   d4e12:	b173      	cbz	r3, d4e32 <_Z14UbidotsHandlerPKcS0_+0x76>
    waitUntil(meterParticlePublish);      
   d4e14:	f7ff ff1e 	bl	d4c54 <_ZN11SystemClass13waitConditionIZ14UbidotsHandlerPKcS2_EUlvE0_EEbT_.isra.28>
   d4e18:	4b08      	ldr	r3, [pc, #32]	; (d4e3c <_Z14UbidotsHandlerPKcS0_+0x80>)
    Particle.publish("Ubidots Hook", data, PRIVATE);                              // Publish the response code
   d4e1a:	2200      	movs	r2, #0
   d4e1c:	781b      	ldrb	r3, [r3, #0]
   d4e1e:	f88d 2000 	strb.w	r2, [sp]
   d4e22:	4622      	mov	r2, r4
   d4e24:	a802      	add	r0, sp, #8
   d4e26:	490a      	ldr	r1, [pc, #40]	; (d4e50 <_Z14UbidotsHandlerPKcS0_+0x94>)
   d4e28:	f7ff feb2 	bl	d4b90 <_ZN10CloudClass7publishEPKcS1_N8particle5FlagsI15PublishFlagTypehEES5_.isra.55.constprop.62>
   d4e2c:	a803      	add	r0, sp, #12
   d4e2e:	f7ff ff65 	bl	d4cfc <_ZNSt14__shared_countILN9__gnu_cxx12_Lock_policyE0EED1Ev>
  }

}
   d4e32:	b005      	add	sp, #20
   d4e34:	bd30      	pop	{r4, r5, pc}
   d4e36:	bf00      	nop
   d4e38:	2003e024 	.word	0x2003e024
   d4e3c:	2003e151 	.word	0x2003e151
   d4e40:	000db02a 	.word	0x000db02a
   d4e44:	000db051 	.word	0x000db051
   d4e48:	000db03f 	.word	0x000db03f
   d4e4c:	2003e030 	.word	0x2003e030
   d4e50:	000db032 	.word	0x000db032

000d4e54 <_Z16takeMeasurementsv>:

// These are the functions that are part of the takeMeasurements call

bool takeMeasurements() {
   d4e54:	e92d 47ff 	stmdb	sp!, {r0, r1, r2, r3, r4, r5, r6, r7, r8, r9, sl, lr}

  // bme.setGasHeater(320, 150);                                                                 // 320*C for 150 ms
  if (bme.performReading()){
   d4e58:	4d3b      	ldr	r5, [pc, #236]	; (d4f48 <_Z16takeMeasurementsv+0xf4>)
   d4e5a:	4628      	mov	r0, r5
   d4e5c:	f000 fe76 	bl	d5b4c <_ZN15Adafruit_BME68014performReadingEv>
   d4e60:	4682      	mov	sl, r0
   d4e62:	2800      	cmp	r0, #0
   d4e64:	d05f      	beq.n	d4f26 <_Z16takeMeasurementsv+0xd2>
    
    temperatureInC = bme.temperature;
   d4e66:	6828      	ldr	r0, [r5, #0]
   d4e68:	4e38      	ldr	r6, [pc, #224]	; (d4f4c <_Z16takeMeasurementsv+0xf8>)
    snprintf(temperatureString,sizeof(temperatureString),"%4.1f*C", temperatureInC);

    relativeHumidity = bme.humidity;
   d4e6a:	4c39      	ldr	r4, [pc, #228]	; (d4f50 <_Z16takeMeasurementsv+0xfc>)
bool takeMeasurements() {

  // bme.setGasHeater(320, 150);                                                                 // 320*C for 150 ms
  if (bme.performReading()){
    
    temperatureInC = bme.temperature;
   d4e6c:	f003 f800 	bl	d7e70 <__aeabi_f2d>
    snprintf(temperatureString,sizeof(temperatureString),"%4.1f*C", temperatureInC);
   d4e70:	4a38      	ldr	r2, [pc, #224]	; (d4f54 <_Z16takeMeasurementsv+0x100>)
bool takeMeasurements() {

  // bme.setGasHeater(320, 150);                                                                 // 320*C for 150 ms
  if (bme.performReading()){
    
    temperatureInC = bme.temperature;
   d4e72:	e9c6 0100 	strd	r0, r1, [r6]
    snprintf(temperatureString,sizeof(temperatureString),"%4.1f*C", temperatureInC);
   d4e76:	e9cd 0100 	strd	r0, r1, [sp]
   d4e7a:	2110      	movs	r1, #16
   d4e7c:	4836      	ldr	r0, [pc, #216]	; (d4f58 <_Z16takeMeasurementsv+0x104>)
   d4e7e:	f001 f9ed 	bl	d625c <snprintf>

    relativeHumidity = bme.humidity;
   d4e82:	68a8      	ldr	r0, [r5, #8]
   d4e84:	f002 fff4 	bl	d7e70 <__aeabi_f2d>
    snprintf(humidityString,sizeof(humidityString),"%4.1f%%", relativeHumidity);
   d4e88:	4a34      	ldr	r2, [pc, #208]	; (d4f5c <_Z16takeMeasurementsv+0x108>)
  if (bme.performReading()){
    
    temperatureInC = bme.temperature;
    snprintf(temperatureString,sizeof(temperatureString),"%4.1f*C", temperatureInC);

    relativeHumidity = bme.humidity;
   d4e8a:	e9c4 0100 	strd	r0, r1, [r4]
    snprintf(humidityString,sizeof(humidityString),"%4.1f%%", relativeHumidity);
   d4e8e:	e9cd 0100 	strd	r0, r1, [sp]
   d4e92:	2110      	movs	r1, #16
   d4e94:	4832      	ldr	r0, [pc, #200]	; (d4f60 <_Z16takeMeasurementsv+0x10c>)
   d4e96:	f001 f9e1 	bl	d625c <snprintf>

    pressureHpa = bme.pressure / 100.0;
   d4e9a:	6868      	ldr	r0, [r5, #4]
   d4e9c:	f002 ffe8 	bl	d7e70 <__aeabi_f2d>
   d4ea0:	2200      	movs	r2, #0
   d4ea2:	4b30      	ldr	r3, [pc, #192]	; (d4f64 <_Z16takeMeasurementsv+0x110>)
   d4ea4:	f003 f962 	bl	d816c <__aeabi_ddiv>
   d4ea8:	4b2f      	ldr	r3, [pc, #188]	; (d4f68 <_Z16takeMeasurementsv+0x114>)
    snprintf(pressureString,sizeof(pressureString),"%4.1fHPa", pressureHpa);
   d4eaa:	4a30      	ldr	r2, [pc, #192]	; (d4f6c <_Z16takeMeasurementsv+0x118>)
    snprintf(temperatureString,sizeof(temperatureString),"%4.1f*C", temperatureInC);

    relativeHumidity = bme.humidity;
    snprintf(humidityString,sizeof(humidityString),"%4.1f%%", relativeHumidity);

    pressureHpa = bme.pressure / 100.0;
   d4eac:	e9c3 0100 	strd	r0, r1, [r3]
    snprintf(pressureString,sizeof(pressureString),"%4.1fHPa", pressureHpa);
   d4eb0:	e9cd 0100 	strd	r0, r1, [sp]
   d4eb4:	2110      	movs	r1, #16
   d4eb6:	482e      	ldr	r0, [pc, #184]	; (d4f70 <_Z16takeMeasurementsv+0x11c>)
   d4eb8:	f001 f9d0 	bl	d625c <snprintf>

    // If lower temperature threshold is crossed, Set the flag true. 
    if (temperatureInC < lowerTemperatureThreshold) lowerTemperatureThresholdCrossed = true;
   d4ebc:	4b2d      	ldr	r3, [pc, #180]	; (d4f74 <_Z16takeMeasurementsv+0x120>)
   d4ebe:	6818      	ldr	r0, [r3, #0]
   d4ec0:	f002 ffd6 	bl	d7e70 <__aeabi_f2d>
   d4ec4:	e9d6 6700 	ldrd	r6, r7, [r6]
   d4ec8:	4632      	mov	r2, r6
   d4eca:	463b      	mov	r3, r7
   d4ecc:	4680      	mov	r8, r0
   d4ece:	4689      	mov	r9, r1
   d4ed0:	f003 fab2 	bl	d8438 <__aeabi_dcmpgt>
   d4ed4:	b110      	cbz	r0, d4edc <_Z16takeMeasurementsv+0x88>
   d4ed6:	4b28      	ldr	r3, [pc, #160]	; (d4f78 <_Z16takeMeasurementsv+0x124>)
   d4ed8:	2201      	movs	r2, #1
   d4eda:	701a      	strb	r2, [r3, #0]

    // If upper temperature threshold is crossed, Set the flag true. 
    if (temperatureInC > upperTemperatureThreshold) upperTemperatureThresholdCrossed = true;
   d4edc:	4b27      	ldr	r3, [pc, #156]	; (d4f7c <_Z16takeMeasurementsv+0x128>)
   d4ede:	6818      	ldr	r0, [r3, #0]
   d4ee0:	f002 ffc6 	bl	d7e70 <__aeabi_f2d>
   d4ee4:	4602      	mov	r2, r0
   d4ee6:	460b      	mov	r3, r1
   d4ee8:	4630      	mov	r0, r6
   d4eea:	4639      	mov	r1, r7
   d4eec:	f003 faa4 	bl	d8438 <__aeabi_dcmpgt>
   d4ef0:	b110      	cbz	r0, d4ef8 <_Z16takeMeasurementsv+0xa4>
   d4ef2:	4b23      	ldr	r3, [pc, #140]	; (d4f80 <_Z16takeMeasurementsv+0x12c>)
   d4ef4:	2201      	movs	r2, #1
   d4ef6:	701a      	strb	r2, [r3, #0]

    // If lower temperature threshold is crossed, Set the flag true. 
    if (relativeHumidity < lowerHumidityThreshold) lowerHumidityThresholdCrossed = true;
   d4ef8:	4b22      	ldr	r3, [pc, #136]	; (d4f84 <_Z16takeMeasurementsv+0x130>)
   d4efa:	6818      	ldr	r0, [r3, #0]
   d4efc:	f002 ffb8 	bl	d7e70 <__aeabi_f2d>
   d4f00:	e9d4 2300 	ldrd	r2, r3, [r4]
   d4f04:	f003 fa98 	bl	d8438 <__aeabi_dcmpgt>
   d4f08:	b110      	cbz	r0, d4f10 <_Z16takeMeasurementsv+0xbc>
   d4f0a:	4b1f      	ldr	r3, [pc, #124]	; (d4f88 <_Z16takeMeasurementsv+0x134>)
   d4f0c:	2201      	movs	r2, #1
   d4f0e:	701a      	strb	r2, [r3, #0]

    // If lower temperature threshold is crossed, Set the flag true. 
    if (temperatureInC < lowerTemperatureThreshold) lowerTemperatureThresholdCrossed = true;
   d4f10:	4632      	mov	r2, r6
   d4f12:	463b      	mov	r3, r7
   d4f14:	4640      	mov	r0, r8
   d4f16:	4649      	mov	r1, r9
   d4f18:	f003 fa8e 	bl	d8438 <__aeabi_dcmpgt>
   d4f1c:	b178      	cbz	r0, d4f3e <_Z16takeMeasurementsv+0xea>
   d4f1e:	4b16      	ldr	r3, [pc, #88]	; (d4f78 <_Z16takeMeasurementsv+0x124>)
   d4f20:	2201      	movs	r2, #1
   d4f22:	701a      	strb	r2, [r3, #0]
   d4f24:	e00b      	b.n	d4f3e <_Z16takeMeasurementsv+0xea>
   d4f26:	4b19      	ldr	r3, [pc, #100]	; (d4f8c <_Z16takeMeasurementsv+0x138>)
inline particle::Future<bool> CloudClass::publish(const char* name) {
    return publish(name, PUBLIC);
}

inline particle::Future<bool> CloudClass::publish(const char* name, const char* data) {
    return publish(name, data, PUBLIC);
   d4f28:	4a19      	ldr	r2, [pc, #100]	; (d4f90 <_Z16takeMeasurementsv+0x13c>)
   d4f2a:	781b      	ldrb	r3, [r3, #0]
   d4f2c:	4919      	ldr	r1, [pc, #100]	; (d4f94 <_Z16takeMeasurementsv+0x140>)
   d4f2e:	f88d 0000 	strb.w	r0, [sp]
   d4f32:	a802      	add	r0, sp, #8
   d4f34:	f7ff fe2c 	bl	d4b90 <_ZN10CloudClass7publishEPKcS1_N8particle5FlagsI15PublishFlagTypehEES5_.isra.55.constprop.62>
   d4f38:	a803      	add	r0, sp, #12
   d4f3a:	f7ff fedf 	bl	d4cfc <_ZNSt14__shared_countILN9__gnu_cxx12_Lock_policyE0EED1Ev>
        Particle.publish("Log", "Failed to perform reading :(");
        return 0;

  }
 
}
   d4f3e:	4650      	mov	r0, sl
   d4f40:	b004      	add	sp, #16
   d4f42:	e8bd 87f0 	ldmia.w	sp!, {r4, r5, r6, r7, r8, r9, sl, pc}
   d4f46:	bf00      	nop
   d4f48:	2003e2d0 	.word	0x2003e2d0
   d4f4c:	2003e2b0 	.word	0x2003e2b0
   d4f50:	2003e160 	.word	0x2003e160
   d4f54:	000db057 	.word	0x000db057
   d4f58:	2003e13c 	.word	0x2003e13c
   d4f5c:	000db05f 	.word	0x000db05f
   d4f60:	2003e2c0 	.word	0x2003e2c0
   d4f64:	40590000 	.word	0x40590000
   d4f68:	2003e288 	.word	0x2003e288
   d4f6c:	000db067 	.word	0x000db067
   d4f70:	2003e292 	.word	0x2003e292
   d4f74:	2003e02c 	.word	0x2003e02c
   d4f78:	2003e2b8 	.word	0x2003e2b8
   d4f7c:	2003e028 	.word	0x2003e028
   d4f80:	2003e291 	.word	0x2003e291
   d4f84:	2003e038 	.word	0x2003e038
   d4f88:	2003e280 	.word	0x2003e280
   d4f8c:	2003e281 	.word	0x2003e281
   d4f90:	000db070 	.word	0x000db070
   d4f94:	000db08d 	.word	0x000db08d

000d4f98 <_Z16ThresholdCrossedv>:

// Function to send sms for threshold values

bool ThresholdCrossed(){
   d4f98:	b5f0      	push	{r4, r5, r6, r7, lr}
  
  if ((lowerTemperatureThreshold || upperTemperatureThreshold)!=0){                               // If lower or upper threshold conditions are True. 
   d4f9a:	4b45      	ldr	r3, [pc, #276]	; (d50b0 <_Z16ThresholdCrossedv+0x118>)
   d4f9c:	4f45      	ldr	r7, [pc, #276]	; (d50b4 <_Z16ThresholdCrossedv+0x11c>)
   d4f9e:	edd3 7a00 	vldr	s15, [r3]
   d4fa2:	eef5 7a40 	vcmp.f32	s15, #0.0
   d4fa6:	eef1 fa10 	vmrs	APSR_nzcv, fpscr
 
}

// Function to send sms for threshold values

bool ThresholdCrossed(){
   d4faa:	b08f      	sub	sp, #60	; 0x3c
  
  if ((lowerTemperatureThreshold || upperTemperatureThreshold)!=0){                               // If lower or upper threshold conditions are True. 
   d4fac:	d107      	bne.n	d4fbe <_Z16ThresholdCrossedv+0x26>
   d4fae:	4b42      	ldr	r3, [pc, #264]	; (d50b8 <_Z16ThresholdCrossedv+0x120>)
   d4fb0:	edd3 7a00 	vldr	s15, [r3]
   d4fb4:	eef5 7a40 	vcmp.f32	s15, #0.0
   d4fb8:	eef1 fa10 	vmrs	APSR_nzcv, fpscr
   d4fbc:	d02d      	beq.n	d501a <_Z16ThresholdCrossedv+0x82>
    char data[32];
    snprintf(data,sizeof(data),"{\"temperature\":true");
   d4fbe:	493f      	ldr	r1, [pc, #252]	; (d50bc <_Z16ThresholdCrossedv+0x124>)
   d4fc0:	4d3f      	ldr	r5, [pc, #252]	; (d50c0 <_Z16ThresholdCrossedv+0x128>)
   d4fc2:	a806      	add	r0, sp, #24
   d4fc4:	f003 fdf6 	bl	d8bb4 <strcpy>
    BlinkLED(tempLED);                                                                            // Start Blinking LED
   d4fc8:	2005      	movs	r0, #5
   d4fca:	f7ff fe21 	bl	d4c10 <_Z8BlinkLEDi>
    snprintf(smsString,sizeof(smsString),"ALERT FROM KumvaIoT: Temperature Threshold Crossed. Current Temperature is: %4.1f",temperatureInC);
   d4fce:	4b3d      	ldr	r3, [pc, #244]	; (d50c4 <_Z16ThresholdCrossedv+0x12c>)
   d4fd0:	483d      	ldr	r0, [pc, #244]	; (d50c8 <_Z16ThresholdCrossedv+0x130>)
   d4fd2:	e9d3 2300 	ldrd	r2, r3, [r3]
   d4fd6:	f44f 7180 	mov.w	r1, #256	; 0x100
   d4fda:	e9cd 2300 	strd	r2, r3, [sp]
}

// particle::Flags<TagT, ValueT>
template<typename TagT, typename ValueT>
inline particle::Flags<TagT, ValueT>::Flags() :
        val_(0) {
   d4fde:	2400      	movs	r4, #0
   d4fe0:	4a3a      	ldr	r2, [pc, #232]	; (d50cc <_Z16ThresholdCrossedv+0x134>)
   d4fe2:	f001 f93b 	bl	d625c <snprintf>
}

template<typename TagT, typename ValueT>
inline particle::Flags<TagT, ValueT>::Flags(Flag<TagT, ValueT> flag) :
        val_(flag.value()) {
   d4fe6:	782b      	ldrb	r3, [r5, #0]
    Particle.publish("sms-webhook",smsString,PRIVATE);                                            // Send the webhook . 
   d4fe8:	4a37      	ldr	r2, [pc, #220]	; (d50c8 <_Z16ThresholdCrossedv+0x130>)
   d4fea:	4939      	ldr	r1, [pc, #228]	; (d50d0 <_Z16ThresholdCrossedv+0x138>)
   d4fec:	f88d 4000 	strb.w	r4, [sp]
   d4ff0:	a804      	add	r0, sp, #16
   d4ff2:	f7ff fdcd 	bl	d4b90 <_ZN10CloudClass7publishEPKcS1_N8particle5FlagsI15PublishFlagTypehEES5_.isra.55.constprop.62>
   d4ff6:	a805      	add	r0, sp, #20
   d4ff8:	f7ff fe80 	bl	d4cfc <_ZNSt14__shared_countILN9__gnu_cxx12_Lock_policyE0EED1Ev>
    waitUntil(meterParticlePublish);
   d4ffc:	f7ff fe2a 	bl	d4c54 <_ZN11SystemClass13waitConditionIZ14UbidotsHandlerPKcS2_EUlvE0_EEbT_.isra.28>
   d5000:	782b      	ldrb	r3, [r5, #0]
    Particle.publish("Alert",data,PRIVATE);
   d5002:	4934      	ldr	r1, [pc, #208]	; (d50d4 <_Z16ThresholdCrossedv+0x13c>)
   d5004:	f88d 4000 	strb.w	r4, [sp]
   d5008:	aa06      	add	r2, sp, #24
   d500a:	a804      	add	r0, sp, #16
   d500c:	f7ff fdc0 	bl	d4b90 <_ZN10CloudClass7publishEPKcS1_N8particle5FlagsI15PublishFlagTypehEES5_.isra.55.constprop.62>
   d5010:	a805      	add	r0, sp, #20
   d5012:	f7ff fe73 	bl	d4cfc <_ZNSt14__shared_countILN9__gnu_cxx12_Lock_policyE0EED1Ev>
    thresholdCrossAcknowledged = true;                                                            // Once, Published the data. Set all flags to false again . 
   d5016:	2301      	movs	r3, #1
   d5018:	703b      	strb	r3, [r7, #0]
  }

  if ((upperHumidityThresholdCrossed || lowerHumidityThresholdCrossed)!=0){                       // If lower or upper threshold conditions are True. 
   d501a:	4b2f      	ldr	r3, [pc, #188]	; (d50d8 <_Z16ThresholdCrossedv+0x140>)
   d501c:	781a      	ldrb	r2, [r3, #0]
   d501e:	461e      	mov	r6, r3
   d5020:	b91a      	cbnz	r2, d502a <_Z16ThresholdCrossedv+0x92>
   d5022:	4b2e      	ldr	r3, [pc, #184]	; (d50dc <_Z16ThresholdCrossedv+0x144>)
   d5024:	781b      	ldrb	r3, [r3, #0]
   d5026:	2b00      	cmp	r3, #0
   d5028:	d032      	beq.n	d5090 <_Z16ThresholdCrossedv+0xf8>
    
    char data[32];
    snprintf(data,sizeof(data),"{\"humidity\":true");
   d502a:	492d      	ldr	r1, [pc, #180]	; (d50e0 <_Z16ThresholdCrossedv+0x148>)
   d502c:	4d24      	ldr	r5, [pc, #144]	; (d50c0 <_Z16ThresholdCrossedv+0x128>)
   d502e:	a806      	add	r0, sp, #24
   d5030:	f003 fdc0 	bl	d8bb4 <strcpy>
    BlinkLED(HumidityLED);                                                                        // Start Blinking LED
   d5034:	2007      	movs	r0, #7
   d5036:	f7ff fdeb 	bl	d4c10 <_Z8BlinkLEDi>
    snprintf(smsString,sizeof(smsString),"ALERT FROM KumvaIoT: Humidity Threshold Crossed. Current Humidity is: %4.1f and Current Temperature is: %4.1f",temperatureInC,relativeHumidity);
   d503a:	4b2a      	ldr	r3, [pc, #168]	; (d50e4 <_Z16ThresholdCrossedv+0x14c>)
   d503c:	4822      	ldr	r0, [pc, #136]	; (d50c8 <_Z16ThresholdCrossedv+0x130>)
   d503e:	e9d3 2300 	ldrd	r2, r3, [r3]
   d5042:	e9cd 2302 	strd	r2, r3, [sp, #8]
   d5046:	4b1f      	ldr	r3, [pc, #124]	; (d50c4 <_Z16ThresholdCrossedv+0x12c>)
   d5048:	e9d3 2300 	ldrd	r2, r3, [r3]
   d504c:	f44f 7180 	mov.w	r1, #256	; 0x100
   d5050:	e9cd 2300 	strd	r2, r3, [sp]
}

// particle::Flags<TagT, ValueT>
template<typename TagT, typename ValueT>
inline particle::Flags<TagT, ValueT>::Flags() :
        val_(0) {
   d5054:	2400      	movs	r4, #0
   d5056:	4a24      	ldr	r2, [pc, #144]	; (d50e8 <_Z16ThresholdCrossedv+0x150>)
   d5058:	f001 f900 	bl	d625c <snprintf>
}

template<typename TagT, typename ValueT>
inline particle::Flags<TagT, ValueT>::Flags(Flag<TagT, ValueT> flag) :
        val_(flag.value()) {
   d505c:	782b      	ldrb	r3, [r5, #0]
    Particle.publish("sms-webhook",smsString,PRIVATE);
   d505e:	4a1a      	ldr	r2, [pc, #104]	; (d50c8 <_Z16ThresholdCrossedv+0x130>)
   d5060:	491b      	ldr	r1, [pc, #108]	; (d50d0 <_Z16ThresholdCrossedv+0x138>)
   d5062:	f88d 4000 	strb.w	r4, [sp]
   d5066:	a804      	add	r0, sp, #16
   d5068:	f7ff fd92 	bl	d4b90 <_ZN10CloudClass7publishEPKcS1_N8particle5FlagsI15PublishFlagTypehEES5_.isra.55.constprop.62>
   d506c:	a805      	add	r0, sp, #20
   d506e:	f7ff fe45 	bl	d4cfc <_ZNSt14__shared_countILN9__gnu_cxx12_Lock_policyE0EED1Ev>
    waitUntil(meterParticlePublish);
   d5072:	f7ff fdef 	bl	d4c54 <_ZN11SystemClass13waitConditionIZ14UbidotsHandlerPKcS2_EUlvE0_EEbT_.isra.28>
   d5076:	782b      	ldrb	r3, [r5, #0]
    Particle.publish("Alert",data,PRIVATE);
   d5078:	4916      	ldr	r1, [pc, #88]	; (d50d4 <_Z16ThresholdCrossedv+0x13c>)
   d507a:	f88d 4000 	strb.w	r4, [sp]
   d507e:	aa06      	add	r2, sp, #24
   d5080:	a804      	add	r0, sp, #16
   d5082:	f7ff fd85 	bl	d4b90 <_ZN10CloudClass7publishEPKcS1_N8particle5FlagsI15PublishFlagTypehEES5_.isra.55.constprop.62>
   d5086:	a805      	add	r0, sp, #20
   d5088:	f7ff fe38 	bl	d4cfc <_ZNSt14__shared_countILN9__gnu_cxx12_Lock_policyE0EED1Ev>
    thresholdCrossAcknowledged = true; 
   d508c:	2301      	movs	r3, #1
   d508e:	703b      	strb	r3, [r7, #0]
  }

  thresholdTimeStamp = Time.minute();
   d5090:	f002 f9b2 	bl	d73f8 <_ZN9TimeClass6minuteEv>
   d5094:	4b15      	ldr	r3, [pc, #84]	; (d50ec <_Z16ThresholdCrossedv+0x154>)
   d5096:	6018      	str	r0, [r3, #0]

  if (thresholdCrossAcknowledged == true)
   d5098:	783b      	ldrb	r3, [r7, #0]
   d509a:	b133      	cbz	r3, d50aa <_Z16ThresholdCrossedv+0x112>
  {
    upperHumidityThresholdCrossed = false;
    lowerHumidityThresholdCrossed = false;
   d509c:	4a0f      	ldr	r2, [pc, #60]	; (d50dc <_Z16ThresholdCrossedv+0x144>)

  thresholdTimeStamp = Time.minute();

  if (thresholdCrossAcknowledged == true)
  {
    upperHumidityThresholdCrossed = false;
   d509e:	2300      	movs	r3, #0
    lowerHumidityThresholdCrossed = false;
   d50a0:	7013      	strb	r3, [r2, #0]

  thresholdTimeStamp = Time.minute();

  if (thresholdCrossAcknowledged == true)
  {
    upperHumidityThresholdCrossed = false;
   d50a2:	7033      	strb	r3, [r6, #0]
    lowerHumidityThresholdCrossed = false;
    upperTemperatureThreshold     = false;
   d50a4:	4b04      	ldr	r3, [pc, #16]	; (d50b8 <_Z16ThresholdCrossedv+0x120>)
   d50a6:	2200      	movs	r2, #0
   d50a8:	601a      	str	r2, [r3, #0]
  }



  return 1;
}
   d50aa:	2001      	movs	r0, #1
   d50ac:	b00f      	add	sp, #60	; 0x3c
   d50ae:	bdf0      	pop	{r4, r5, r6, r7, pc}
   d50b0:	2003e02c 	.word	0x2003e02c
   d50b4:	2003e278 	.word	0x2003e278
   d50b8:	2003e028 	.word	0x2003e028
   d50bc:	000db091 	.word	0x000db091
   d50c0:	2003e151 	.word	0x2003e151
   d50c4:	2003e2b0 	.word	0x2003e2b0
   d50c8:	2003e170 	.word	0x2003e170
   d50cc:	000db0a5 	.word	0x000db0a5
   d50d0:	000db0f7 	.word	0x000db0f7
   d50d4:	000db103 	.word	0x000db103
   d50d8:	2003e27b 	.word	0x2003e27b
   d50dc:	2003e280 	.word	0x2003e280
   d50e0:	000db109 	.word	0x000db109
   d50e4:	2003e160 	.word	0x2003e160
   d50e8:	000db11a 	.word	0x000db11a
   d50ec:	2003e27c 	.word	0x2003e27c

000d50f0 <_Z14setVerboseMode6String>:
  }
  else return 0;
}

int setVerboseMode(String command) // Function to force sending data in current hour
{
   d50f0:	b530      	push	{r4, r5, lr}
   d50f2:	4913      	ldr	r1, [pc, #76]	; (d5140 <_Z14setVerboseMode6String+0x50>)
   d50f4:	b085      	sub	sp, #20
   d50f6:	4605      	mov	r5, r0
   d50f8:	f002 f8b2 	bl	d7260 <_ZNK6String6equalsEPKc>
  if (command == "1")
   d50fc:	4604      	mov	r4, r0
   d50fe:	b148      	cbz	r0, d5114 <_Z14setVerboseMode6String+0x24>
  {
    verboseMode = true;
   d5100:	4b10      	ldr	r3, [pc, #64]	; (d5144 <_Z14setVerboseMode6String+0x54>)
   d5102:	2401      	movs	r4, #1
   d5104:	701c      	strb	r4, [r3, #0]
   d5106:	4b10      	ldr	r3, [pc, #64]	; (d5148 <_Z14setVerboseMode6String+0x58>)
    Particle.publish("Mode","Set Verbose Mode",PRIVATE);
   d5108:	2200      	movs	r2, #0
   d510a:	781b      	ldrb	r3, [r3, #0]
   d510c:	f88d 2000 	strb.w	r2, [sp]
   d5110:	4a0e      	ldr	r2, [pc, #56]	; (d514c <_Z14setVerboseMode6String+0x5c>)
   d5112:	e00b      	b.n	d512c <_Z14setVerboseMode6String+0x3c>
   d5114:	490e      	ldr	r1, [pc, #56]	; (d5150 <_Z14setVerboseMode6String+0x60>)
   d5116:	4628      	mov	r0, r5
   d5118:	f002 f8a2 	bl	d7260 <_ZNK6String6equalsEPKc>
    return 1;
  }
  else if (command == "0")
   d511c:	b170      	cbz	r0, d513c <_Z14setVerboseMode6String+0x4c>
  {
    verboseMode = false;
   d511e:	4b09      	ldr	r3, [pc, #36]	; (d5144 <_Z14setVerboseMode6String+0x54>)
    Particle.publish("Mode","Cleared Verbose Mode",PRIVATE);
   d5120:	4a0c      	ldr	r2, [pc, #48]	; (d5154 <_Z14setVerboseMode6String+0x64>)
    Particle.publish("Mode","Set Verbose Mode",PRIVATE);
    return 1;
  }
  else if (command == "0")
  {
    verboseMode = false;
   d5122:	701c      	strb	r4, [r3, #0]
   d5124:	4b08      	ldr	r3, [pc, #32]	; (d5148 <_Z14setVerboseMode6String+0x58>)
   d5126:	781b      	ldrb	r3, [r3, #0]
    Particle.publish("Mode","Cleared Verbose Mode",PRIVATE);
   d5128:	f88d 4000 	strb.w	r4, [sp]
   d512c:	490a      	ldr	r1, [pc, #40]	; (d5158 <_Z14setVerboseMode6String+0x68>)
   d512e:	a802      	add	r0, sp, #8
   d5130:	f7ff fd2e 	bl	d4b90 <_ZN10CloudClass7publishEPKcS1_N8particle5FlagsI15PublishFlagTypehEES5_.isra.55.constprop.62>
   d5134:	a803      	add	r0, sp, #12
   d5136:	f7ff fde1 	bl	d4cfc <_ZNSt14__shared_countILN9__gnu_cxx12_Lock_policyE0EED1Ev>
   d513a:	2001      	movs	r0, #1
    return 1;
  }
  else return 0;
}
   d513c:	b005      	add	sp, #20
   d513e:	bd30      	pop	{r4, r5, pc}
   d5140:	000db41a 	.word	0x000db41a
   d5144:	2003e024 	.word	0x2003e024
   d5148:	2003e151 	.word	0x2003e151
   d514c:	000db188 	.word	0x000db188
   d5150:	000db199 	.word	0x000db199
   d5154:	000db19b 	.word	0x000db19b
   d5158:	000db1ab 	.word	0x000db1ab

000d515c <_Z22publishStateTransitionv>:


void publishStateTransition(void)
{
   d515c:	b530      	push	{r4, r5, lr}
  char stateTransitionString[40];
  snprintf(stateTransitionString, sizeof(stateTransitionString), "From %s to %s", stateNames[oldState],stateNames[state]);
   d515e:	4d18      	ldr	r5, [pc, #96]	; (d51c0 <_Z22publishStateTransitionv+0x64>)
   d5160:	4c18      	ldr	r4, [pc, #96]	; (d51c4 <_Z22publishStateTransitionv+0x68>)
   d5162:	4919      	ldr	r1, [pc, #100]	; (d51c8 <_Z22publishStateTransitionv+0x6c>)
   d5164:	782a      	ldrb	r2, [r5, #0]
   d5166:	7820      	ldrb	r0, [r4, #0]
  else return 0;
}


void publishStateTransition(void)
{
   d5168:	b08f      	sub	sp, #60	; 0x3c
  char stateTransitionString[40];
  snprintf(stateTransitionString, sizeof(stateTransitionString), "From %s to %s", stateNames[oldState],stateNames[state]);
   d516a:	231a      	movs	r3, #26
   d516c:	fb03 1202 	mla	r2, r3, r2, r1
   d5170:	9200      	str	r2, [sp, #0]
   d5172:	fb03 1300 	mla	r3, r3, r0, r1
   d5176:	4a15      	ldr	r2, [pc, #84]	; (d51cc <_Z22publishStateTransitionv+0x70>)
   d5178:	2128      	movs	r1, #40	; 0x28
   d517a:	a804      	add	r0, sp, #16
   d517c:	f001 f86e 	bl	d625c <snprintf>
  oldState = state;
   d5180:	782b      	ldrb	r3, [r5, #0]
   d5182:	7023      	strb	r3, [r4, #0]
    static void sleep(Spark_Sleep_TypeDef sleepMode, long seconds=0) __attribute__ ((deprecated("Please use System.sleep() instead.")))
    { SystemClass::sleep(sleepMode, seconds); }
    static void sleep(uint16_t wakeUpPin, InterruptMode edgeTriggerMode, long seconds=0) __attribute__ ((deprecated("Please use System.sleep() instead.")))
    { SystemClass::sleep(wakeUpPin, edgeTriggerMode, seconds); }

    static bool connected(void) { return spark_cloud_flag_connected(); }
   d5184:	f000 ffc2 	bl	d610c <spark_cloud_flag_connected>
  if(Particle.connected()) {
   d5188:	b190      	cbz	r0, d51b0 <_Z22publishStateTransitionv+0x54>
    waitUntil(meterParticlePublish);
   d518a:	f7ff fd63 	bl	d4c54 <_ZN11SystemClass13waitConditionIZ14UbidotsHandlerPKcS2_EUlvE0_EEbT_.isra.28>
   d518e:	4b10      	ldr	r3, [pc, #64]	; (d51d0 <_Z22publishStateTransitionv+0x74>)
    Particle.publish("State Transition",stateTransitionString, PRIVATE);
   d5190:	4910      	ldr	r1, [pc, #64]	; (d51d4 <_Z22publishStateTransitionv+0x78>)
   d5192:	781b      	ldrb	r3, [r3, #0]
   d5194:	2200      	movs	r2, #0
   d5196:	f88d 2000 	strb.w	r2, [sp]
   d519a:	a802      	add	r0, sp, #8
   d519c:	aa04      	add	r2, sp, #16
   d519e:	f7ff fcf7 	bl	d4b90 <_ZN10CloudClass7publishEPKcS1_N8particle5FlagsI15PublishFlagTypehEES5_.isra.55.constprop.62>
   d51a2:	a803      	add	r0, sp, #12
   d51a4:	f7ff fdaa 	bl	d4cfc <_ZNSt14__shared_countILN9__gnu_cxx12_Lock_policyE0EED1Ev>
   d51a8:	f000 fdcc 	bl	d5d44 <HAL_Timer_Get_Milli_Seconds>
    lastPublish = millis();
   d51ac:	4b0a      	ldr	r3, [pc, #40]	; (d51d8 <_Z22publishStateTransitionv+0x7c>)
   d51ae:	6018      	str	r0, [r3, #0]
  }
  Serial.println(stateTransitionString);
   d51b0:	f002 fa20 	bl	d75f4 <_Z16_fetch_usbserialv>
   d51b4:	a904      	add	r1, sp, #16
   d51b6:	f001 fecc 	bl	d6f52 <_ZN5Print7printlnEPKc>
}
   d51ba:	b00f      	add	sp, #60	; 0x3c
   d51bc:	bd30      	pop	{r4, r5, pc}
   d51be:	bf00      	nop
   d51c0:	2003e279 	.word	0x2003e279
   d51c4:	2003e150 	.word	0x2003e150
   d51c8:	2003df50 	.word	0x2003df50
   d51cc:	000db1b0 	.word	0x000db1b0
   d51d0:	2003e151 	.word	0x2003e151
   d51d4:	000db1be 	.word	0x000db1be
   d51d8:	2003e348 	.word	0x2003e348

000d51dc <loop>:
  if(verboseMode) Particle.publish("Startup",StartupMessage,PRIVATE);                      // Let Particle know how the startup process went
  lastPublish = millis();
}

void loop()
{
   d51dc:	b57f      	push	{r0, r1, r2, r3, r4, r5, r6, lr}

  switch(state) {
   d51de:	4c7b      	ldr	r4, [pc, #492]	; (d53cc <loop+0x1f0>)
   d51e0:	7823      	ldrb	r3, [r4, #0]
   d51e2:	3b01      	subs	r3, #1
   d51e4:	2b05      	cmp	r3, #5
   d51e6:	f200 80ee 	bhi.w	d53c6 <loop+0x1ea>
   d51ea:	e8df f003 	tbb	[pc, r3]
   d51ee:	03a8      	.short	0x03a8
   d51f0:	7a591c2d 	.word	0x7a591c2d
  
  case IDLE_STATE:
   
    static int TimePassed = 0;
    if (verboseMode && state != oldState) publishStateTransition();
   d51f4:	4b76      	ldr	r3, [pc, #472]	; (d53d0 <loop+0x1f4>)
   d51f6:	781b      	ldrb	r3, [r3, #0]
   d51f8:	b12b      	cbz	r3, d5206 <loop+0x2a>
   d51fa:	4b76      	ldr	r3, [pc, #472]	; (d53d4 <loop+0x1f8>)
   d51fc:	781b      	ldrb	r3, [r3, #0]
   d51fe:	2b02      	cmp	r3, #2
   d5200:	d001      	beq.n	d5206 <loop+0x2a>
   d5202:	f7ff ffab 	bl	d515c <_Z22publishStateTransitionv>
   
    if (Time.hour() != currentHourlyPeriod || Time.minute() - TimePassed >= 30) {
   d5206:	f002 f8ed 	bl	d73e4 <_ZN9TimeClass4hourEv>
   d520a:	4b73      	ldr	r3, [pc, #460]	; (d53d8 <loop+0x1fc>)
   d520c:	4d73      	ldr	r5, [pc, #460]	; (d53dc <loop+0x200>)
   d520e:	781b      	ldrb	r3, [r3, #0]
   d5210:	4298      	cmp	r0, r3
   d5212:	f040 80be 	bne.w	d5392 <loop+0x1b6>
   d5216:	f002 f8ef 	bl	d73f8 <_ZN9TimeClass6minuteEv>
   d521a:	682b      	ldr	r3, [r5, #0]
   d521c:	1ac0      	subs	r0, r0, r3
   d521e:	281d      	cmp	r0, #29
   d5220:	f300 80b7 	bgt.w	d5392 <loop+0x1b6>
   d5224:	e0ba      	b.n	d539c <loop+0x1c0>
      state = THRESHOLD_CROSSED;
    }
    break;

  case THRESHOLD_CROSSED:
    if (verboseMode && state != oldState) publishStateTransition();
   d5226:	4b6a      	ldr	r3, [pc, #424]	; (d53d0 <loop+0x1f4>)
   d5228:	781b      	ldrb	r3, [r3, #0]
   d522a:	b12b      	cbz	r3, d5238 <loop+0x5c>
   d522c:	4b69      	ldr	r3, [pc, #420]	; (d53d4 <loop+0x1f8>)
   d522e:	781b      	ldrb	r3, [r3, #0]
   d5230:	2b04      	cmp	r3, #4
   d5232:	d001      	beq.n	d5238 <loop+0x5c>
   d5234:	f7ff ff92 	bl	d515c <_Z22publishStateTransitionv>
    
    if(takeMeasurements()!=0){                                                                          // Take measurements again before reporting.       
   d5238:	f7ff fe0c 	bl	d4e54 <_Z16takeMeasurementsv>
   d523c:	b110      	cbz	r0, d5244 <loop+0x68>
      ThresholdCrossed();
   d523e:	f7ff feab 	bl	d4f98 <_Z16ThresholdCrossedv>
   d5242:	e05a      	b.n	d52fa <loop+0x11e>
      state = IDLE_STATE;
    }else
    {
      state= ERROR_STATE;
   d5244:	2301      	movs	r3, #1
   d5246:	e0bd      	b.n	d53c4 <loop+0x1e8>
    }
    break;

  case MEASURING_STATE:                                                                     // Take measurements prior to sending
    if (verboseMode && state != oldState) publishStateTransition();
   d5248:	4b61      	ldr	r3, [pc, #388]	; (d53d0 <loop+0x1f4>)
   d524a:	781a      	ldrb	r2, [r3, #0]
   d524c:	461d      	mov	r5, r3
   d524e:	b12a      	cbz	r2, d525c <loop+0x80>
   d5250:	4b60      	ldr	r3, [pc, #384]	; (d53d4 <loop+0x1f8>)
   d5252:	781b      	ldrb	r3, [r3, #0]
   d5254:	2b03      	cmp	r3, #3
   d5256:	d001      	beq.n	d525c <loop+0x80>
   d5258:	f7ff ff80 	bl	d515c <_Z22publishStateTransitionv>
    if (!takeMeasurements())
   d525c:	f7ff fdfa 	bl	d4e54 <_Z16takeMeasurementsv>
   d5260:	4606      	mov	r6, r0
   d5262:	b9d8      	cbnz	r0, d529c <loop+0xc0>
    {
      state = ERROR_STATE;
   d5264:	2301      	movs	r3, #1
   d5266:	7023      	strb	r3, [r4, #0]
   d5268:	f000 fd6c 	bl	d5d44 <HAL_Timer_Get_Milli_Seconds>
      resetTimeStamp = millis();
   d526c:	4b5c      	ldr	r3, [pc, #368]	; (d53e0 <loop+0x204>)
   d526e:	6018      	str	r0, [r3, #0]
      if (verboseMode) {
   d5270:	782b      	ldrb	r3, [r5, #0]
   d5272:	2b00      	cmp	r3, #0
   d5274:	f000 80a7 	beq.w	d53c6 <loop+0x1ea>
        waitUntil(meterParticlePublish);
   d5278:	f7ff fcec 	bl	d4c54 <_ZN11SystemClass13waitConditionIZ14UbidotsHandlerPKcS2_EUlvE0_EEbT_.isra.28>
   d527c:	4b59      	ldr	r3, [pc, #356]	; (d53e4 <loop+0x208>)
        Particle.publish("State","Error taking Measurements",PRIVATE);
   d527e:	4a5a      	ldr	r2, [pc, #360]	; (d53e8 <loop+0x20c>)
   d5280:	781b      	ldrb	r3, [r3, #0]
   d5282:	495a      	ldr	r1, [pc, #360]	; (d53ec <loop+0x210>)
   d5284:	f88d 6000 	strb.w	r6, [sp]
   d5288:	a802      	add	r0, sp, #8
   d528a:	f7ff fc81 	bl	d4b90 <_ZN10CloudClass7publishEPKcS1_N8particle5FlagsI15PublishFlagTypehEES5_.isra.55.constprop.62>
   d528e:	a803      	add	r0, sp, #12
   d5290:	f7ff fd34 	bl	d4cfc <_ZNSt14__shared_countILN9__gnu_cxx12_Lock_policyE0EED1Ev>
   d5294:	f000 fd56 	bl	d5d44 <HAL_Timer_Get_Milli_Seconds>
        lastPublish = millis();
   d5298:	4b55      	ldr	r3, [pc, #340]	; (d53f0 <loop+0x214>)
   d529a:	e020      	b.n	d52de <loop+0x102>
      }
    }
    else state = REPORTING_STATE;
   d529c:	2305      	movs	r3, #5
   d529e:	e091      	b.n	d53c4 <loop+0x1e8>
    break;

  case REPORTING_STATE:
    if (verboseMode && state != oldState) publishStateTransition();                         // Reporting - hourly or on command
   d52a0:	4b4b      	ldr	r3, [pc, #300]	; (d53d0 <loop+0x1f4>)
   d52a2:	781b      	ldrb	r3, [r3, #0]
   d52a4:	b12b      	cbz	r3, d52b2 <loop+0xd6>
   d52a6:	4b4b      	ldr	r3, [pc, #300]	; (d53d4 <loop+0x1f8>)
   d52a8:	781b      	ldrb	r3, [r3, #0]
   d52aa:	2b05      	cmp	r3, #5
   d52ac:	d001      	beq.n	d52b2 <loop+0xd6>
   d52ae:	f7ff ff55 	bl	d515c <_Z22publishStateTransitionv>
   d52b2:	f000 ff2b 	bl	d610c <spark_cloud_flag_connected>
    if (Particle.connected()) {
   d52b6:	b168      	cbz	r0, d52d4 <loop+0xf8>
      if (Time.hour() == 12) Particle.syncTime();                                           // Set the clock each day at noon
   d52b8:	f002 f894 	bl	d73e4 <_ZN9TimeClass4hourEv>
   d52bc:	280c      	cmp	r0, #12
   d52be:	d105      	bne.n	d52cc <loop+0xf0>
   d52c0:	f000 ff24 	bl	d610c <spark_cloud_flag_connected>
        spark_unsubscribe(NULL);
    }

    bool syncTime(void)
    {
        if (!connected()) {
   d52c4:	b110      	cbz	r0, d52cc <loop+0xf0>
            return false;
        }
        return spark_sync_time(NULL);
   d52c6:	2000      	movs	r0, #0
   d52c8:	f000 ff40 	bl	d614c <spark_sync_time>
      sendEvent();                                                                          // Send data to Ubidots
   d52cc:	f7ff fd2c 	bl	d4d28 <_Z9sendEventv>
      state = RESP_WAIT_STATE;                                                              // Wait for Response
   d52d0:	2306      	movs	r3, #6
   d52d2:	e077      	b.n	d53c4 <loop+0x1e8>
    }
    else {
      state = ERROR_STATE;
   d52d4:	2301      	movs	r3, #1
   d52d6:	7023      	strb	r3, [r4, #0]
   d52d8:	f000 fd34 	bl	d5d44 <HAL_Timer_Get_Milli_Seconds>
      resetTimeStamp = millis();
   d52dc:	4b40      	ldr	r3, [pc, #256]	; (d53e0 <loop+0x204>)
   d52de:	6018      	str	r0, [r3, #0]
   d52e0:	e071      	b.n	d53c6 <loop+0x1ea>
    }
    break;

  case RESP_WAIT_STATE:
    if (verboseMode && state != oldState) publishStateTransition();
   d52e2:	4b3b      	ldr	r3, [pc, #236]	; (d53d0 <loop+0x1f4>)
   d52e4:	781b      	ldrb	r3, [r3, #0]
   d52e6:	b12b      	cbz	r3, d52f4 <loop+0x118>
   d52e8:	4b3a      	ldr	r3, [pc, #232]	; (d53d4 <loop+0x1f8>)
   d52ea:	781b      	ldrb	r3, [r3, #0]
   d52ec:	2b06      	cmp	r3, #6
   d52ee:	d001      	beq.n	d52f4 <loop+0x118>
   d52f0:	f7ff ff34 	bl	d515c <_Z22publishStateTransitionv>
    if (!dataInFlight)                                                // Response received back to IDLE state
   d52f4:	4b3f      	ldr	r3, [pc, #252]	; (d53f4 <loop+0x218>)
   d52f6:	781b      	ldrb	r3, [r3, #0]
   d52f8:	b90b      	cbnz	r3, d52fe <loop+0x122>
    {
     state = IDLE_STATE;
   d52fa:	2302      	movs	r3, #2
   d52fc:	e062      	b.n	d53c4 <loop+0x1e8>
   d52fe:	f000 fd21 	bl	d5d44 <HAL_Timer_Get_Milli_Seconds>
    }
    else if (millis() - webhookTimeStamp > webhookWait) {             // If it takes too long - will need to reset
   d5302:	4b3d      	ldr	r3, [pc, #244]	; (d53f8 <loop+0x21c>)
   d5304:	681b      	ldr	r3, [r3, #0]
   d5306:	1ac0      	subs	r0, r0, r3
   d5308:	f64a 73c8 	movw	r3, #45000	; 0xafc8
   d530c:	4298      	cmp	r0, r3
   d530e:	d95a      	bls.n	d53c6 <loop+0x1ea>
   d5310:	f000 fd18 	bl	d5d44 <HAL_Timer_Get_Milli_Seconds>
      resetTimeStamp = millis();
   d5314:	4d32      	ldr	r5, [pc, #200]	; (d53e0 <loop+0x204>)
   d5316:	4b33      	ldr	r3, [pc, #204]	; (d53e4 <loop+0x208>)
   d5318:	6028      	str	r0, [r5, #0]
      Particle.publish("spark/device/session/end", "", PRIVATE);      // If the device times out on the Webhook response, it will ensure a new session is started on next connect
   d531a:	2200      	movs	r2, #0
   d531c:	781b      	ldrb	r3, [r3, #0]
   d531e:	4937      	ldr	r1, [pc, #220]	; (d53fc <loop+0x220>)
   d5320:	f88d 2000 	strb.w	r2, [sp]
   d5324:	a802      	add	r0, sp, #8
   d5326:	4a36      	ldr	r2, [pc, #216]	; (d5400 <loop+0x224>)
   d5328:	f7ff fc32 	bl	d4b90 <_ZN10CloudClass7publishEPKcS1_N8particle5FlagsI15PublishFlagTypehEES5_.isra.55.constprop.62>
   d532c:	a803      	add	r0, sp, #12
   d532e:	f7ff fce5 	bl	d4cfc <_ZNSt14__shared_countILN9__gnu_cxx12_Lock_policyE0EED1Ev>
      state = ERROR_STATE;                                            // Response timed out
   d5332:	2301      	movs	r3, #1
   d5334:	7023      	strb	r3, [r4, #0]
   d5336:	f000 fd05 	bl	d5d44 <HAL_Timer_Get_Milli_Seconds>
      resetTimeStamp = millis();
   d533a:	6028      	str	r0, [r5, #0]
   d533c:	e043      	b.n	d53c6 <loop+0x1ea>
    }
    break;

  
  case ERROR_STATE:                                                                         // To be enhanced - where we deal with errors
    if (verboseMode && state != oldState) publishStateTransition();
   d533e:	4b24      	ldr	r3, [pc, #144]	; (d53d0 <loop+0x1f4>)
   d5340:	781b      	ldrb	r3, [r3, #0]
   d5342:	b12b      	cbz	r3, d5350 <loop+0x174>
   d5344:	4b23      	ldr	r3, [pc, #140]	; (d53d4 <loop+0x1f8>)
   d5346:	781b      	ldrb	r3, [r3, #0]
   d5348:	2b01      	cmp	r3, #1
   d534a:	d001      	beq.n	d5350 <loop+0x174>
   d534c:	f7ff ff06 	bl	d515c <_Z22publishStateTransitionv>
   d5350:	f000 fcf8 	bl	d5d44 <HAL_Timer_Get_Milli_Seconds>
    if (millis() > resetTimeStamp + resetWait)
   d5354:	4b22      	ldr	r3, [pc, #136]	; (d53e0 <loop+0x204>)
   d5356:	681b      	ldr	r3, [r3, #0]
   d5358:	f503 2392 	add.w	r3, r3, #299008	; 0x49000
   d535c:	f503 7378 	add.w	r3, r3, #992	; 0x3e0
   d5360:	4298      	cmp	r0, r3
   d5362:	d930      	bls.n	d53c6 <loop+0x1ea>
    static void sleep(Spark_Sleep_TypeDef sleepMode, long seconds=0) __attribute__ ((deprecated("Please use System.sleep() instead.")))
    { SystemClass::sleep(sleepMode, seconds); }
    static void sleep(uint16_t wakeUpPin, InterruptMode edgeTriggerMode, long seconds=0) __attribute__ ((deprecated("Please use System.sleep() instead.")))
    { SystemClass::sleep(wakeUpPin, edgeTriggerMode, seconds); }

    static bool connected(void) { return spark_cloud_flag_connected(); }
   d5364:	f000 fed2 	bl	d610c <spark_cloud_flag_connected>
    {
      if (Particle.connected()) Particle.publish("State","Error State - Reset", PRIVATE);    // Brodcast Reset Action
   d5368:	b160      	cbz	r0, d5384 <loop+0x1a8>
   d536a:	4b1e      	ldr	r3, [pc, #120]	; (d53e4 <loop+0x208>)
   d536c:	491f      	ldr	r1, [pc, #124]	; (d53ec <loop+0x210>)
   d536e:	781b      	ldrb	r3, [r3, #0]
   d5370:	2200      	movs	r2, #0
   d5372:	f88d 2000 	strb.w	r2, [sp]
   d5376:	a802      	add	r0, sp, #8
   d5378:	4a22      	ldr	r2, [pc, #136]	; (d5404 <loop+0x228>)
   d537a:	f7ff fc09 	bl	d4b90 <_ZN10CloudClass7publishEPKcS1_N8particle5FlagsI15PublishFlagTypehEES5_.isra.55.constprop.62>
   d537e:	a803      	add	r0, sp, #12
   d5380:	f7ff fcbc 	bl	d4cfc <_ZNSt14__shared_countILN9__gnu_cxx12_Lock_policyE0EED1Ev>
      delay(2000);
   d5384:	f44f 60fa 	mov.w	r0, #2000	; 0x7d0
   d5388:	f000 ff80 	bl	d628c <delay>
      System.reset();
   d538c:	f001 ffa5 	bl	d72da <_ZN11SystemClass5resetEv>
    }
    break;
  }
}
   d5390:	e019      	b.n	d53c6 <loop+0x1ea>
   
    static int TimePassed = 0;
    if (verboseMode && state != oldState) publishStateTransition();
   
    if (Time.hour() != currentHourlyPeriod || Time.minute() - TimePassed >= 30) {
      TimePassed = Time.minute();
   d5392:	f002 f831 	bl	d73f8 <_ZN9TimeClass6minuteEv>
      state = MEASURING_STATE;                                                     
   d5396:	2303      	movs	r3, #3
   
    static int TimePassed = 0;
    if (verboseMode && state != oldState) publishStateTransition();
   
    if (Time.hour() != currentHourlyPeriod || Time.minute() - TimePassed >= 30) {
      TimePassed = Time.minute();
   d5398:	6028      	str	r0, [r5, #0]
   d539a:	e013      	b.n	d53c4 <loop+0x1e8>
      }
    
    else if ((upperTemperatureThresholdCrossed \
    || lowerTemperatureThresholdCrossed \
    || upperHumidityThresholdCrossed \
    || lowerHumidityThresholdCrossed)!= 0 && (Time.minute() - thresholdTimeStamp > 5))                 // Send threshold message after every 10 minutes.
   d539c:	4b1a      	ldr	r3, [pc, #104]	; (d5408 <loop+0x22c>)
   d539e:	781b      	ldrb	r3, [r3, #0]
   d53a0:	b943      	cbnz	r3, d53b4 <loop+0x1d8>
      TimePassed = Time.minute();
      state = MEASURING_STATE;                                                     
      }
    
    else if ((upperTemperatureThresholdCrossed \
    || lowerTemperatureThresholdCrossed \
   d53a2:	4b1a      	ldr	r3, [pc, #104]	; (d540c <loop+0x230>)
   d53a4:	781b      	ldrb	r3, [r3, #0]
   d53a6:	b92b      	cbnz	r3, d53b4 <loop+0x1d8>
    || upperHumidityThresholdCrossed \
   d53a8:	4b19      	ldr	r3, [pc, #100]	; (d5410 <loop+0x234>)
   d53aa:	781b      	ldrb	r3, [r3, #0]
   d53ac:	b913      	cbnz	r3, d53b4 <loop+0x1d8>
    || lowerHumidityThresholdCrossed)!= 0 && (Time.minute() - thresholdTimeStamp > 5))                 // Send threshold message after every 10 minutes.
   d53ae:	4b19      	ldr	r3, [pc, #100]	; (d5414 <loop+0x238>)
   d53b0:	781b      	ldrb	r3, [r3, #0]
   d53b2:	b143      	cbz	r3, d53c6 <loop+0x1ea>
   d53b4:	f002 f820 	bl	d73f8 <_ZN9TimeClass6minuteEv>
   d53b8:	4b17      	ldr	r3, [pc, #92]	; (d5418 <loop+0x23c>)
   d53ba:	681b      	ldr	r3, [r3, #0]
   d53bc:	1ac0      	subs	r0, r0, r3
   d53be:	2805      	cmp	r0, #5
   d53c0:	dd01      	ble.n	d53c6 <loop+0x1ea>
    {
     
      state = THRESHOLD_CROSSED;
   d53c2:	2304      	movs	r3, #4
   d53c4:	7023      	strb	r3, [r4, #0]
      delay(2000);
      System.reset();
    }
    break;
  }
}
   d53c6:	b004      	add	sp, #16
   d53c8:	bd70      	pop	{r4, r5, r6, pc}
   d53ca:	bf00      	nop
   d53cc:	2003e279 	.word	0x2003e279
   d53d0:	2003e024 	.word	0x2003e024
   d53d4:	2003e150 	.word	0x2003e150
   d53d8:	2003e290 	.word	0x2003e290
   d53dc:	2003e154 	.word	0x2003e154
   d53e0:	2003e2bc 	.word	0x2003e2bc
   d53e4:	2003e151 	.word	0x2003e151
   d53e8:	000db1cf 	.word	0x000db1cf
   d53ec:	000db051 	.word	0x000db051
   d53f0:	2003e348 	.word	0x2003e348
   d53f4:	2003e030 	.word	0x2003e030
   d53f8:	2003e14c 	.word	0x2003e14c
   d53fc:	000db1e9 	.word	0x000db1e9
   d5400:	000db4af 	.word	0x000db4af
   d5404:	000db202 	.word	0x000db202
   d5408:	2003e291 	.word	0x2003e291
   d540c:	2003e2b8 	.word	0x2003e2b8
   d5410:	2003e27b 	.word	0x2003e27b
   d5414:	2003e280 	.word	0x2003e280
   d5418:	2003e27c 	.word	0x2003e27c

000d541c <_Z17setUpperTempLimit6String>:
}

// These function will allow to change the upper and lower limits for alerting the customer. 

int setUpperTempLimit(String value)
{
   d541c:	b510      	push	{r4, lr}
   d541e:	b088      	sub	sp, #32
   d5420:	4604      	mov	r4, r0
  upperTemperatureThreshold = value.toFloat();
   d5422:	f001 ff47 	bl	d72b4 <_ZNK6String7toFloatEv>
   d5426:	4b0f      	ldr	r3, [pc, #60]	; (d5464 <_Z17setUpperTempLimit6String+0x48>)
   d5428:	ed83 0a00 	vstr	s0, [r3]
  waitUntil(meterParticlePublish);
   d542c:	f7ff fc12 	bl	d4c54 <_ZN11SystemClass13waitConditionIZ14UbidotsHandlerPKcS2_EUlvE0_EEbT_.isra.28>
  Particle.publish("Upper Threshold Set",String(value),PRIVATE);
   d5430:	4621      	mov	r1, r4
   d5432:	a804      	add	r0, sp, #16
   d5434:	f001 ff09 	bl	d724a <_ZN6StringC1ERKS_>
   d5438:	4b0b      	ldr	r3, [pc, #44]	; (d5468 <_Z17setUpperTempLimit6String+0x4c>)
   d543a:	490c      	ldr	r1, [pc, #48]	; (d546c <_Z17setUpperTempLimit6String+0x50>)
   d543c:	781b      	ldrb	r3, [r3, #0]
   d543e:	2200      	movs	r2, #0
   d5440:	f88d 2000 	strb.w	r2, [sp]
   d5444:	a802      	add	r0, sp, #8
   d5446:	9a04      	ldr	r2, [sp, #16]
   d5448:	f7ff fba2 	bl	d4b90 <_ZN10CloudClass7publishEPKcS1_N8particle5FlagsI15PublishFlagTypehEES5_.isra.55.constprop.62>
   d544c:	a803      	add	r0, sp, #12
   d544e:	f7ff fc55 	bl	d4cfc <_ZNSt14__shared_countILN9__gnu_cxx12_Lock_policyE0EED1Ev>
   d5452:	a804      	add	r0, sp, #16
   d5454:	f001 fe90 	bl	d7178 <_ZN6StringD1Ev>
  updateThresholdValue();
   d5458:	f7ff fc08 	bl	d4c6c <_Z20updateThresholdValuev>
  return 1;
}
   d545c:	2001      	movs	r0, #1
   d545e:	b008      	add	sp, #32
   d5460:	bd10      	pop	{r4, pc}
   d5462:	bf00      	nop
   d5464:	2003e028 	.word	0x2003e028
   d5468:	2003e151 	.word	0x2003e151
   d546c:	000db216 	.word	0x000db216

000d5470 <_Z17setLowerTempLimit6String>:

int setLowerTempLimit(String value)
{
   d5470:	b510      	push	{r4, lr}
   d5472:	b088      	sub	sp, #32
   d5474:	4604      	mov	r4, r0
  lowerTemperatureThreshold = value.toFloat();
   d5476:	f001 ff1d 	bl	d72b4 <_ZNK6String7toFloatEv>
   d547a:	4b0f      	ldr	r3, [pc, #60]	; (d54b8 <_Z17setLowerTempLimit6String+0x48>)
   d547c:	ed83 0a00 	vstr	s0, [r3]
  waitUntil(meterParticlePublish);
   d5480:	f7ff fbe8 	bl	d4c54 <_ZN11SystemClass13waitConditionIZ14UbidotsHandlerPKcS2_EUlvE0_EEbT_.isra.28>
  Particle.publish("Lower Threshold Set",String(value),PRIVATE);
   d5484:	4621      	mov	r1, r4
   d5486:	a804      	add	r0, sp, #16
   d5488:	f001 fedf 	bl	d724a <_ZN6StringC1ERKS_>
   d548c:	4b0b      	ldr	r3, [pc, #44]	; (d54bc <_Z17setLowerTempLimit6String+0x4c>)
   d548e:	490c      	ldr	r1, [pc, #48]	; (d54c0 <_Z17setLowerTempLimit6String+0x50>)
   d5490:	781b      	ldrb	r3, [r3, #0]
   d5492:	2200      	movs	r2, #0
   d5494:	f88d 2000 	strb.w	r2, [sp]
   d5498:	a802      	add	r0, sp, #8
   d549a:	9a04      	ldr	r2, [sp, #16]
   d549c:	f7ff fb78 	bl	d4b90 <_ZN10CloudClass7publishEPKcS1_N8particle5FlagsI15PublishFlagTypehEES5_.isra.55.constprop.62>
   d54a0:	a803      	add	r0, sp, #12
   d54a2:	f7ff fc2b 	bl	d4cfc <_ZNSt14__shared_countILN9__gnu_cxx12_Lock_policyE0EED1Ev>
   d54a6:	a804      	add	r0, sp, #16
   d54a8:	f001 fe66 	bl	d7178 <_ZN6StringD1Ev>
  updateThresholdValue();
   d54ac:	f7ff fbde 	bl	d4c6c <_Z20updateThresholdValuev>

  return 1;

}
   d54b0:	2001      	movs	r0, #1
   d54b2:	b008      	add	sp, #32
   d54b4:	bd10      	pop	{r4, pc}
   d54b6:	bf00      	nop
   d54b8:	2003e02c 	.word	0x2003e02c
   d54bc:	2003e151 	.word	0x2003e151
   d54c0:	000db22a 	.word	0x000db22a

000d54c4 <_Z21setUpperHumidityLimit6String>:

int setUpperHumidityLimit(String value)
{
   d54c4:	b510      	push	{r4, lr}
   d54c6:	b088      	sub	sp, #32
   d54c8:	4604      	mov	r4, r0
  upperHumidityThreshold = value.toFloat();
   d54ca:	f001 fef3 	bl	d72b4 <_ZNK6String7toFloatEv>
   d54ce:	4b0f      	ldr	r3, [pc, #60]	; (d550c <_Z21setUpperHumidityLimit6String+0x48>)
   d54d0:	ed83 0a00 	vstr	s0, [r3]
  waitUntil(meterParticlePublish);
   d54d4:	f7ff fbbe 	bl	d4c54 <_ZN11SystemClass13waitConditionIZ14UbidotsHandlerPKcS2_EUlvE0_EEbT_.isra.28>
  Particle.publish("Upper Threshold Set",String(value),PRIVATE);
   d54d8:	4621      	mov	r1, r4
   d54da:	a804      	add	r0, sp, #16
   d54dc:	f001 feb5 	bl	d724a <_ZN6StringC1ERKS_>
   d54e0:	4b0b      	ldr	r3, [pc, #44]	; (d5510 <_Z21setUpperHumidityLimit6String+0x4c>)
   d54e2:	490c      	ldr	r1, [pc, #48]	; (d5514 <_Z21setUpperHumidityLimit6String+0x50>)
   d54e4:	781b      	ldrb	r3, [r3, #0]
   d54e6:	2200      	movs	r2, #0
   d54e8:	f88d 2000 	strb.w	r2, [sp]
   d54ec:	a802      	add	r0, sp, #8
   d54ee:	9a04      	ldr	r2, [sp, #16]
   d54f0:	f7ff fb4e 	bl	d4b90 <_ZN10CloudClass7publishEPKcS1_N8particle5FlagsI15PublishFlagTypehEES5_.isra.55.constprop.62>
   d54f4:	a803      	add	r0, sp, #12
   d54f6:	f7ff fc01 	bl	d4cfc <_ZNSt14__shared_countILN9__gnu_cxx12_Lock_policyE0EED1Ev>
   d54fa:	a804      	add	r0, sp, #16
   d54fc:	f001 fe3c 	bl	d7178 <_ZN6StringD1Ev>
  updateThresholdValue();
   d5500:	f7ff fbb4 	bl	d4c6c <_Z20updateThresholdValuev>

  return 1;
}
   d5504:	2001      	movs	r0, #1
   d5506:	b008      	add	sp, #32
   d5508:	bd10      	pop	{r4, pc}
   d550a:	bf00      	nop
   d550c:	2003e034 	.word	0x2003e034
   d5510:	2003e151 	.word	0x2003e151
   d5514:	000db216 	.word	0x000db216

000d5518 <_Z21setLowerHumidityLimit6String>:

int setLowerHumidityLimit(String value)
{
   d5518:	b510      	push	{r4, lr}
   d551a:	b088      	sub	sp, #32
   d551c:	4604      	mov	r4, r0
  lowerHumidityThreshold = value.toFloat();
   d551e:	f001 fec9 	bl	d72b4 <_ZNK6String7toFloatEv>
   d5522:	4b0f      	ldr	r3, [pc, #60]	; (d5560 <_Z21setLowerHumidityLimit6String+0x48>)
   d5524:	ed83 0a00 	vstr	s0, [r3]
  waitUntil(meterParticlePublish);
   d5528:	f7ff fb94 	bl	d4c54 <_ZN11SystemClass13waitConditionIZ14UbidotsHandlerPKcS2_EUlvE0_EEbT_.isra.28>
  Particle.publish("Lower Threshold Set",String(value),PRIVATE);
   d552c:	4621      	mov	r1, r4
   d552e:	a804      	add	r0, sp, #16
   d5530:	f001 fe8b 	bl	d724a <_ZN6StringC1ERKS_>
   d5534:	4b0b      	ldr	r3, [pc, #44]	; (d5564 <_Z21setLowerHumidityLimit6String+0x4c>)
   d5536:	490c      	ldr	r1, [pc, #48]	; (d5568 <_Z21setLowerHumidityLimit6String+0x50>)
   d5538:	781b      	ldrb	r3, [r3, #0]
   d553a:	2200      	movs	r2, #0
   d553c:	f88d 2000 	strb.w	r2, [sp]
   d5540:	a802      	add	r0, sp, #8
   d5542:	9a04      	ldr	r2, [sp, #16]
   d5544:	f7ff fb24 	bl	d4b90 <_ZN10CloudClass7publishEPKcS1_N8particle5FlagsI15PublishFlagTypehEES5_.isra.55.constprop.62>
   d5548:	a803      	add	r0, sp, #12
   d554a:	f7ff fbd7 	bl	d4cfc <_ZNSt14__shared_countILN9__gnu_cxx12_Lock_policyE0EED1Ev>
   d554e:	a804      	add	r0, sp, #16
   d5550:	f001 fe12 	bl	d7178 <_ZN6StringD1Ev>
  updateThresholdValue();
   d5554:	f7ff fb8a 	bl	d4c6c <_Z20updateThresholdValuev>
  return 1;
}
   d5558:	2001      	movs	r0, #1
   d555a:	b008      	add	sp, #32
   d555c:	bd10      	pop	{r4, pc}
   d555e:	bf00      	nop
   d5560:	2003e038 	.word	0x2003e038
   d5564:	2003e151 	.word	0x2003e151
   d5568:	000db22a 	.word	0x000db22a

000d556c <_ZN10CloudClass8variableIA15_cIRA8_cEEEbRKT_DpOT0_>:
        return _variable(varKey, (const char*)userVar, userVarType);
    }

    template<typename T> static inline bool _variable(const char *varKey, typename T::PointerType userVar, const T& userVarType)
    {
        return spark_variable(varKey, (const void*)userVar, T::TYPE_ID, NULL);
   d556c:	2300      	movs	r3, #0
   d556e:	2204      	movs	r2, #4
   d5570:	f000 bdac 	b.w	d60cc <spark_variable>

000d5574 <_ZN10CloudClass8functionIA20_cIPFi6StringEEEEbRKT_DpT0_>:
        return _function(name, args...);
    }

    static bool _function(const char *funcKey, user_function_int_str_t* func)
    {
        return register_function(call_raw_user_function, (void*)func, funcKey);
   d5574:	4602      	mov	r2, r0
   d5576:	4801      	ldr	r0, [pc, #4]	; (d557c <_ZN10CloudClass8functionIA20_cIPFi6StringEEEEbRKT_DpT0_+0x8>)
   d5578:	f000 bf75 	b.w	d6466 <_ZN10CloudClass17register_functionEPFiPvPKcS0_ES0_S2_>
   d557c:	000d643b 	.word	0x000d643b

000d5580 <setup>:
double pressureHpa = 0;
double gasResistanceKOhms = 0;
double approxAltitudeInM = 0;

void setup()                                                                                // Note: Disconnected Setup()
{
   d5580:	b570      	push	{r4, r5, r6, lr}
  char StartupMessage[64] = "Startup Successful";                                           // Messages from Initialization
   d5582:	4b61      	ldr	r3, [pc, #388]	; (d5708 <setup+0x188>)
double pressureHpa = 0;
double gasResistanceKOhms = 0;
double approxAltitudeInM = 0;

void setup()                                                                                // Note: Disconnected Setup()
{
   d5584:	b0b8      	sub	sp, #224	; 0xe0
  char StartupMessage[64] = "Startup Successful";                                           // Messages from Initialization
   d5586:	aa08      	add	r2, sp, #32
   d5588:	f103 0510 	add.w	r5, r3, #16
   d558c:	4616      	mov	r6, r2
   d558e:	6818      	ldr	r0, [r3, #0]
   d5590:	6859      	ldr	r1, [r3, #4]
   d5592:	4614      	mov	r4, r2
   d5594:	c403      	stmia	r4!, {r0, r1}
   d5596:	3308      	adds	r3, #8
   d5598:	42ab      	cmp	r3, r5
   d559a:	4622      	mov	r2, r4
   d559c:	d1f7      	bne.n	d558e <setup+0xe>
   d559e:	8819      	ldrh	r1, [r3, #0]
   d55a0:	789b      	ldrb	r3, [r3, #2]
   d55a2:	8021      	strh	r1, [r4, #0]
   d55a4:	222d      	movs	r2, #45	; 0x2d
   d55a6:	70a3      	strb	r3, [r4, #2]
   d55a8:	2100      	movs	r1, #0
   d55aa:	f10d 0033 	add.w	r0, sp, #51	; 0x33
  state = IDLE_STATE;
   d55ae:	4c57      	ldr	r4, [pc, #348]	; (d570c <setup+0x18c>)
double gasResistanceKOhms = 0;
double approxAltitudeInM = 0;

void setup()                                                                                // Note: Disconnected Setup()
{
  char StartupMessage[64] = "Startup Successful";                                           // Messages from Initialization
   d55b0:	f003 fac5 	bl	d8b3e <memset>
  state = IDLE_STATE;
   d55b4:	2302      	movs	r3, #2

  pinMode(HumidityLED, OUTPUT);                                                             // declare the Blue LED Pin as an output
   d55b6:	2101      	movs	r1, #1
   d55b8:	2007      	movs	r0, #7
double approxAltitudeInM = 0;

void setup()                                                                                // Note: Disconnected Setup()
{
  char StartupMessage[64] = "Startup Successful";                                           // Messages from Initialization
  state = IDLE_STATE;
   d55ba:	7023      	strb	r3, [r4, #0]

  pinMode(HumidityLED, OUTPUT);                                                             // declare the Blue LED Pin as an output
   d55bc:	f002 f8ea 	bl	d7794 <pinMode>
  pinMode(tempLED,OUTPUT);
   d55c0:	2101      	movs	r1, #1
   d55c2:	2005      	movs	r0, #5
   d55c4:	f002 f8e6 	bl	d7794 <pinMode>
    inline static SleepResult sleep(const pin_t* pins, size_t pinsSize, const InterruptMode* edgeTriggerMode, size_t edgeTriggerModeSize, long seconds = 0, SleepOptionFlags flag = SLEEP_NETWORK_OFF) { return sleepPinImpl(pins, pinsSize, edgeTriggerMode, edgeTriggerModeSize, seconds, flag); }
    inline static SleepResult sleep(const pin_t* pins, size_t pinsSize, const InterruptMode* edgeTriggerMode, size_t edgeTriggerModeSize, std::chrono::seconds s, SleepOptionFlags flag = SLEEP_NETWORK_OFF) { return sleep(pins, pinsSize, edgeTriggerMode, edgeTriggerModeSize, s.count(), flag); }
    inline static SleepResult sleep(const pin_t* pins, size_t pinsSize, const InterruptMode* edgeTriggerMode, size_t edgeTriggerModeSize, SleepOptionFlags flag, long seconds = 0) { return sleep(pins, pinsSize, edgeTriggerMode, edgeTriggerModeSize, seconds, flag); }
    inline static SleepResult sleep(const pin_t* pins, size_t pinsSize, const InterruptMode* edgeTriggerMode, size_t edgeTriggerModeSize, SleepOptionFlags flag, std::chrono::seconds s) { return sleep(pins, pinsSize, edgeTriggerMode, edgeTriggerModeSize, flag, s.count()); }

    static String deviceID(void) { return spark_deviceID(); }
   d55c8:	a804      	add	r0, sp, #16
   d55ca:	f000 fda7 	bl	d611c <spark_deviceID>
    int publishVitals(system_tick_t period_s = particle::NOW);
    inline int publishVitals(std::chrono::seconds s) { return publishVitals(s.count()); }

    inline bool subscribe(const char *eventName, EventHandler handler, Spark_Subscription_Scope_TypeDef scope)
    {
        return spark_subscribe(eventName, handler, NULL, scope, NULL, NULL);
   d55ce:	2500      	movs	r5, #0
	void setCharAt(unsigned int index, char c);
	char operator [] (unsigned int index) const;
	char& operator [] (unsigned int index);
	void getBytes(unsigned char *buf, unsigned int bufsize, unsigned int index=0) const;
	void toCharArray(char *buf, unsigned int bufsize, unsigned int index=0) const
		{getBytes((unsigned char *)buf, bufsize, index);}
   d55d0:	2300      	movs	r3, #0
   d55d2:	227d      	movs	r2, #125	; 0x7d
   d55d4:	a918      	add	r1, sp, #96	; 0x60
   d55d6:	a804      	add	r0, sp, #16
   d55d8:	f001 fe54 	bl	d7284 <_ZNK6String8getBytesEPhjj>
   d55dc:	462b      	mov	r3, r5
   d55de:	462a      	mov	r2, r5
   d55e0:	494b      	ldr	r1, [pc, #300]	; (d5710 <setup+0x190>)
   d55e2:	9501      	str	r5, [sp, #4]
   d55e4:	9500      	str	r5, [sp, #0]
   d55e6:	a818      	add	r0, sp, #96	; 0x60
   d55e8:	f000 fda8 	bl	d613c <spark_subscribe>
        return _variable(varKey, (const char*)userVar, userVarType);
    }

    template<typename T> static inline bool _variable(const char *varKey, typename T::PointerType userVar, const T& userVarType)
    {
        return spark_variable(varKey, (const void*)userVar, T::TYPE_ID, NULL);
   d55ec:	4949      	ldr	r1, [pc, #292]	; (d5714 <setup+0x194>)
   d55ee:	484a      	ldr	r0, [pc, #296]	; (d5718 <setup+0x198>)
   d55f0:	6809      	ldr	r1, [r1, #0]
   d55f2:	462b      	mov	r3, r5
   d55f4:	2204      	movs	r2, #4
   d55f6:	f000 fd69 	bl	d60cc <spark_variable>
  String deviceID = System.deviceID();                                                      // Multiple Electrons share the same hook - keeps things straight
  deviceID.toCharArray(responseTopic,125);
  Particle.subscribe(responseTopic, UbidotsHandler, MY_DEVICES);                            // Subscribe to the integration response event
       
  Particle.variable("Release",releaseNumber);
  Particle.variable("temperature", temperatureString);
   d55fa:	4948      	ldr	r1, [pc, #288]	; (d571c <setup+0x19c>)
   d55fc:	4848      	ldr	r0, [pc, #288]	; (d5720 <setup+0x1a0>)
   d55fe:	f7ff ffb5 	bl	d556c <_ZN10CloudClass8variableIA15_cIRA8_cEEEbRKT_DpOT0_>
  Particle.variable("humidity", humidityString);
   d5602:	4948      	ldr	r1, [pc, #288]	; (d5724 <setup+0x1a4>)
   d5604:	4848      	ldr	r0, [pc, #288]	; (d5728 <setup+0x1a8>)
   d5606:	f7ff ffb1 	bl	d556c <_ZN10CloudClass8variableIA15_cIRA8_cEEEbRKT_DpOT0_>
  Particle.variable("pressure", pressureString);
   d560a:	4948      	ldr	r1, [pc, #288]	; (d572c <setup+0x1ac>)
   d560c:	4848      	ldr	r0, [pc, #288]	; (d5730 <setup+0x1b0>)
   d560e:	f7ff ffad 	bl	d556c <_ZN10CloudClass8variableIA15_cIRA8_cEEEbRKT_DpOT0_>
  Particle.variable("temperature-Upper",upperTemperatureThresholdString);
   d5612:	4948      	ldr	r1, [pc, #288]	; (d5734 <setup+0x1b4>)
   d5614:	4848      	ldr	r0, [pc, #288]	; (d5738 <setup+0x1b8>)
   d5616:	f7ff ffa9 	bl	d556c <_ZN10CloudClass8variableIA15_cIRA8_cEEEbRKT_DpOT0_>
  Particle.variable("temperature-lower",lowerTemperatureThresholdString);
   d561a:	4948      	ldr	r1, [pc, #288]	; (d573c <setup+0x1bc>)
   d561c:	4848      	ldr	r0, [pc, #288]	; (d5740 <setup+0x1c0>)
   d561e:	f7ff ffa5 	bl	d556c <_ZN10CloudClass8variableIA15_cIRA8_cEEEbRKT_DpOT0_>
  Particle.variable("humidity-upper",upperHumidityThresholdString);
   d5622:	4948      	ldr	r1, [pc, #288]	; (d5744 <setup+0x1c4>)
   d5624:	4848      	ldr	r0, [pc, #288]	; (d5748 <setup+0x1c8>)
   d5626:	f7ff ffa1 	bl	d556c <_ZN10CloudClass8variableIA15_cIRA8_cEEEbRKT_DpOT0_>
  Particle.variable("humidity-lower",lowerHumidityThresholdString);
   d562a:	4948      	ldr	r1, [pc, #288]	; (d574c <setup+0x1cc>)
   d562c:	4848      	ldr	r0, [pc, #288]	; (d5750 <setup+0x1d0>)
   d562e:	f7ff ff9d 	bl	d556c <_ZN10CloudClass8variableIA15_cIRA8_cEEEbRKT_DpOT0_>
  
  Particle.function("Measure-Now",measureNow);
   d5632:	4948      	ldr	r1, [pc, #288]	; (d5754 <setup+0x1d4>)
   d5634:	4848      	ldr	r0, [pc, #288]	; (d5758 <setup+0x1d8>)
   d5636:	f7ff ff9d 	bl	d5574 <_ZN10CloudClass8functionIA20_cIPFi6StringEEEEbRKT_DpT0_>
  Particle.function("Verbose-Mode",setVerboseMode);
   d563a:	4948      	ldr	r1, [pc, #288]	; (d575c <setup+0x1dc>)
   d563c:	4848      	ldr	r0, [pc, #288]	; (d5760 <setup+0x1e0>)
   d563e:	f7ff ff99 	bl	d5574 <_ZN10CloudClass8functionIA20_cIPFi6StringEEEEbRKT_DpT0_>
  Particle.function("Temp-Upper-Limit",setUpperTempLimit);
   d5642:	4948      	ldr	r1, [pc, #288]	; (d5764 <setup+0x1e4>)
   d5644:	4848      	ldr	r0, [pc, #288]	; (d5768 <setup+0x1e8>)
   d5646:	f7ff ff95 	bl	d5574 <_ZN10CloudClass8functionIA20_cIPFi6StringEEEEbRKT_DpT0_>
  Particle.function("Temp-Lower-Limit",setLowerTempLimit);
   d564a:	4948      	ldr	r1, [pc, #288]	; (d576c <setup+0x1ec>)
   d564c:	4848      	ldr	r0, [pc, #288]	; (d5770 <setup+0x1f0>)
   d564e:	f7ff ff91 	bl	d5574 <_ZN10CloudClass8functionIA20_cIPFi6StringEEEEbRKT_DpT0_>
  Particle.function("Humidity-Lower-Limit",setLowerHumidityLimit);
   d5652:	4948      	ldr	r1, [pc, #288]	; (d5774 <setup+0x1f4>)
   d5654:	4848      	ldr	r0, [pc, #288]	; (d5778 <setup+0x1f8>)
   d5656:	f7ff ff8d 	bl	d5574 <_ZN10CloudClass8functionIA20_cIPFi6StringEEEEbRKT_DpT0_>
  Particle.function("Humidty-upper-Limit",setUpperHumidityLimit);
   d565a:	4948      	ldr	r1, [pc, #288]	; (d577c <setup+0x1fc>)
   d565c:	4848      	ldr	r0, [pc, #288]	; (d5780 <setup+0x200>)
   d565e:	f7ff ff89 	bl	d5574 <_ZN10CloudClass8functionIA20_cIPFi6StringEEEEbRKT_DpT0_>

  // And set the flags from the control register
  // controlRegister = EEPROM.read(MEM_MAP::controlRegisterAddr);                          // Read the Control Register for system modes so they stick even after reset
  // verboseMode     = (0b00001000 & controlRegister);                                     // Set the verboseMode
  if (!bme.begin()) {                                                                      // Start the BME680 Sensor
   d5662:	2177      	movs	r1, #119	; 0x77
   d5664:	4847      	ldr	r0, [pc, #284]	; (d5784 <setup+0x204>)
   d5666:	f000 f9f5 	bl	d5a54 <_ZN15Adafruit_BME6805beginEh>
   d566a:	b960      	cbnz	r0, d5686 <setup+0x106>
   d566c:	f000 fb6a 	bl	d5d44 <HAL_Timer_Get_Milli_Seconds>
    resetTimeStamp = millis();
   d5670:	4d45      	ldr	r5, [pc, #276]	; (d5788 <setup+0x208>)
    snprintf(StartupMessage,sizeof(StartupMessage),"Error - BME680 Initialization");
   d5672:	4946      	ldr	r1, [pc, #280]	; (d578c <setup+0x20c>)

  // And set the flags from the control register
  // controlRegister = EEPROM.read(MEM_MAP::controlRegisterAddr);                          // Read the Control Register for system modes so they stick even after reset
  // verboseMode     = (0b00001000 & controlRegister);                                     // Set the verboseMode
  if (!bme.begin()) {                                                                      // Start the BME680 Sensor
    resetTimeStamp = millis();
   d5674:	6028      	str	r0, [r5, #0]
    snprintf(StartupMessage,sizeof(StartupMessage),"Error - BME680 Initialization");
   d5676:	4630      	mov	r0, r6
   d5678:	f003 fa9c 	bl	d8bb4 <strcpy>
    state = ERROR_STATE;
   d567c:	2301      	movs	r3, #1
   d567e:	7023      	strb	r3, [r4, #0]
   d5680:	f000 fb60 	bl	d5d44 <HAL_Timer_Get_Milli_Seconds>
    resetTimeStamp = millis();
   d5684:	6028      	str	r0, [r5, #0]
  }

  // Set up the sampling paramatures
  bme.setTemperatureOversampling(BME680_OS_8X);
   d5686:	2104      	movs	r1, #4
   d5688:	483e      	ldr	r0, [pc, #248]	; (d5784 <setup+0x204>)
   d568a:	f000 fae5 	bl	d5c58 <_ZN15Adafruit_BME68026setTemperatureOversamplingEh>
  bme.setHumidityOversampling(BME680_OS_2X);
   d568e:	2102      	movs	r1, #2
   d5690:	483c      	ldr	r0, [pc, #240]	; (d5784 <setup+0x204>)
   d5692:	f000 faee 	bl	d5c72 <_ZN15Adafruit_BME68023setHumidityOversamplingEh>
  bme.setPressureOversampling(BME680_OS_4X);
   d5696:	2103      	movs	r1, #3
   d5698:	483a      	ldr	r0, [pc, #232]	; (d5784 <setup+0x204>)
   d569a:	f000 faf7 	bl	d5c8c <_ZN15Adafruit_BME68023setPressureOversamplingEh>
  bme.setIIRFilterSize(BME680_FILTER_SIZE_3);
   d569e:	2102      	movs	r1, #2
   d56a0:	4838      	ldr	r0, [pc, #224]	; (d5784 <setup+0x204>)
   d56a2:	f000 fb00 	bl	d5ca6 <_ZN15Adafruit_BME68016setIIRFilterSizeEh>
  bme.setGasHeater(320, 150); // 320*C for 150 ms
   d56a6:	2296      	movs	r2, #150	; 0x96
   d56a8:	f44f 71a0 	mov.w	r1, #320	; 0x140
   d56ac:	4835      	ldr	r0, [pc, #212]	; (d5784 <setup+0x204>)
   d56ae:	f000 fac5 	bl	d5c3c <_ZN15Adafruit_BME68012setGasHeaterEtt>

  takeMeasurements();                                                                      // For the benefit of monitoring the device
   d56b2:	f7ff fbcf 	bl	d4e54 <_Z16takeMeasurementsv>
  updateThresholdValue();                                                                  // For checking values of each device
   d56b6:	f7ff fad9 	bl	d4c6c <_Z20updateThresholdValuev>
 
  if(!connectToParticle()) {
   d56ba:	f7ff fa77 	bl	d4bac <_Z17connectToParticlev>
   d56be:	b948      	cbnz	r0, d56d4 <setup+0x154>
    state = ERROR_STATE;                                                                   // We failed to connect can reset here or go to the ERROR state for remediation
   d56c0:	2301      	movs	r3, #1
   d56c2:	7023      	strb	r3, [r4, #0]
   d56c4:	f000 fb3e 	bl	d5d44 <HAL_Timer_Get_Milli_Seconds>
    resetTimeStamp = millis();
   d56c8:	4b2f      	ldr	r3, [pc, #188]	; (d5788 <setup+0x208>)
    snprintf(StartupMessage, sizeof(StartupMessage), "Failed to connect");
   d56ca:	4931      	ldr	r1, [pc, #196]	; (d5790 <setup+0x210>)
  takeMeasurements();                                                                      // For the benefit of monitoring the device
  updateThresholdValue();                                                                  // For checking values of each device
 
  if(!connectToParticle()) {
    state = ERROR_STATE;                                                                   // We failed to connect can reset here or go to the ERROR state for remediation
    resetTimeStamp = millis();
   d56cc:	6018      	str	r0, [r3, #0]
    snprintf(StartupMessage, sizeof(StartupMessage), "Failed to connect");
   d56ce:	4630      	mov	r0, r6
   d56d0:	f003 fa70 	bl	d8bb4 <strcpy>
  }

  if(verboseMode) Particle.publish("Startup",StartupMessage,PRIVATE);                      // Let Particle know how the startup process went
   d56d4:	4b2f      	ldr	r3, [pc, #188]	; (d5794 <setup+0x214>)
   d56d6:	781b      	ldrb	r3, [r3, #0]
   d56d8:	b163      	cbz	r3, d56f4 <setup+0x174>
   d56da:	4b2f      	ldr	r3, [pc, #188]	; (d5798 <setup+0x218>)
   d56dc:	492f      	ldr	r1, [pc, #188]	; (d579c <setup+0x21c>)
   d56de:	781b      	ldrb	r3, [r3, #0]
   d56e0:	2200      	movs	r2, #0
   d56e2:	f88d 2000 	strb.w	r2, [sp]
   d56e6:	a802      	add	r0, sp, #8
   d56e8:	4632      	mov	r2, r6
   d56ea:	f7ff fa51 	bl	d4b90 <_ZN10CloudClass7publishEPKcS1_N8particle5FlagsI15PublishFlagTypehEES5_.isra.55.constprop.62>
   d56ee:	a803      	add	r0, sp, #12
   d56f0:	f7ff fb04 	bl	d4cfc <_ZNSt14__shared_countILN9__gnu_cxx12_Lock_policyE0EED1Ev>
   d56f4:	f000 fb26 	bl	d5d44 <HAL_Timer_Get_Milli_Seconds>
  lastPublish = millis();
   d56f8:	4b29      	ldr	r3, [pc, #164]	; (d57a0 <setup+0x220>)
   d56fa:	6018      	str	r0, [r3, #0]

  pinMode(HumidityLED, OUTPUT);                                                             // declare the Blue LED Pin as an output
  pinMode(tempLED,OUTPUT);
  
  char responseTopic[125];
  String deviceID = System.deviceID();                                                      // Multiple Electrons share the same hook - keeps things straight
   d56fc:	a804      	add	r0, sp, #16
   d56fe:	f001 fd3b 	bl	d7178 <_ZN6StringD1Ev>
    snprintf(StartupMessage, sizeof(StartupMessage), "Failed to connect");
  }

  if(verboseMode) Particle.publish("Startup",StartupMessage,PRIVATE);                      // Let Particle know how the startup process went
  lastPublish = millis();
}
   d5702:	b038      	add	sp, #224	; 0xe0
   d5704:	bd70      	pop	{r4, r5, r6, pc}
   d5706:	bf00      	nop
   d5708:	000daf4e 	.word	0x000daf4e
   d570c:	2003e279 	.word	0x2003e279
   d5710:	000d4dbd 	.word	0x000d4dbd
   d5714:	2003e020 	.word	0x2003e020
   d5718:	000db23e 	.word	0x000db23e
   d571c:	2003e13c 	.word	0x2003e13c
   d5720:	000db246 	.word	0x000db246
   d5724:	2003e2c0 	.word	0x2003e2c0
   d5728:	000db252 	.word	0x000db252
   d572c:	2003e292 	.word	0x2003e292
   d5730:	000db25b 	.word	0x000db25b
   d5734:	2003e168 	.word	0x2003e168
   d5738:	000db264 	.word	0x000db264
   d573c:	2003e158 	.word	0x2003e158
   d5740:	000db276 	.word	0x000db276
   d5744:	2003e270 	.word	0x2003e270
   d5748:	000db288 	.word	0x000db288
   d574c:	2003e134 	.word	0x2003e134
   d5750:	000db297 	.word	0x000db297
   d5754:	000d4b65 	.word	0x000d4b65
   d5758:	000db2a6 	.word	0x000db2a6
   d575c:	000d50f1 	.word	0x000d50f1
   d5760:	000db2b2 	.word	0x000db2b2
   d5764:	000d541d 	.word	0x000d541d
   d5768:	000db2bf 	.word	0x000db2bf
   d576c:	000d5471 	.word	0x000d5471
   d5770:	000db2d0 	.word	0x000db2d0
   d5774:	000d5519 	.word	0x000d5519
   d5778:	000db2e1 	.word	0x000db2e1
   d577c:	000d54c5 	.word	0x000d54c5
   d5780:	000db2f6 	.word	0x000db2f6
   d5784:	2003e2d0 	.word	0x2003e2d0
   d5788:	2003e2bc 	.word	0x2003e2bc
   d578c:	000db30a 	.word	0x000db30a
   d5790:	000db328 	.word	0x000db328
   d5794:	2003e024 	.word	0x2003e024
   d5798:	2003e151 	.word	0x2003e151
   d579c:	000db33a 	.word	0x000db33a
   d57a0:	2003e348 	.word	0x2003e348

000d57a4 <_GLOBAL__sub_I_bme>:
} // namespace particle

// particle::Flag<TagT, ValueT>
template<typename TagT, typename ValueT>
inline particle::Flag<TagT, ValueT>::Flag(ValueT val) :
        val_(val) {
   d57a4:	4b13      	ldr	r3, [pc, #76]	; (d57f4 <_GLOBAL__sub_I_bme+0x50>)
void updateThresholdValue(){
    snprintf(upperTemperatureThresholdString,sizeof(upperTemperatureThresholdString),"Temp_Max : %f3.1f",upperTemperatureThreshold);
    snprintf(lowerTemperatureThresholdString,sizeof(lowerTemperatureThresholdString),"Temp_Mix : %3.1f",lowerTemperatureThreshold);
    snprintf(upperHumidityThresholdString,sizeof(upperHumidityThresholdString),"Humidity_Max: %3.1f",upperHumidityThreshold);
    snprintf(lowerHumidityThresholdString,sizeof(lowerHumidityThresholdString),"Humidity_Min : %3.1f",lowerHumidityThreshold);
   d57a6:	b570      	push	{r4, r5, r6, lr}
   d57a8:	2400      	movs	r4, #0
   d57aa:	701c      	strb	r4, [r3, #0]
   d57ac:	4b12      	ldr	r3, [pc, #72]	; (d57f8 <_GLOBAL__sub_I_bme+0x54>)

class SystemSleepResult {
public:
    SystemSleepResult()
            : wakeupSource_(nullptr),
              error_(SYSTEM_ERROR_NONE) {
   d57ae:	4d13      	ldr	r5, [pc, #76]	; (d57fc <_GLOBAL__sub_I_bme+0x58>)
   d57b0:	2601      	movs	r6, #1
   d57b2:	701e      	strb	r6, [r3, #0]

inline void pinSetFast(pin_t _pin) __attribute__((always_inline));
inline void pinResetFast(pin_t _pin) __attribute__((always_inline));
inline int32_t pinReadFast(pin_t _pin) __attribute__((always_inline));

static Hal_Pin_Info* PIN_MAP = HAL_Pin_Map();
   d57b4:	f000 fae6 	bl	d5d84 <HAL_Pin_Map>



#define SEALEVELPRESSURE_HPA (1013.25)                                                     // Universal variables

Adafruit_BME680 bme;                                                                       // Instantiate the I2C library
   d57b8:	f04f 31ff 	mov.w	r1, #4294967295	; 0xffffffff
   d57bc:	4810      	ldr	r0, [pc, #64]	; (d5800 <_GLOBAL__sub_I_bme+0x5c>)
   d57be:	f000 f933 	bl	d5a28 <_ZN15Adafruit_BME680C1Ea>
    WAKEUP_REASON_PIN_OR_RTC = 3,
    WAKEUP_REASON_UNKNOWN = 4
};

struct SleepResult {
    SleepResult() {}
   d57c2:	f64f 73ff 	movw	r3, #65535	; 0xffff

class SystemClass {
public:

    SystemClass(System_Mode_TypeDef mode = DEFAULT) {
        set_system_mode(mode);
   d57c6:	2002      	movs	r0, #2
    WAKEUP_REASON_PIN_OR_RTC = 3,
    WAKEUP_REASON_UNKNOWN = 4
};

struct SleepResult {
    SleepResult() {}
   d57c8:	816b      	strh	r3, [r5, #10]

class SystemSleepResult {
public:
    SystemSleepResult()
            : wakeupSource_(nullptr),
              error_(SYSTEM_ERROR_NONE) {
   d57ca:	602c      	str	r4, [r5, #0]
   d57cc:	80ac      	strh	r4, [r5, #4]
    WAKEUP_REASON_PIN_OR_RTC = 3,
    WAKEUP_REASON_UNKNOWN = 4
};

struct SleepResult {
    SleepResult() {}
   d57ce:	71ac      	strb	r4, [r5, #6]
   d57d0:	812c      	strh	r4, [r5, #8]

class SystemClass {
public:

    SystemClass(System_Mode_TypeDef mode = DEFAULT) {
        set_system_mode(mode);
   d57d2:	f000 fc37 	bl	d6044 <set_system_mode>

// Prototypes and System Mode calls
SYSTEM_MODE(SEMI_AUTOMATIC);                                                               // This will enable user code to start executing automatically.
   d57d6:	4a0b      	ldr	r2, [pc, #44]	; (d5804 <_GLOBAL__sub_I_bme+0x60>)
   d57d8:	490b      	ldr	r1, [pc, #44]	; (d5808 <_GLOBAL__sub_I_bme+0x64>)
   d57da:	4628      	mov	r0, r5
   d57dc:	f002 f878 	bl	d78d0 <__aeabi_atexit>
SYSTEM_THREAD(ENABLED);                                                                    // Means my code will not be held up by Particle processes.
   d57e0:	4621      	mov	r1, r4
   d57e2:	4630      	mov	r0, r6
   d57e4:	f000 fc3e 	bl	d6064 <system_thread_set_state>
        return HAL_Feature_Get(feature);
    }

    inline int enableFeature(HAL_Feature feature)
    {
        return HAL_Feature_Set(feature, true);
   d57e8:	4631      	mov	r1, r6
   d57ea:	2004      	movs	r0, #4
void updateThresholdValue(){
    snprintf(upperTemperatureThresholdString,sizeof(upperTemperatureThresholdString),"Temp_Max : %f3.1f",upperTemperatureThreshold);
    snprintf(lowerTemperatureThresholdString,sizeof(lowerTemperatureThresholdString),"Temp_Mix : %3.1f",lowerTemperatureThreshold);
    snprintf(upperHumidityThresholdString,sizeof(upperHumidityThresholdString),"Humidity_Max: %3.1f",upperHumidityThreshold);
    snprintf(lowerHumidityThresholdString,sizeof(lowerHumidityThresholdString),"Humidity_Min : %3.1f",lowerHumidityThreshold);
   d57ec:	e8bd 4070 	ldmia.w	sp!, {r4, r5, r6, lr}
   d57f0:	f000 ba90 	b.w	d5d14 <HAL_Feature_Set>
   d57f4:	2003e281 	.word	0x2003e281
   d57f8:	2003e151 	.word	0x2003e151
   d57fc:	2003e2a4 	.word	0x2003e2a4
   d5800:	2003e2d0 	.word	0x2003e2d0
   d5804:	2003e130 	.word	0x2003e130
   d5808:	000d4b81 	.word	0x000d4b81

000d580c <_ZL10delay_msecm>:
  return reply;
}


static void delay_msec(uint32_t ms){
  delay(ms);
   d580c:	f000 bd3e 	b.w	d628c <delay>

000d5810 <_ZL9i2c_writehhPht>:
/**************************************************************************/
/*!
    @brief  Writes 8 bit values over I2C
*/
/**************************************************************************/
int8_t i2c_write(uint8_t dev_id, uint8_t reg_addr, uint8_t *reg_data, uint16_t len) {
   d5810:	b5f8      	push	{r3, r4, r5, r6, r7, lr}
   d5812:	4607      	mov	r7, r0
   d5814:	4614      	mov	r4, r2
   d5816:	461d      	mov	r5, r3
   d5818:	460e      	mov	r6, r1
#ifdef BME680_DEBUG
  Serial.print("\tI2C $"); Serial.print(reg_addr, HEX); Serial.print(" <= ");
#endif
  Wire.beginTransmission((uint8_t)dev_id);
   d581a:	f002 f813 	bl	d7844 <_Z19__fetch_global_Wirev>
   d581e:	4639      	mov	r1, r7
   d5820:	f001 f977 	bl	d6b12 <_ZN7TwoWire17beginTransmissionEh>
  Wire.write((uint8_t)reg_addr);
   d5824:	f002 f80e 	bl	d7844 <_Z19__fetch_global_Wirev>
   d5828:	6803      	ldr	r3, [r0, #0]
   d582a:	4631      	mov	r1, r6
   d582c:	689b      	ldr	r3, [r3, #8]
   d582e:	4798      	blx	r3
   d5830:	4425      	add	r5, r4
  while (len--) {
   d5832:	42ac      	cmp	r4, r5
   d5834:	d007      	beq.n	d5846 <_ZL9i2c_writehhPht+0x36>
    Wire.write(*reg_data);
   d5836:	f002 f805 	bl	d7844 <_Z19__fetch_global_Wirev>
   d583a:	6803      	ldr	r3, [r0, #0]
   d583c:	f814 1b01 	ldrb.w	r1, [r4], #1
   d5840:	689b      	ldr	r3, [r3, #8]
   d5842:	4798      	blx	r3
#ifdef BME680_DEBUG
  Serial.print("\tI2C $"); Serial.print(reg_addr, HEX); Serial.print(" <= ");
#endif
  Wire.beginTransmission((uint8_t)dev_id);
  Wire.write((uint8_t)reg_addr);
  while (len--) {
   d5844:	e7f5      	b.n	d5832 <_ZL9i2c_writehhPht+0x22>
#ifdef BME680_DEBUG
    Serial.print("0x"); Serial.print(*reg_data, HEX); Serial.print(", ");
#endif
    reg_data++;
  }
  Wire.endTransmission();
   d5846:	f001 fffd 	bl	d7844 <_Z19__fetch_global_Wirev>
   d584a:	f001 f96a 	bl	d6b22 <_ZN7TwoWire15endTransmissionEv>
#ifdef BME680_DEBUG
  Serial.println("");
#endif
  return 0;
}
   d584e:	2000      	movs	r0, #0
   d5850:	bdf8      	pop	{r3, r4, r5, r6, r7, pc}
	...

000d5854 <_ZL12spi_transferh>:
#endif
  return 0;
}


static uint8_t spi_transfer(uint8_t x) {
   d5854:	e92d 47f0 	stmdb	sp!, {r4, r5, r6, r7, r8, r9, sl, lr}
  if (_BME680_SoftwareSPI_SCK == -1)
   d5858:	4d1b      	ldr	r5, [pc, #108]	; (d58c8 <_ZL12spi_transferh+0x74>)
   d585a:	f995 3000 	ldrsb.w	r3, [r5]
   d585e:	3301      	adds	r3, #1
#endif
  return 0;
}


static uint8_t spi_transfer(uint8_t x) {
   d5860:	4680      	mov	r8, r0
  if (_BME680_SoftwareSPI_SCK == -1)
   d5862:	d106      	bne.n	d5872 <_ZL12spi_transferh+0x1e>
    return SPI.transfer(x);
   d5864:	f002 f814 	bl	d7890 <_ZN8particle7globals11instanceSpiEv>
   d5868:	4641      	mov	r1, r8
    digitalWrite(_BME680_SoftwareSPI_SCK, HIGH);
    if (digitalRead(_BME680_SoftwareSPI_MISO))
      reply |= 1;
  }
  return reply;
}
   d586a:	e8bd 47f0 	ldmia.w	sp!, {r4, r5, r6, r7, r8, r9, sl, lr}
}


static uint8_t spi_transfer(uint8_t x) {
  if (_BME680_SoftwareSPI_SCK == -1)
    return SPI.transfer(x);
   d586e:	f001 bc6d 	b.w	d714c <_ZN8SPIClass8transferEh>
  //Serial.println("Software SPI");
  uint8_t reply = 0;
  for (int i=7; i>=0; i--) {
    reply <<= 1;
    digitalWrite(_BME680_SoftwareSPI_SCK, LOW);
    digitalWrite(_BME680_SoftwareSPI_MOSI, x & (1<<i));
   d5872:	f8df 9058 	ldr.w	r9, [pc, #88]	; d58cc <_ZL12spi_transferh+0x78>
    digitalWrite(_BME680_SoftwareSPI_SCK, HIGH);
    if (digitalRead(_BME680_SoftwareSPI_MISO))
   d5876:	f8df a058 	ldr.w	sl, [pc, #88]	; d58d0 <_ZL12spi_transferh+0x7c>
   d587a:	2607      	movs	r6, #7
   d587c:	2400      	movs	r4, #0
  // software spi
  //Serial.println("Software SPI");
  uint8_t reply = 0;
  for (int i=7; i>=0; i--) {
    reply <<= 1;
    digitalWrite(_BME680_SoftwareSPI_SCK, LOW);
   d587e:	f995 0000 	ldrsb.w	r0, [r5]
   d5882:	2100      	movs	r1, #0
   d5884:	b280      	uxth	r0, r0
   d5886:	f001 ff96 	bl	d77b6 <digitalWrite>
    digitalWrite(_BME680_SoftwareSPI_MOSI, x & (1<<i));
   d588a:	2701      	movs	r7, #1
   d588c:	f999 0000 	ldrsb.w	r0, [r9]
   d5890:	fa07 f106 	lsl.w	r1, r7, r6
   d5894:	ea01 0108 	and.w	r1, r1, r8
   d5898:	b280      	uxth	r0, r0
   d589a:	f001 ff8c 	bl	d77b6 <digitalWrite>
    digitalWrite(_BME680_SoftwareSPI_SCK, HIGH);
   d589e:	f995 0000 	ldrsb.w	r0, [r5]
   d58a2:	4639      	mov	r1, r7
   d58a4:	b280      	uxth	r0, r0
   d58a6:	f001 ff86 	bl	d77b6 <digitalWrite>
    if (digitalRead(_BME680_SoftwareSPI_MISO))
   d58aa:	f99a 0000 	ldrsb.w	r0, [sl]

  // software spi
  //Serial.println("Software SPI");
  uint8_t reply = 0;
  for (int i=7; i>=0; i--) {
    reply <<= 1;
   d58ae:	0064      	lsls	r4, r4, #1
    digitalWrite(_BME680_SoftwareSPI_SCK, LOW);
    digitalWrite(_BME680_SoftwareSPI_MOSI, x & (1<<i));
    digitalWrite(_BME680_SoftwareSPI_SCK, HIGH);
    if (digitalRead(_BME680_SoftwareSPI_MISO))
   d58b0:	b280      	uxth	r0, r0

  // software spi
  //Serial.println("Software SPI");
  uint8_t reply = 0;
  for (int i=7; i>=0; i--) {
    reply <<= 1;
   d58b2:	b2e4      	uxtb	r4, r4
    digitalWrite(_BME680_SoftwareSPI_SCK, LOW);
    digitalWrite(_BME680_SoftwareSPI_MOSI, x & (1<<i));
    digitalWrite(_BME680_SoftwareSPI_SCK, HIGH);
    if (digitalRead(_BME680_SoftwareSPI_MISO))
   d58b4:	f001 ff98 	bl	d77e8 <digitalRead>
   d58b8:	b100      	cbz	r0, d58bc <_ZL12spi_transferh+0x68>
      reply |= 1;
   d58ba:	433c      	orrs	r4, r7
    return SPI.transfer(x);

  // software spi
  //Serial.println("Software SPI");
  uint8_t reply = 0;
  for (int i=7; i>=0; i--) {
   d58bc:	f116 36ff 	adds.w	r6, r6, #4294967295	; 0xffffffff
   d58c0:	d2dd      	bcs.n	d587e <_ZL12spi_transferh+0x2a>
    digitalWrite(_BME680_SoftwareSPI_SCK, HIGH);
    if (digitalRead(_BME680_SoftwareSPI_MISO))
      reply |= 1;
  }
  return reply;
}
   d58c2:	4620      	mov	r0, r4
   d58c4:	e8bd 87f0 	ldmia.w	sp!, {r4, r5, r6, r7, r8, r9, sl, pc}
   d58c8:	2003e34d 	.word	0x2003e34d
   d58cc:	2003e34e 	.word	0x2003e34e
   d58d0:	2003e34c 	.word	0x2003e34c

000d58d4 <_ZL9spi_writehhPht>:
/**************************************************************************/
/*!
    @brief  Writes 8 bit values over SPI
*/
/**************************************************************************/
static int8_t spi_write(uint8_t cspin, uint8_t reg_addr, uint8_t *reg_data, uint16_t len) {
   d58d4:	e92d 41f0 	stmdb	sp!, {r4, r5, r6, r7, r8, lr}
   d58d8:	4688      	mov	r8, r1
#ifdef BME680_DEBUG
  Serial.print("\tSPI $"); Serial.print(reg_addr, HEX); Serial.print(" <= ");
#endif

  digitalWrite(cspin, LOW);
   d58da:	2100      	movs	r1, #0
/**************************************************************************/
/*!
    @brief  Writes 8 bit values over SPI
*/
/**************************************************************************/
static int8_t spi_write(uint8_t cspin, uint8_t reg_addr, uint8_t *reg_data, uint16_t len) {
   d58dc:	4615      	mov	r5, r2
   d58de:	461e      	mov	r6, r3
#ifdef BME680_DEBUG
  Serial.print("\tSPI $"); Serial.print(reg_addr, HEX); Serial.print(" <= ");
#endif

  digitalWrite(cspin, LOW);
   d58e0:	4607      	mov	r7, r0
   d58e2:	f001 ff68 	bl	d77b6 <digitalWrite>

  // If hardware SPI we should use transactions!
  if (_BME680_SoftwareSPI_SCK == -1) {
   d58e6:	4b19      	ldr	r3, [pc, #100]	; (d594c <_ZL9spi_writehhPht+0x78>)
   d58e8:	f993 2000 	ldrsb.w	r2, [r3]
   d58ec:	3201      	adds	r2, #1
   d58ee:	461c      	mov	r4, r3
   d58f0:	d112      	bne.n	d5918 <_ZL9spi_writehhPht+0x44>
    SPI.begin();
   d58f2:	f001 ffcd 	bl	d7890 <_ZN8particle7globals11instanceSpiEv>
   d58f6:	f001 fb87 	bl	d7008 <_ZN8SPIClass5beginEv>
    SPI.setClockDivider(BME680_DEFAULT_SPIFREQ);
   d58fa:	f001 ffc9 	bl	d7890 <_ZN8particle7globals11instanceSpiEv>
   d58fe:	2140      	movs	r1, #64	; 0x40
   d5900:	f001 fc00 	bl	d7104 <_ZN8SPIClass15setClockDividerEh>
    SPI.setBitOrder(MSBFIRST);
   d5904:	f001 ffc4 	bl	d7890 <_ZN8particle7globals11instanceSpiEv>
   d5908:	2101      	movs	r1, #1
   d590a:	f001 fb8e 	bl	d702a <_ZN8SPIClass11setBitOrderEh>
    SPI.setDataMode(SPI_MODE0);
   d590e:	f001 ffbf 	bl	d7890 <_ZN8particle7globals11instanceSpiEv>
   d5912:	2100      	movs	r1, #0
   d5914:	f001 fb9a 	bl	d704c <_ZN8SPIClass11setDataModeEh>
    // SPI.beginTransaction(SPISettings(BME680_DEFAULT_SPIFREQ, MSBFIRST, SPI_MODE0));
  }

  spi_transfer(reg_addr);
   d5918:	4640      	mov	r0, r8
   d591a:	f7ff ff9b 	bl	d5854 <_ZL12spi_transferh>
   d591e:	442e      	add	r6, r5
  while (len--) {
   d5920:	42b5      	cmp	r5, r6
   d5922:	d004      	beq.n	d592e <_ZL9spi_writehhPht+0x5a>
    spi_transfer(*reg_data);
   d5924:	f815 0b01 	ldrb.w	r0, [r5], #1
   d5928:	f7ff ff94 	bl	d5854 <_ZL12spi_transferh>
    SPI.setDataMode(SPI_MODE0);
    // SPI.beginTransaction(SPISettings(BME680_DEFAULT_SPIFREQ, MSBFIRST, SPI_MODE0));
  }

  spi_transfer(reg_addr);
  while (len--) {
   d592c:	e7f8      	b.n	d5920 <_ZL9spi_writehhPht+0x4c>
    Serial.print("0x"); Serial.print(*reg_data, HEX); Serial.print(", ");
#endif
    reg_data++;
  }

  if (_BME680_SoftwareSPI_SCK == -1) {
   d592e:	f994 3000 	ldrsb.w	r3, [r4]
   d5932:	3301      	adds	r3, #1
   d5934:	d103      	bne.n	d593e <_ZL9spi_writehhPht+0x6a>
    SPI.endTransaction();
   d5936:	f001 ffab 	bl	d7890 <_ZN8particle7globals11instanceSpiEv>
   d593a:	f001 fb98 	bl	d706e <_ZN8SPIClass14endTransactionEv>
  }

  digitalWrite(cspin, HIGH);
   d593e:	4638      	mov	r0, r7
   d5940:	2101      	movs	r1, #1
   d5942:	f001 ff38 	bl	d77b6 <digitalWrite>

#ifdef BME680_DEBUG
  Serial.println("");
#endif
  return 0;
}
   d5946:	2000      	movs	r0, #0
   d5948:	e8bd 81f0 	ldmia.w	sp!, {r4, r5, r6, r7, r8, pc}
   d594c:	2003e34d 	.word	0x2003e34d

000d5950 <_ZL8spi_readhhPht>:
/**************************************************************************/
/*!
    @brief  Reads 8 bit values over SPI
*/
/**************************************************************************/
static int8_t spi_read(uint8_t cspin, uint8_t reg_addr, uint8_t *reg_data, uint16_t len) {
   d5950:	e92d 41f0 	stmdb	sp!, {r4, r5, r6, r7, r8, lr}
   d5954:	4688      	mov	r8, r1
#ifdef BME680_DEBUG
  Serial.print("\tSPI $"); Serial.print(reg_addr, HEX); Serial.print(" => ");
#endif

  digitalWrite(cspin, LOW);
   d5956:	2100      	movs	r1, #0
/**************************************************************************/
/*!
    @brief  Reads 8 bit values over SPI
*/
/**************************************************************************/
static int8_t spi_read(uint8_t cspin, uint8_t reg_addr, uint8_t *reg_data, uint16_t len) {
   d5958:	4615      	mov	r5, r2
   d595a:	461e      	mov	r6, r3
#ifdef BME680_DEBUG
  Serial.print("\tSPI $"); Serial.print(reg_addr, HEX); Serial.print(" => ");
#endif

  digitalWrite(cspin, LOW);
   d595c:	4607      	mov	r7, r0
   d595e:	f001 ff2a 	bl	d77b6 <digitalWrite>

  // If hardware SPI we should use transactions!
  if (_BME680_SoftwareSPI_SCK == -1) {
   d5962:	4b1a      	ldr	r3, [pc, #104]	; (d59cc <_ZL8spi_readhhPht+0x7c>)
   d5964:	f993 2000 	ldrsb.w	r2, [r3]
   d5968:	3201      	adds	r2, #1
   d596a:	461c      	mov	r4, r3
   d596c:	d112      	bne.n	d5994 <_ZL8spi_readhhPht+0x44>
    SPI.begin();
   d596e:	f001 ff8f 	bl	d7890 <_ZN8particle7globals11instanceSpiEv>
   d5972:	f001 fb49 	bl	d7008 <_ZN8SPIClass5beginEv>
    SPI.setClockDivider(BME680_DEFAULT_SPIFREQ);
   d5976:	f001 ff8b 	bl	d7890 <_ZN8particle7globals11instanceSpiEv>
   d597a:	2140      	movs	r1, #64	; 0x40
   d597c:	f001 fbc2 	bl	d7104 <_ZN8SPIClass15setClockDividerEh>
    SPI.setBitOrder(MSBFIRST);
   d5980:	f001 ff86 	bl	d7890 <_ZN8particle7globals11instanceSpiEv>
   d5984:	2101      	movs	r1, #1
   d5986:	f001 fb50 	bl	d702a <_ZN8SPIClass11setBitOrderEh>
    SPI.setDataMode(SPI_MODE0);
   d598a:	f001 ff81 	bl	d7890 <_ZN8particle7globals11instanceSpiEv>
   d598e:	2100      	movs	r1, #0
   d5990:	f001 fb5c 	bl	d704c <_ZN8SPIClass11setDataModeEh>
    // SPI.beginTransaction(SPISettings(BME680_DEFAULT_SPIFREQ, MSBFIRST, SPI_MODE0));
  }

  spi_transfer(reg_addr);
   d5994:	4640      	mov	r0, r8
   d5996:	f7ff ff5d 	bl	d5854 <_ZL12spi_transferh>
   d599a:	442e      	add	r6, r5

  while (len--) {
   d599c:	42b5      	cmp	r5, r6
   d599e:	d005      	beq.n	d59ac <_ZL8spi_readhhPht+0x5c>
    *reg_data = spi_transfer(0x00);
   d59a0:	2000      	movs	r0, #0
   d59a2:	f7ff ff57 	bl	d5854 <_ZL12spi_transferh>
   d59a6:	f805 0b01 	strb.w	r0, [r5], #1
    // SPI.beginTransaction(SPISettings(BME680_DEFAULT_SPIFREQ, MSBFIRST, SPI_MODE0));
  }

  spi_transfer(reg_addr);

  while (len--) {
   d59aa:	e7f7      	b.n	d599c <_ZL8spi_readhhPht+0x4c>
    Serial.print("0x"); Serial.print(*reg_data, HEX); Serial.print(", ");
#endif
    reg_data++;
  }

  if (_BME680_SoftwareSPI_SCK == -1) {
   d59ac:	f994 3000 	ldrsb.w	r3, [r4]
   d59b0:	3301      	adds	r3, #1
   d59b2:	d103      	bne.n	d59bc <_ZL8spi_readhhPht+0x6c>
    SPI.endTransaction();
   d59b4:	f001 ff6c 	bl	d7890 <_ZN8particle7globals11instanceSpiEv>
   d59b8:	f001 fb59 	bl	d706e <_ZN8SPIClass14endTransactionEv>
  }

  digitalWrite(cspin, HIGH);
   d59bc:	4638      	mov	r0, r7
   d59be:	2101      	movs	r1, #1
   d59c0:	f001 fef9 	bl	d77b6 <digitalWrite>

#ifdef BME680_DEBUG
  Serial.println("");
#endif
  return 0;
}
   d59c4:	2000      	movs	r0, #0
   d59c6:	e8bd 81f0 	ldmia.w	sp!, {r4, r5, r6, r7, r8, pc}
   d59ca:	bf00      	nop
   d59cc:	2003e34d 	.word	0x2003e34d

000d59d0 <_ZL8i2c_readhhPht>:
/**************************************************************************/
/*!
    @brief  Reads 8 bit values over I2C
*/
/**************************************************************************/
int8_t i2c_read(uint8_t dev_id, uint8_t reg_addr, uint8_t *reg_data, uint16_t len) {
   d59d0:	b5f8      	push	{r3, r4, r5, r6, r7, lr}
   d59d2:	4606      	mov	r6, r0
   d59d4:	4615      	mov	r5, r2
   d59d6:	461c      	mov	r4, r3
   d59d8:	460f      	mov	r7, r1
#ifdef BME680_DEBUG
  Serial.print("\tI2C $"); Serial.print(reg_addr, HEX); Serial.print(" => ");
#endif

  Wire.beginTransmission((uint8_t)dev_id);
   d59da:	f001 ff33 	bl	d7844 <_Z19__fetch_global_Wirev>
   d59de:	4631      	mov	r1, r6
   d59e0:	f001 f897 	bl	d6b12 <_ZN7TwoWire17beginTransmissionEh>
  Wire.write((uint8_t)reg_addr);
   d59e4:	f001 ff2e 	bl	d7844 <_Z19__fetch_global_Wirev>
   d59e8:	6803      	ldr	r3, [r0, #0]
   d59ea:	4639      	mov	r1, r7
   d59ec:	689b      	ldr	r3, [r3, #8]
   d59ee:	4798      	blx	r3
  Wire.endTransmission();
   d59f0:	f001 ff28 	bl	d7844 <_Z19__fetch_global_Wirev>
   d59f4:	f001 f895 	bl	d6b22 <_ZN7TwoWire15endTransmissionEv>
  if (len != Wire.requestFrom((uint8_t)dev_id, (byte)len)) {
   d59f8:	f001 ff24 	bl	d7844 <_Z19__fetch_global_Wirev>
   d59fc:	b2e2      	uxtb	r2, r4
   d59fe:	4631      	mov	r1, r6
   d5a00:	f001 f884 	bl	d6b0c <_ZN7TwoWire11requestFromEhj>
   d5a04:	4284      	cmp	r4, r0
   d5a06:	d10a      	bne.n	d5a1e <_ZL8i2c_readhhPht+0x4e>
   d5a08:	442c      	add	r4, r5
#ifdef BME680_DEBUG
    Serial.print("Failed to read "); Serial.print(len); Serial.print(" bytes from "); Serial.println(dev_id, HEX);
#endif
    return 1;
  }
  while (len--) {
   d5a0a:	42a5      	cmp	r5, r4
   d5a0c:	d009      	beq.n	d5a22 <_ZL8i2c_readhhPht+0x52>
    *reg_data = (uint8_t)Wire.read();
   d5a0e:	f001 ff19 	bl	d7844 <_Z19__fetch_global_Wirev>
   d5a12:	6803      	ldr	r3, [r0, #0]
   d5a14:	695b      	ldr	r3, [r3, #20]
   d5a16:	4798      	blx	r3
   d5a18:	f805 0b01 	strb.w	r0, [r5], #1
   d5a1c:	e7f5      	b.n	d5a0a <_ZL8i2c_readhhPht+0x3a>
  Wire.endTransmission();
  if (len != Wire.requestFrom((uint8_t)dev_id, (byte)len)) {
#ifdef BME680_DEBUG
    Serial.print("Failed to read "); Serial.print(len); Serial.print(" bytes from "); Serial.println(dev_id, HEX);
#endif
    return 1;
   d5a1e:	2001      	movs	r0, #1
   d5a20:	bdf8      	pop	{r3, r4, r5, r6, r7, pc}
  }
  while (len--) {
   d5a22:	2000      	movs	r0, #0
  }
#ifdef BME680_DEBUG
  Serial.println("");
#endif
  return 0;
}
   d5a24:	bdf8      	pop	{r3, r4, r5, r6, r7, pc}
	...

000d5a28 <_ZN15Adafruit_BME680C1Ea>:
    @brief  Instantiates sensor with Hardware SPI or I2C.
    @param  cspin SPI chip select. If not passed in, I2C will be used
*/
/**************************************************************************/
Adafruit_BME680::Adafruit_BME680(int8_t cspin)
  : _cs(cspin)
   d5a28:	7701      	strb	r1, [r0, #28]
{
  _BME680_SoftwareSPI_MOSI = -1;
   d5a2a:	4907      	ldr	r1, [pc, #28]	; (d5a48 <_ZN15Adafruit_BME680C1Ea+0x20>)
   d5a2c:	22ff      	movs	r2, #255	; 0xff
   d5a2e:	700a      	strb	r2, [r1, #0]
  _BME680_SoftwareSPI_MISO = -1;
   d5a30:	4906      	ldr	r1, [pc, #24]	; (d5a4c <_ZN15Adafruit_BME680C1Ea+0x24>)
   d5a32:	700a      	strb	r2, [r1, #0]
  _BME680_SoftwareSPI_SCK = -1;
   d5a34:	4906      	ldr	r1, [pc, #24]	; (d5a50 <_ZN15Adafruit_BME680C1Ea+0x28>)
   d5a36:	700a      	strb	r2, [r1, #0]
  _filterEnabled = _tempEnabled = _humEnabled = _presEnabled = _gasEnabled = false;
   d5a38:	2200      	movs	r2, #0
   d5a3a:	7502      	strb	r2, [r0, #20]
   d5a3c:	74c2      	strb	r2, [r0, #19]
   d5a3e:	7482      	strb	r2, [r0, #18]
   d5a40:	7442      	strb	r2, [r0, #17]
   d5a42:	7402      	strb	r2, [r0, #16]
}
   d5a44:	4770      	bx	lr
   d5a46:	bf00      	nop
   d5a48:	2003e34e 	.word	0x2003e34e
   d5a4c:	2003e34c 	.word	0x2003e34c
   d5a50:	2003e34d 	.word	0x2003e34d

000d5a54 <_ZN15Adafruit_BME6805beginEh>:

    @param  addr Optional parameter for the I2C address of BME680. Default is 0x77
    @return True on sensor initialization success. False on failure.
*/
/**************************************************************************/
bool Adafruit_BME680::begin(uint8_t addr) {
   d5a54:	b538      	push	{r3, r4, r5, lr}
   d5a56:	4604      	mov	r4, r0
   d5a58:	460d      	mov	r5, r1
  _i2caddr = addr;
   d5a5a:	7561      	strb	r1, [r4, #21]

  if (_cs == -1) {
   d5a5c:	f990 001c 	ldrsb.w	r0, [r0, #28]
   d5a60:	1c42      	adds	r2, r0, #1
   d5a62:	d10c      	bne.n	d5a7e <_ZN15Adafruit_BME6805beginEh+0x2a>
    // i2c
    Wire.begin();
   d5a64:	f001 feee 	bl	d7844 <_Z19__fetch_global_Wirev>
   d5a68:	f001 f81c 	bl	d6aa4 <_ZN7TwoWire5beginEv>

    gas_sensor.dev_id = addr;
    gas_sensor.intf = BME680_I2C_INTF;
   d5a6c:	2301      	movs	r3, #1
   d5a6e:	f884 3022 	strb.w	r3, [r4, #34]	; 0x22
    gas_sensor.read = &i2c_read;
   d5a72:	4b2e      	ldr	r3, [pc, #184]	; (d5b2c <_ZN15Adafruit_BME6805beginEh+0xd8>)
   d5a74:	66a3      	str	r3, [r4, #104]	; 0x68

  if (_cs == -1) {
    // i2c
    Wire.begin();

    gas_sensor.dev_id = addr;
   d5a76:	f884 5021 	strb.w	r5, [r4, #33]	; 0x21
    gas_sensor.intf = BME680_I2C_INTF;
    gas_sensor.read = &i2c_read;
    gas_sensor.write = &i2c_write;
   d5a7a:	4b2d      	ldr	r3, [pc, #180]	; (d5b30 <_ZN15Adafruit_BME6805beginEh+0xdc>)
   d5a7c:	e02e      	b.n	d5adc <_ZN15Adafruit_BME6805beginEh+0x88>
  } else {
    digitalWrite(_cs, HIGH);
   d5a7e:	2101      	movs	r1, #1
   d5a80:	b280      	uxth	r0, r0
   d5a82:	f001 fe98 	bl	d77b6 <digitalWrite>
    pinMode(_cs, OUTPUT);
   d5a86:	f994 001c 	ldrsb.w	r0, [r4, #28]
   d5a8a:	2101      	movs	r1, #1
   d5a8c:	b280      	uxth	r0, r0
   d5a8e:	f001 fe81 	bl	d7794 <pinMode>

    if (_BME680_SoftwareSPI_SCK == -1) {
   d5a92:	4b28      	ldr	r3, [pc, #160]	; (d5b34 <_ZN15Adafruit_BME6805beginEh+0xe0>)
   d5a94:	f993 0000 	ldrsb.w	r0, [r3]
   d5a98:	1c43      	adds	r3, r0, #1
   d5a9a:	d104      	bne.n	d5aa6 <_ZN15Adafruit_BME6805beginEh+0x52>
      // hardware SPI
      SPI.begin();
   d5a9c:	f001 fef8 	bl	d7890 <_ZN8particle7globals11instanceSpiEv>
   d5aa0:	f001 fab2 	bl	d7008 <_ZN8SPIClass5beginEv>
   d5aa4:	e011      	b.n	d5aca <_ZN15Adafruit_BME6805beginEh+0x76>
    } else {
      // software SPI
      pinMode(_BME680_SoftwareSPI_SCK, OUTPUT);
   d5aa6:	2101      	movs	r1, #1
   d5aa8:	b280      	uxth	r0, r0
   d5aaa:	f001 fe73 	bl	d7794 <pinMode>
      pinMode(_BME680_SoftwareSPI_MOSI, OUTPUT);
   d5aae:	4b22      	ldr	r3, [pc, #136]	; (d5b38 <_ZN15Adafruit_BME6805beginEh+0xe4>)
   d5ab0:	f993 0000 	ldrsb.w	r0, [r3]
   d5ab4:	2101      	movs	r1, #1
   d5ab6:	b280      	uxth	r0, r0
   d5ab8:	f001 fe6c 	bl	d7794 <pinMode>
      pinMode(_BME680_SoftwareSPI_MISO, INPUT);
   d5abc:	4b1f      	ldr	r3, [pc, #124]	; (d5b3c <_ZN15Adafruit_BME6805beginEh+0xe8>)
   d5abe:	f993 0000 	ldrsb.w	r0, [r3]
   d5ac2:	2100      	movs	r1, #0
   d5ac4:	b280      	uxth	r0, r0
   d5ac6:	f001 fe65 	bl	d7794 <pinMode>
    }

    gas_sensor.dev_id = _cs;
   d5aca:	7f23      	ldrb	r3, [r4, #28]
   d5acc:	f884 3021 	strb.w	r3, [r4, #33]	; 0x21
    gas_sensor.intf = BME680_SPI_INTF;
   d5ad0:	2300      	movs	r3, #0
   d5ad2:	f884 3022 	strb.w	r3, [r4, #34]	; 0x22
    gas_sensor.read = &spi_read;
   d5ad6:	4b1a      	ldr	r3, [pc, #104]	; (d5b40 <_ZN15Adafruit_BME6805beginEh+0xec>)
   d5ad8:	66a3      	str	r3, [r4, #104]	; 0x68
    gas_sensor.write = &spi_write;
   d5ada:	4b1a      	ldr	r3, [pc, #104]	; (d5b44 <_ZN15Adafruit_BME6805beginEh+0xf0>)
   d5adc:	66e3      	str	r3, [r4, #108]	; 0x6c
  }

  gas_sensor.delay_ms = delay_msec;
   d5ade:	4b1a      	ldr	r3, [pc, #104]	; (d5b48 <_ZN15Adafruit_BME6805beginEh+0xf4>)
   d5ae0:	6723      	str	r3, [r4, #112]	; 0x70

  int8_t rslt = BME680_OK;
  rslt = bme680_init(&gas_sensor);
   d5ae2:	f104 0020 	add.w	r0, r4, #32
   d5ae6:	f7fe fbee 	bl	d42c6 <bme680_init>
#ifdef BME680_DEBUG
  Serial.print("Result: "); Serial.println(rslt);
#endif

  if (rslt != BME680_OK)
   d5aea:	b9e0      	cbnz	r0, d5b26 <_ZN15Adafruit_BME6805beginEh+0xd2>
/**************************************************************************/

bool Adafruit_BME680::setTemperatureOversampling(uint8_t oversample) {
  if (oversample > BME680_OS_16X) return false;

  gas_sensor.tph_sett.os_temp = oversample;
   d5aec:	2304      	movs	r3, #4
   d5aee:	f884 3059 	strb.w	r3, [r4, #89]	; 0x59
/**************************************************************************/

bool Adafruit_BME680::setHumidityOversampling(uint8_t oversample) {
  if (oversample > BME680_OS_16X) return false;

  gas_sensor.tph_sett.os_hum = oversample;
   d5af2:	2302      	movs	r3, #2
   d5af4:	f884 3058 	strb.w	r3, [r4, #88]	; 0x58
*/
/**************************************************************************/
bool Adafruit_BME680::setIIRFilterSize(uint8_t filtersize) {
  if (filtersize > BME680_FILTER_SIZE_127) return false;

  gas_sensor.tph_sett.filter = filtersize;
   d5af8:	f884 305b 	strb.w	r3, [r4, #91]	; 0x5b
    @param  heaterTime Time to keep heater on in milliseconds
    @return True on success, False on failure
*/
/**************************************************************************/
bool Adafruit_BME680::setGasHeater(uint16_t heaterTemp, uint16_t heaterTime) {
  gas_sensor.gas_sett.heatr_temp = heaterTemp;
   d5afc:	f44f 73a0 	mov.w	r3, #320	; 0x140
  gas_sensor.tph_sett.os_temp = oversample;

  if (oversample == BME680_OS_NONE)
    _tempEnabled = false;
  else
    _tempEnabled = true;
   d5b00:	2001      	movs	r0, #1
*/
/**************************************************************************/
bool Adafruit_BME680::setPressureOversampling(uint8_t oversample) {
  if (oversample > BME680_OS_16X) return false;

  gas_sensor.tph_sett.os_pres = oversample;
   d5b02:	2203      	movs	r2, #3
    @param  heaterTime Time to keep heater on in milliseconds
    @return True on success, False on failure
*/
/**************************************************************************/
bool Adafruit_BME680::setGasHeater(uint16_t heaterTemp, uint16_t heaterTime) {
  gas_sensor.gas_sett.heatr_temp = heaterTemp;
   d5b04:	f8a4 3060 	strh.w	r3, [r4, #96]	; 0x60
  gas_sensor.gas_sett.heatr_dur = heaterTime;
   d5b08:	2396      	movs	r3, #150	; 0x96
  gas_sensor.tph_sett.os_temp = oversample;

  if (oversample == BME680_OS_NONE)
    _tempEnabled = false;
  else
    _tempEnabled = true;
   d5b0a:	7460      	strb	r0, [r4, #17]
  gas_sensor.tph_sett.os_hum = oversample;

  if (oversample == BME680_OS_NONE)
    _humEnabled = false;
  else
    _humEnabled = true;
   d5b0c:	74a0      	strb	r0, [r4, #18]
*/
/**************************************************************************/
bool Adafruit_BME680::setPressureOversampling(uint8_t oversample) {
  if (oversample > BME680_OS_16X) return false;

  gas_sensor.tph_sett.os_pres = oversample;
   d5b0e:	f884 205a 	strb.w	r2, [r4, #90]	; 0x5a

  if (oversample == BME680_OS_NONE)
    _presEnabled = false;
  else
    _presEnabled = true;
   d5b12:	74e0      	strb	r0, [r4, #19]
  gas_sensor.tph_sett.filter = filtersize;

  if (filtersize == BME680_FILTER_SIZE_0)
    _filterEnabled = false;
  else
    _filterEnabled = true;
   d5b14:	7420      	strb	r0, [r4, #16]
    @return True on success, False on failure
*/
/**************************************************************************/
bool Adafruit_BME680::setGasHeater(uint16_t heaterTemp, uint16_t heaterTime) {
  gas_sensor.gas_sett.heatr_temp = heaterTemp;
  gas_sensor.gas_sett.heatr_dur = heaterTime;
   d5b16:	f8a4 3062 	strh.w	r3, [r4, #98]	; 0x62
  if ( (heaterTemp == 0) || (heaterTime == 0) ) {
    // disabled!
    gas_sensor.gas_sett.run_gas = BME680_DISABLE_GAS_MEAS;
    _gasEnabled = false;
  } else {
    gas_sensor.gas_sett.run_gas = BME680_ENABLE_GAS_MEAS;
   d5b1a:	f884 005e 	strb.w	r0, [r4, #94]	; 0x5e
    _gasEnabled = true;
   d5b1e:	7520      	strb	r0, [r4, #20]
  setPressureOversampling(BME680_OS_4X);
  setIIRFilterSize(BME680_FILTER_SIZE_3);
  setGasHeater(320, 150); // 320*C for 150 ms

  // don't do anything till we request a reading
  gas_sensor.power_mode = BME680_FORCED_MODE;
   d5b20:	f884 0064 	strb.w	r0, [r4, #100]	; 0x64

  return true;
   d5b24:	bd38      	pop	{r3, r4, r5, pc}
#ifdef BME680_DEBUG
  Serial.print("Result: "); Serial.println(rslt);
#endif

  if (rslt != BME680_OK)
    return false;
   d5b26:	2000      	movs	r0, #0

  // don't do anything till we request a reading
  gas_sensor.power_mode = BME680_FORCED_MODE;

  return true;
}
   d5b28:	bd38      	pop	{r3, r4, r5, pc}
   d5b2a:	bf00      	nop
   d5b2c:	000d59d1 	.word	0x000d59d1
   d5b30:	000d5811 	.word	0x000d5811
   d5b34:	2003e34d 	.word	0x2003e34d
   d5b38:	2003e34e 	.word	0x2003e34e
   d5b3c:	2003e34c 	.word	0x2003e34c
   d5b40:	000d5951 	.word	0x000d5951
   d5b44:	000d58d5 	.word	0x000d58d5
   d5b48:	000d580d 	.word	0x000d580d

000d5b4c <_ZN15Adafruit_BME68014performReadingEv>:
    and Adafruit_BME680#gas_resistance member variables

    @return True on success, False on failure
*/
/**************************************************************************/
bool Adafruit_BME680::performReading(void) {
   d5b4c:	b530      	push	{r4, r5, lr}
  struct bme680_field_data data;
  int8_t rslt;

  /* Select the power mode */
  /* Must be set before writing the sensor configuration */
  gas_sensor.power_mode = BME680_FORCED_MODE;
   d5b4e:	2301      	movs	r3, #1
    and Adafruit_BME680#gas_resistance member variables

    @return True on success, False on failure
*/
/**************************************************************************/
bool Adafruit_BME680::performReading(void) {
   d5b50:	4604      	mov	r4, r0
  struct bme680_field_data data;
  int8_t rslt;

  /* Select the power mode */
  /* Must be set before writing the sensor configuration */
  gas_sensor.power_mode = BME680_FORCED_MODE;
   d5b52:	f880 3064 	strb.w	r3, [r0, #100]	; 0x64

  /* Set the required sensor settings needed */
  if (_tempEnabled)
    set_required_settings |= BME680_OST_SEL;
  if (_humEnabled)
   d5b56:	7ca3      	ldrb	r3, [r4, #18]

    @return True on success, False on failure
*/
/**************************************************************************/
bool Adafruit_BME680::performReading(void) {
  uint8_t set_required_settings = 0;
   d5b58:	7c40      	ldrb	r0, [r0, #17]
    and Adafruit_BME680#gas_resistance member variables

    @return True on success, False on failure
*/
/**************************************************************************/
bool Adafruit_BME680::performReading(void) {
   d5b5a:	b087      	sub	sp, #28
  gas_sensor.power_mode = BME680_FORCED_MODE;

  /* Set the required sensor settings needed */
  if (_tempEnabled)
    set_required_settings |= BME680_OST_SEL;
  if (_humEnabled)
   d5b5c:	b10b      	cbz	r3, d5b62 <_ZN15Adafruit_BME68014performReadingEv+0x16>
    set_required_settings |= BME680_OSH_SEL;
   d5b5e:	f040 0004 	orr.w	r0, r0, #4
  if (_presEnabled)
   d5b62:	7ce3      	ldrb	r3, [r4, #19]
   d5b64:	b10b      	cbz	r3, d5b6a <_ZN15Adafruit_BME68014performReadingEv+0x1e>
    set_required_settings |= BME680_OSP_SEL;
   d5b66:	f040 0002 	orr.w	r0, r0, #2
  if (_filterEnabled)
   d5b6a:	7c23      	ldrb	r3, [r4, #16]
   d5b6c:	b10b      	cbz	r3, d5b72 <_ZN15Adafruit_BME68014performReadingEv+0x26>
    set_required_settings |= BME680_FILTER_SEL;
   d5b6e:	f040 0010 	orr.w	r0, r0, #16
  if (_gasEnabled)
   d5b72:	7d23      	ldrb	r3, [r4, #20]
   d5b74:	b10b      	cbz	r3, d5b7a <_ZN15Adafruit_BME68014performReadingEv+0x2e>
    set_required_settings |= BME680_GAS_SENSOR_SEL;
   d5b76:	f040 00c8 	orr.w	r0, r0, #200	; 0xc8

  /* Set the desired sensor configuration */
  //Serial.println("Setting sensor settings");
  rslt = bme680_set_sensor_settings(set_required_settings, &gas_sensor);
   d5b7a:	f104 0520 	add.w	r5, r4, #32
   d5b7e:	4629      	mov	r1, r5
   d5b80:	f7fe fcc1 	bl	d4506 <bme680_set_sensor_settings>
  if (rslt != BME680_OK)
   d5b84:	b108      	cbz	r0, d5b8a <_ZN15Adafruit_BME68014performReadingEv+0x3e>
    return false;
   d5b86:	2000      	movs	r0, #0
   d5b88:	e04f      	b.n	d5c2a <_ZN15Adafruit_BME68014performReadingEv+0xde>

  /* Set the power mode */
  //Serial.println("Setting power mode");
  rslt = bme680_set_sensor_mode(&gas_sensor);
   d5b8a:	4628      	mov	r0, r5
   d5b8c:	f7fe fc7c 	bl	d4488 <bme680_set_sensor_mode>
  if (rslt != BME680_OK)
   d5b90:	2800      	cmp	r0, #0
   d5b92:	d1f8      	bne.n	d5b86 <_ZN15Adafruit_BME68014performReadingEv+0x3a>
    return false;

  /* Get the total measurement duration so as to sleep or wait till the
   * measurement is complete */
  uint16_t meas_period;
  bme680_get_profile_dur(&meas_period, &gas_sensor);
   d5b94:	4629      	mov	r1, r5
   d5b96:	f10d 0002 	add.w	r0, sp, #2
   d5b9a:	f7fe fe31 	bl	d4800 <bme680_get_profile_dur>
  //Serial.print("Waiting (ms) "); Serial.println(meas_period);
  delay(meas_period * 2); /* Delay till the measurement is ready */
   d5b9e:	f8bd 0002 	ldrh.w	r0, [sp, #2]
   d5ba2:	0040      	lsls	r0, r0, #1
   d5ba4:	f000 fb72 	bl	d628c <delay>

  //Serial.print("t_fine = "); Serial.println(gas_sensor.calib.t_fine);

  //Serial.println("Getting sensor data");
  rslt = bme680_get_sensor_data(&data, &gas_sensor);
   d5ba8:	4629      	mov	r1, r5
   d5baa:	a801      	add	r0, sp, #4
   d5bac:	f7fe fe5c 	bl	d4868 <bme680_get_sensor_data>
  if (rslt != BME680_OK)
   d5bb0:	2800      	cmp	r0, #0
   d5bb2:	d1e8      	bne.n	d5b86 <_ZN15Adafruit_BME68014performReadingEv+0x3a>
    return false;

  if (_tempEnabled) {
   d5bb4:	7c63      	ldrb	r3, [r4, #17]
   d5bb6:	b15b      	cbz	r3, d5bd0 <_ZN15Adafruit_BME68014performReadingEv+0x84>
    //Serial.print("Temp: "); Serial.println(data.temperature / 100.0, 2);
    temperature = data.temperature / 100.0;
   d5bb8:	f9bd 0008 	ldrsh.w	r0, [sp, #8]
   d5bbc:	f002 f946 	bl	d7e4c <__aeabi_i2d>
   d5bc0:	2200      	movs	r2, #0
   d5bc2:	4b1b      	ldr	r3, [pc, #108]	; (d5c30 <_ZN15Adafruit_BME68014performReadingEv+0xe4>)
   d5bc4:	f002 fad2 	bl	d816c <__aeabi_ddiv>
   d5bc8:	f002 fc88 	bl	d84dc <__aeabi_d2f>
   d5bcc:	6020      	str	r0, [r4, #0]
   d5bce:	e001      	b.n	d5bd4 <_ZN15Adafruit_BME68014performReadingEv+0x88>
  } else {
    temperature = NAN;
   d5bd0:	4b18      	ldr	r3, [pc, #96]	; (d5c34 <_ZN15Adafruit_BME68014performReadingEv+0xe8>)
   d5bd2:	6023      	str	r3, [r4, #0]
  }

  if (_humEnabled) {
   d5bd4:	7ca3      	ldrb	r3, [r4, #18]
   d5bd6:	b153      	cbz	r3, d5bee <_ZN15Adafruit_BME68014performReadingEv+0xa2>
    //Serial.print("Hum:  "); Serial.println(data.humidity / 1000.0, 2);
    humidity = data.humidity / 1000.0;
   d5bd8:	9804      	ldr	r0, [sp, #16]
   d5bda:	f002 f927 	bl	d7e2c <__aeabi_ui2d>
   d5bde:	2200      	movs	r2, #0
   d5be0:	4b15      	ldr	r3, [pc, #84]	; (d5c38 <_ZN15Adafruit_BME68014performReadingEv+0xec>)
   d5be2:	f002 fac3 	bl	d816c <__aeabi_ddiv>
   d5be6:	f002 fc79 	bl	d84dc <__aeabi_d2f>
   d5bea:	60a0      	str	r0, [r4, #8]
   d5bec:	e001      	b.n	d5bf2 <_ZN15Adafruit_BME68014performReadingEv+0xa6>
  } else {
    humidity = NAN;
   d5bee:	4b11      	ldr	r3, [pc, #68]	; (d5c34 <_ZN15Adafruit_BME68014performReadingEv+0xe8>)
   d5bf0:	60a3      	str	r3, [r4, #8]
  }

  if (_presEnabled) {
   d5bf2:	7ce3      	ldrb	r3, [r4, #19]
   d5bf4:	b133      	cbz	r3, d5c04 <_ZN15Adafruit_BME68014performReadingEv+0xb8>
    //Serial.print("Pres: "); Serial.println(data.pressure / 100.0, 2);
    pressure = data.pressure;
   d5bf6:	eddd 7a03 	vldr	s15, [sp, #12]
   d5bfa:	eef8 7a67 	vcvt.f32.u32	s15, s15
   d5bfe:	edc4 7a01 	vstr	s15, [r4, #4]
   d5c02:	e001      	b.n	d5c08 <_ZN15Adafruit_BME68014performReadingEv+0xbc>
  } else {
    pressure = NAN;
   d5c04:	4b0b      	ldr	r3, [pc, #44]	; (d5c34 <_ZN15Adafruit_BME68014performReadingEv+0xe8>)
   d5c06:	6063      	str	r3, [r4, #4]
  }

  /* Avoid using measurements from an unstable heating setup */
  if (_gasEnabled) {
   d5c08:	7d20      	ldrb	r0, [r4, #20]
   d5c0a:	b168      	cbz	r0, d5c28 <_ZN15Adafruit_BME68014performReadingEv+0xdc>
    if (data.status & BME680_HEAT_STAB_MSK) {
   d5c0c:	f89d 3004 	ldrb.w	r3, [sp, #4]
   d5c10:	06db      	lsls	r3, r3, #27
      //Serial.print("Gas resistance: "); Serial.println(data.gas_resistance);
      gas_resistance = data.gas_resistance;
   d5c12:	bf45      	ittet	mi
   d5c14:	eddd 7a05 	vldrmi	s15, [sp, #20]
   d5c18:	eef8 7a67 	vcvtmi.f32.u32	s15, s15
    } else {
      gas_resistance = 0;
   d5c1c:	2300      	movpl	r3, #0

  /* Avoid using measurements from an unstable heating setup */
  if (_gasEnabled) {
    if (data.status & BME680_HEAT_STAB_MSK) {
      //Serial.print("Gas resistance: "); Serial.println(data.gas_resistance);
      gas_resistance = data.gas_resistance;
   d5c1e:	edc4 7a03 	vstrmi	s15, [r4, #12]
    } else {
      gas_resistance = 0;
   d5c22:	bf58      	it	pl
   d5c24:	60e3      	strpl	r3, [r4, #12]
   d5c26:	e000      	b.n	d5c2a <_ZN15Adafruit_BME68014performReadingEv+0xde>
      //Serial.println("Gas reading unstable!");
    }
  }

  return true;
   d5c28:	2001      	movs	r0, #1
}
   d5c2a:	b007      	add	sp, #28
   d5c2c:	bd30      	pop	{r4, r5, pc}
   d5c2e:	bf00      	nop
   d5c30:	40590000 	.word	0x40590000
   d5c34:	7fc00000 	.word	0x7fc00000
   d5c38:	408f4000 	.word	0x408f4000

000d5c3c <_ZN15Adafruit_BME68012setGasHeaterEtt>:
    @param  heaterTime Time to keep heater on in milliseconds
    @return True on success, False on failure
*/
/**************************************************************************/
bool Adafruit_BME680::setGasHeater(uint16_t heaterTemp, uint16_t heaterTime) {
  gas_sensor.gas_sett.heatr_temp = heaterTemp;
   d5c3c:	f8a0 1060 	strh.w	r1, [r0, #96]	; 0x60
  gas_sensor.gas_sett.heatr_dur = heaterTime;
   d5c40:	f8a0 2062 	strh.w	r2, [r0, #98]	; 0x62

  if ( (heaterTemp == 0) || (heaterTime == 0) ) {
   d5c44:	b101      	cbz	r1, d5c48 <_ZN15Adafruit_BME68012setGasHeaterEtt+0xc>
   d5c46:	b90a      	cbnz	r2, d5c4c <_ZN15Adafruit_BME68012setGasHeaterEtt+0x10>
    // disabled!
    gas_sensor.gas_sett.run_gas = BME680_DISABLE_GAS_MEAS;
   d5c48:	2300      	movs	r3, #0
   d5c4a:	e000      	b.n	d5c4e <_ZN15Adafruit_BME68012setGasHeaterEtt+0x12>
    _gasEnabled = false;
  } else {
    gas_sensor.gas_sett.run_gas = BME680_ENABLE_GAS_MEAS;
   d5c4c:	2301      	movs	r3, #1
   d5c4e:	f880 305e 	strb.w	r3, [r0, #94]	; 0x5e
    _gasEnabled = true;
   d5c52:	7503      	strb	r3, [r0, #20]
  }
  return true;
}
   d5c54:	2001      	movs	r0, #1
   d5c56:	4770      	bx	lr

000d5c58 <_ZN15Adafruit_BME68026setTemperatureOversamplingEh>:
    @return True on success, False on failure
*/
/**************************************************************************/

bool Adafruit_BME680::setTemperatureOversampling(uint8_t oversample) {
  if (oversample > BME680_OS_16X) return false;
   d5c58:	2905      	cmp	r1, #5
    BME680_OS_1X, BME680_OS_2X, BME680_OS_4X, BME680_OS_8X or BME680_OS_16X
    @return True on success, False on failure
*/
/**************************************************************************/

bool Adafruit_BME680::setTemperatureOversampling(uint8_t oversample) {
   d5c5a:	4603      	mov	r3, r0
  if (oversample > BME680_OS_16X) return false;
   d5c5c:	d807      	bhi.n	d5c6e <_ZN15Adafruit_BME68026setTemperatureOversamplingEh+0x16>

  gas_sensor.tph_sett.os_temp = oversample;
   d5c5e:	f880 1059 	strb.w	r1, [r0, #89]	; 0x59
   d5c62:	2001      	movs	r0, #1

  if (oversample == BME680_OS_NONE)
   d5c64:	b909      	cbnz	r1, d5c6a <_ZN15Adafruit_BME68026setTemperatureOversamplingEh+0x12>
    _tempEnabled = false;
   d5c66:	7459      	strb	r1, [r3, #17]
   d5c68:	4770      	bx	lr
  else
    _tempEnabled = true;
   d5c6a:	7458      	strb	r0, [r3, #17]
   d5c6c:	4770      	bx	lr
    @return True on success, False on failure
*/
/**************************************************************************/

bool Adafruit_BME680::setTemperatureOversampling(uint8_t oversample) {
  if (oversample > BME680_OS_16X) return false;
   d5c6e:	2000      	movs	r0, #0
    _tempEnabled = false;
  else
    _tempEnabled = true;

  return true;
}
   d5c70:	4770      	bx	lr

000d5c72 <_ZN15Adafruit_BME68023setHumidityOversamplingEh>:
    @return True on success, False on failure
*/
/**************************************************************************/

bool Adafruit_BME680::setHumidityOversampling(uint8_t oversample) {
  if (oversample > BME680_OS_16X) return false;
   d5c72:	2905      	cmp	r1, #5
    BME680_OS_1X, BME680_OS_2X, BME680_OS_4X, BME680_OS_8X or BME680_OS_16X
    @return True on success, False on failure
*/
/**************************************************************************/

bool Adafruit_BME680::setHumidityOversampling(uint8_t oversample) {
   d5c74:	4603      	mov	r3, r0
  if (oversample > BME680_OS_16X) return false;
   d5c76:	d807      	bhi.n	d5c88 <_ZN15Adafruit_BME68023setHumidityOversamplingEh+0x16>

  gas_sensor.tph_sett.os_hum = oversample;
   d5c78:	f880 1058 	strb.w	r1, [r0, #88]	; 0x58
   d5c7c:	2001      	movs	r0, #1

  if (oversample == BME680_OS_NONE)
   d5c7e:	b909      	cbnz	r1, d5c84 <_ZN15Adafruit_BME68023setHumidityOversamplingEh+0x12>
    _humEnabled = false;
   d5c80:	7499      	strb	r1, [r3, #18]
   d5c82:	4770      	bx	lr
  else
    _humEnabled = true;
   d5c84:	7498      	strb	r0, [r3, #18]
   d5c86:	4770      	bx	lr
    @return True on success, False on failure
*/
/**************************************************************************/

bool Adafruit_BME680::setHumidityOversampling(uint8_t oversample) {
  if (oversample > BME680_OS_16X) return false;
   d5c88:	2000      	movs	r0, #0
    _humEnabled = false;
  else
    _humEnabled = true;

  return true;
}
   d5c8a:	4770      	bx	lr

000d5c8c <_ZN15Adafruit_BME68023setPressureOversamplingEh>:
    BME680_OS_1X, BME680_OS_2X, BME680_OS_4X, BME680_OS_8X or BME680_OS_16X
    @return True on success, False on failure
*/
/**************************************************************************/
bool Adafruit_BME680::setPressureOversampling(uint8_t oversample) {
  if (oversample > BME680_OS_16X) return false;
   d5c8c:	2905      	cmp	r1, #5
    @param  oversample Oversampling setting, can be BME680_OS_NONE (turn off Pressure reading),
    BME680_OS_1X, BME680_OS_2X, BME680_OS_4X, BME680_OS_8X or BME680_OS_16X
    @return True on success, False on failure
*/
/**************************************************************************/
bool Adafruit_BME680::setPressureOversampling(uint8_t oversample) {
   d5c8e:	4603      	mov	r3, r0
  if (oversample > BME680_OS_16X) return false;
   d5c90:	d807      	bhi.n	d5ca2 <_ZN15Adafruit_BME68023setPressureOversamplingEh+0x16>

  gas_sensor.tph_sett.os_pres = oversample;
   d5c92:	f880 105a 	strb.w	r1, [r0, #90]	; 0x5a
   d5c96:	2001      	movs	r0, #1

  if (oversample == BME680_OS_NONE)
   d5c98:	b909      	cbnz	r1, d5c9e <_ZN15Adafruit_BME68023setPressureOversamplingEh+0x12>
    _presEnabled = false;
   d5c9a:	74d9      	strb	r1, [r3, #19]
   d5c9c:	4770      	bx	lr
  else
    _presEnabled = true;
   d5c9e:	74d8      	strb	r0, [r3, #19]
   d5ca0:	4770      	bx	lr
    BME680_OS_1X, BME680_OS_2X, BME680_OS_4X, BME680_OS_8X or BME680_OS_16X
    @return True on success, False on failure
*/
/**************************************************************************/
bool Adafruit_BME680::setPressureOversampling(uint8_t oversample) {
  if (oversample > BME680_OS_16X) return false;
   d5ca2:	2000      	movs	r0, #0
    _presEnabled = false;
  else
    _presEnabled = true;

  return true;
}
   d5ca4:	4770      	bx	lr

000d5ca6 <_ZN15Adafruit_BME68016setIIRFilterSizeEh>:
    @return True on success, False on failure

*/
/**************************************************************************/
bool Adafruit_BME680::setIIRFilterSize(uint8_t filtersize) {
  if (filtersize > BME680_FILTER_SIZE_127) return false;
   d5ca6:	2907      	cmp	r1, #7
    @param filtersize Size of the filter (in samples). Can be BME680_FILTER_SIZE_0 (no filtering), BME680_FILTER_SIZE_1, BME680_FILTER_SIZE_3, BME680_FILTER_SIZE_7, BME680_FILTER_SIZE_15, BME680_FILTER_SIZE_31, BME680_FILTER_SIZE_63, BME680_FILTER_SIZE_127
    @return True on success, False on failure

*/
/**************************************************************************/
bool Adafruit_BME680::setIIRFilterSize(uint8_t filtersize) {
   d5ca8:	4603      	mov	r3, r0
  if (filtersize > BME680_FILTER_SIZE_127) return false;
   d5caa:	d807      	bhi.n	d5cbc <_ZN15Adafruit_BME68016setIIRFilterSizeEh+0x16>

  gas_sensor.tph_sett.filter = filtersize;
   d5cac:	f880 105b 	strb.w	r1, [r0, #91]	; 0x5b
   d5cb0:	2001      	movs	r0, #1

  if (filtersize == BME680_FILTER_SIZE_0)
   d5cb2:	b909      	cbnz	r1, d5cb8 <_ZN15Adafruit_BME68016setIIRFilterSizeEh+0x12>
    _filterEnabled = false;
   d5cb4:	7419      	strb	r1, [r3, #16]
   d5cb6:	4770      	bx	lr
  else
    _filterEnabled = true;
   d5cb8:	7418      	strb	r0, [r3, #16]
   d5cba:	4770      	bx	lr
    @return True on success, False on failure

*/
/**************************************************************************/
bool Adafruit_BME680::setIIRFilterSize(uint8_t filtersize) {
  if (filtersize > BME680_FILTER_SIZE_127) return false;
   d5cbc:	2000      	movs	r0, #0
    _filterEnabled = false;
  else
    _filterEnabled = true;

  return true;
}
   d5cbe:	4770      	bx	lr

000d5cc0 <_GLOBAL__sub_I__BME680_SoftwareSPI_MOSI>:
   d5cc0:	f000 b860 	b.w	d5d84 <HAL_Pin_Map>

000d5cc4 <os_thread_is_current>:
DYNALIB_BEGIN(hal_concurrent)

#if PLATFORM_THREADING
DYNALIB_FN(0, hal_concurrent, __gthread_equal, bool(__gthread_t, __gthread_t))
DYNALIB_FN(1, hal_concurrent, os_thread_create, os_result_t(os_thread_t*, const char*, os_thread_prio_t, os_thread_fn_t, void*, size_t))
DYNALIB_FN(2, hal_concurrent, os_thread_is_current, bool(os_thread_t))
   d5cc4:	b508      	push	{r3, lr}
   d5cc6:	4b02      	ldr	r3, [pc, #8]	; (d5cd0 <os_thread_is_current+0xc>)
   d5cc8:	681b      	ldr	r3, [r3, #0]
   d5cca:	689b      	ldr	r3, [r3, #8]
   d5ccc:	9301      	str	r3, [sp, #4]
   d5cce:	bd08      	pop	{r3, pc}
   d5cd0:	00030248 	.word	0x00030248

000d5cd4 <os_thread_join>:
DYNALIB_FN(3, hal_concurrent, os_thread_yield, os_result_t(void))
DYNALIB_FN(4, hal_concurrent, os_thread_join, os_result_t(os_thread_t))
   d5cd4:	b508      	push	{r3, lr}
   d5cd6:	4b02      	ldr	r3, [pc, #8]	; (d5ce0 <os_thread_join+0xc>)
   d5cd8:	681b      	ldr	r3, [r3, #0]
   d5cda:	691b      	ldr	r3, [r3, #16]
   d5cdc:	9301      	str	r3, [sp, #4]
   d5cde:	bd08      	pop	{r3, pc}
   d5ce0:	00030248 	.word	0x00030248

000d5ce4 <os_thread_cleanup>:
DYNALIB_FN(5, hal_concurrent, os_thread_cleanup, os_result_t(os_thread_t))
   d5ce4:	b508      	push	{r3, lr}
   d5ce6:	4b02      	ldr	r3, [pc, #8]	; (d5cf0 <os_thread_cleanup+0xc>)
   d5ce8:	681b      	ldr	r3, [r3, #0]
   d5cea:	695b      	ldr	r3, [r3, #20]
   d5cec:	9301      	str	r3, [sp, #4]
   d5cee:	bd08      	pop	{r3, pc}
   d5cf0:	00030248 	.word	0x00030248

000d5cf4 <os_mutex_recursive_create>:
DYNALIB_FN(13, hal_concurrent, os_mutex_destroy, int(os_mutex_t))
DYNALIB_FN(14, hal_concurrent, os_mutex_lock, int(os_mutex_t))
DYNALIB_FN(15, hal_concurrent, os_mutex_trylock, int(os_mutex_t))
DYNALIB_FN(16, hal_concurrent, os_mutex_unlock, int(os_mutex_t))

DYNALIB_FN(17, hal_concurrent, os_mutex_recursive_create, int(os_mutex_recursive_t*))
   d5cf4:	b508      	push	{r3, lr}
   d5cf6:	4b02      	ldr	r3, [pc, #8]	; (d5d00 <os_mutex_recursive_create+0xc>)
   d5cf8:	681b      	ldr	r3, [r3, #0]
   d5cfa:	6c5b      	ldr	r3, [r3, #68]	; 0x44
   d5cfc:	9301      	str	r3, [sp, #4]
   d5cfe:	bd08      	pop	{r3, pc}
   d5d00:	00030248 	.word	0x00030248

000d5d04 <os_mutex_recursive_destroy>:
DYNALIB_FN(18, hal_concurrent, os_mutex_recursive_destroy, int(os_mutex_recursive_t))
   d5d04:	b508      	push	{r3, lr}
   d5d06:	4b02      	ldr	r3, [pc, #8]	; (d5d10 <os_mutex_recursive_destroy+0xc>)
   d5d08:	681b      	ldr	r3, [r3, #0]
   d5d0a:	6c9b      	ldr	r3, [r3, #72]	; 0x48
   d5d0c:	9301      	str	r3, [sp, #4]
   d5d0e:	bd08      	pop	{r3, pc}
   d5d10:	00030248 	.word	0x00030248

000d5d14 <HAL_Feature_Set>:
DYNALIB_FN(20, hal_core, HAL_Core_System_Reset_FlagSet, bool(RESET_TypeDef))
DYNALIB_FN(21, hal_core, HAL_Core_Runtime_Info, uint32_t(runtime_info_t*, void*))
DYNALIB_FN(22, hal_core, HAL_Set_System_Config, int(hal_system_config_t, const void*, unsigned))
DYNALIB_FN(23, hal_core, HAL_Core_Enter_Safe_Mode, void(void*))
DYNALIB_FN(24, hal_core, HAL_Feature_Get, bool(HAL_Feature))
DYNALIB_FN(25, hal_core, HAL_Feature_Set, int(HAL_Feature, bool))
   d5d14:	b508      	push	{r3, lr}
   d5d16:	4b02      	ldr	r3, [pc, #8]	; (d5d20 <HAL_Feature_Set+0xc>)
   d5d18:	681b      	ldr	r3, [r3, #0]
   d5d1a:	6e5b      	ldr	r3, [r3, #100]	; 0x64
   d5d1c:	9301      	str	r3, [sp, #4]
   d5d1e:	bd08      	pop	{r3, pc}
   d5d20:	00030234 	.word	0x00030234

000d5d24 <HAL_Core_System_Reset_Ex>:
DYNALIB_FN(26, hal_core, HAL_Core_System_Reset_Ex, void(int, uint32_t, void*))
   d5d24:	b508      	push	{r3, lr}
   d5d26:	4b02      	ldr	r3, [pc, #8]	; (d5d30 <HAL_Core_System_Reset_Ex+0xc>)
   d5d28:	681b      	ldr	r3, [r3, #0]
   d5d2a:	6e9b      	ldr	r3, [r3, #104]	; 0x68
   d5d2c:	9301      	str	r3, [sp, #4]
   d5d2e:	bd08      	pop	{r3, pc}
   d5d30:	00030234 	.word	0x00030234

000d5d34 <HAL_RNG_GetRandomNumber>:

DYNALIB_BEGIN(hal)

#if PLATFORM_ID > 3
DYNALIB_FN(0, hal, HAL_RNG_Configuration, void(void))
DYNALIB_FN(1, hal, HAL_RNG_GetRandomNumber, uint32_t(void))
   d5d34:	b508      	push	{r3, lr}
   d5d36:	4b02      	ldr	r3, [pc, #8]	; (d5d40 <HAL_RNG_GetRandomNumber+0xc>)
   d5d38:	681b      	ldr	r3, [r3, #0]
   d5d3a:	685b      	ldr	r3, [r3, #4]
   d5d3c:	9301      	str	r3, [sp, #4]
   d5d3e:	bd08      	pop	{r3, pc}
   d5d40:	00030218 	.word	0x00030218

000d5d44 <HAL_Timer_Get_Milli_Seconds>:
#endif

DYNALIB_FN(BASE_IDX + 0, hal, HAL_Delay_Milliseconds, void(uint32_t))
DYNALIB_FN(BASE_IDX + 1, hal, HAL_Delay_Microseconds, void(uint32_t))
DYNALIB_FN(BASE_IDX + 2, hal, HAL_Timer_Get_Micro_Seconds, system_tick_t(void))
DYNALIB_FN(BASE_IDX + 3, hal, HAL_Timer_Get_Milli_Seconds, system_tick_t(void))
   d5d44:	b508      	push	{r3, lr}
   d5d46:	4b02      	ldr	r3, [pc, #8]	; (d5d50 <HAL_Timer_Get_Milli_Seconds+0xc>)
   d5d48:	681b      	ldr	r3, [r3, #0]
   d5d4a:	695b      	ldr	r3, [r3, #20]
   d5d4c:	9301      	str	r3, [sp, #4]
   d5d4e:	bd08      	pop	{r3, pc}
   d5d50:	00030218 	.word	0x00030218

000d5d54 <HAL_RTC_Get_UnixTime>:

DYNALIB_FN(BASE_IDX + 4, hal, HAL_RTC_Configuration, void(void))
DYNALIB_FN(BASE_IDX + 5, hal, HAL_RTC_Get_UnixTime, time_t(void))
   d5d54:	b508      	push	{r3, lr}
   d5d56:	4b02      	ldr	r3, [pc, #8]	; (d5d60 <HAL_RTC_Get_UnixTime+0xc>)
   d5d58:	681b      	ldr	r3, [r3, #0]
   d5d5a:	69db      	ldr	r3, [r3, #28]
   d5d5c:	9301      	str	r3, [sp, #4]
   d5d5e:	bd08      	pop	{r3, pc}
   d5d60:	00030218 	.word	0x00030218

000d5d64 <HAL_RTC_Time_Is_Valid>:
DYNALIB_FN(BASE_IDX + 15, hal,HAL_EEPROM_Get, void(uint32_t, void *, size_t))
DYNALIB_FN(BASE_IDX + 16, hal,HAL_EEPROM_Put, void(uint32_t, const void *, size_t))
DYNALIB_FN(BASE_IDX + 17, hal,HAL_EEPROM_Clear, void(void))
DYNALIB_FN(BASE_IDX + 18, hal,HAL_EEPROM_Has_Pending_Erase, bool(void))
DYNALIB_FN(BASE_IDX + 19, hal,HAL_EEPROM_Perform_Pending_Erase, void(void))
DYNALIB_FN(BASE_IDX + 20, hal, HAL_RTC_Time_Is_Valid, uint8_t(void*))
   d5d64:	b508      	push	{r3, lr}
   d5d66:	4b02      	ldr	r3, [pc, #8]	; (d5d70 <HAL_RTC_Time_Is_Valid+0xc>)
   d5d68:	681b      	ldr	r3, [r3, #0]
   d5d6a:	6d9b      	ldr	r3, [r3, #88]	; 0x58
   d5d6c:	9301      	str	r3, [sp, #4]
   d5d6e:	bd08      	pop	{r3, pc}
   d5d70:	00030218 	.word	0x00030218

000d5d74 <hal_timer_millis>:

DYNALIB_FN(BASE_IDX + 21, hal, hal_timer_millis, uint64_t(void*))
   d5d74:	b508      	push	{r3, lr}
   d5d76:	4b02      	ldr	r3, [pc, #8]	; (d5d80 <hal_timer_millis+0xc>)
   d5d78:	681b      	ldr	r3, [r3, #0]
   d5d7a:	6ddb      	ldr	r3, [r3, #92]	; 0x5c
   d5d7c:	9301      	str	r3, [sp, #4]
   d5d7e:	bd08      	pop	{r3, pc}
   d5d80:	00030218 	.word	0x00030218

000d5d84 <HAL_Pin_Map>:
// New HAL functions must be added to the end of this list.
// GNINRAW

DYNALIB_BEGIN(hal_gpio)

DYNALIB_FN(0, hal_gpio, HAL_Pin_Map, Hal_Pin_Info*(void))
   d5d84:	b508      	push	{r3, lr}
   d5d86:	4b02      	ldr	r3, [pc, #8]	; (d5d90 <HAL_Pin_Map+0xc>)
   d5d88:	681b      	ldr	r3, [r3, #0]
   d5d8a:	681b      	ldr	r3, [r3, #0]
   d5d8c:	9301      	str	r3, [sp, #4]
   d5d8e:	bd08      	pop	{r3, pc}
   d5d90:	0003022c 	.word	0x0003022c

000d5d94 <HAL_Pin_Mode>:
DYNALIB_FN(1, hal_gpio, HAL_Validate_Pin_Function, PinFunction(pin_t, PinFunction))
DYNALIB_FN(2, hal_gpio, HAL_Pin_Mode, void(pin_t, PinMode))
   d5d94:	b508      	push	{r3, lr}
   d5d96:	4b02      	ldr	r3, [pc, #8]	; (d5da0 <HAL_Pin_Mode+0xc>)
   d5d98:	681b      	ldr	r3, [r3, #0]
   d5d9a:	689b      	ldr	r3, [r3, #8]
   d5d9c:	9301      	str	r3, [sp, #4]
   d5d9e:	bd08      	pop	{r3, pc}
   d5da0:	0003022c 	.word	0x0003022c

000d5da4 <HAL_Get_Pin_Mode>:
DYNALIB_FN(3, hal_gpio, HAL_Get_Pin_Mode, PinMode(pin_t))
   d5da4:	b508      	push	{r3, lr}
   d5da6:	4b02      	ldr	r3, [pc, #8]	; (d5db0 <HAL_Get_Pin_Mode+0xc>)
   d5da8:	681b      	ldr	r3, [r3, #0]
   d5daa:	68db      	ldr	r3, [r3, #12]
   d5dac:	9301      	str	r3, [sp, #4]
   d5dae:	bd08      	pop	{r3, pc}
   d5db0:	0003022c 	.word	0x0003022c

000d5db4 <HAL_GPIO_Write>:
DYNALIB_FN(4, hal_gpio, HAL_GPIO_Write, void(pin_t, uint8_t))
   d5db4:	b508      	push	{r3, lr}
   d5db6:	4b02      	ldr	r3, [pc, #8]	; (d5dc0 <HAL_GPIO_Write+0xc>)
   d5db8:	681b      	ldr	r3, [r3, #0]
   d5dba:	691b      	ldr	r3, [r3, #16]
   d5dbc:	9301      	str	r3, [sp, #4]
   d5dbe:	bd08      	pop	{r3, pc}
   d5dc0:	0003022c 	.word	0x0003022c

000d5dc4 <HAL_GPIO_Read>:
DYNALIB_FN(5, hal_gpio, HAL_GPIO_Read, int32_t(pin_t))
   d5dc4:	b508      	push	{r3, lr}
   d5dc6:	4b02      	ldr	r3, [pc, #8]	; (d5dd0 <HAL_GPIO_Read+0xc>)
   d5dc8:	681b      	ldr	r3, [r3, #0]
   d5dca:	695b      	ldr	r3, [r3, #20]
   d5dcc:	9301      	str	r3, [sp, #4]
   d5dce:	bd08      	pop	{r3, pc}
   d5dd0:	0003022c 	.word	0x0003022c

000d5dd4 <HAL_I2C_Begin>:
#endif

DYNALIB_FN(BASE_IDX + 0, hal_i2c, HAL_I2C_Set_Speed, void(HAL_I2C_Interface, uint32_t, void*))
DYNALIB_FN(BASE_IDX + 1, hal_i2c, HAL_I2C_Enable_DMA_Mode, void(HAL_I2C_Interface, bool, void*))
DYNALIB_FN(BASE_IDX + 2, hal_i2c, HAL_I2C_Stretch_Clock, void(HAL_I2C_Interface, bool, void*))
DYNALIB_FN(BASE_IDX + 3, hal_i2c, HAL_I2C_Begin, void(HAL_I2C_Interface, I2C_Mode, uint8_t, void*))
   d5dd4:	b508      	push	{r3, lr}
   d5dd6:	4b02      	ldr	r3, [pc, #8]	; (d5de0 <HAL_I2C_Begin+0xc>)
   d5dd8:	681b      	ldr	r3, [r3, #0]
   d5dda:	68db      	ldr	r3, [r3, #12]
   d5ddc:	9301      	str	r3, [sp, #4]
   d5dde:	bd08      	pop	{r3, pc}
   d5de0:	00030228 	.word	0x00030228

000d5de4 <HAL_I2C_Begin_Transmission>:
DYNALIB_FN(BASE_IDX + 4, hal_i2c, HAL_I2C_End, void(HAL_I2C_Interface, void*))
DYNALIB_FN(BASE_IDX + 5, hal_i2c, HAL_I2C_Request_Data, uint32_t(HAL_I2C_Interface, uint8_t, uint8_t, uint8_t, void*))
DYNALIB_FN(BASE_IDX + 6, hal_i2c, HAL_I2C_Begin_Transmission, void(HAL_I2C_Interface, uint8_t, const HAL_I2C_Transmission_Config*))
   d5de4:	b508      	push	{r3, lr}
   d5de6:	4b02      	ldr	r3, [pc, #8]	; (d5df0 <HAL_I2C_Begin_Transmission+0xc>)
   d5de8:	681b      	ldr	r3, [r3, #0]
   d5dea:	699b      	ldr	r3, [r3, #24]
   d5dec:	9301      	str	r3, [sp, #4]
   d5dee:	bd08      	pop	{r3, pc}
   d5df0:	00030228 	.word	0x00030228

000d5df4 <HAL_I2C_End_Transmission>:
DYNALIB_FN(BASE_IDX + 7, hal_i2c, HAL_I2C_End_Transmission, uint8_t(HAL_I2C_Interface, uint8_t, void*))
   d5df4:	b508      	push	{r3, lr}
   d5df6:	4b02      	ldr	r3, [pc, #8]	; (d5e00 <HAL_I2C_End_Transmission+0xc>)
   d5df8:	681b      	ldr	r3, [r3, #0]
   d5dfa:	69db      	ldr	r3, [r3, #28]
   d5dfc:	9301      	str	r3, [sp, #4]
   d5dfe:	bd08      	pop	{r3, pc}
   d5e00:	00030228 	.word	0x00030228

000d5e04 <HAL_I2C_Write_Data>:
DYNALIB_FN(BASE_IDX + 8, hal_i2c, HAL_I2C_Write_Data, uint32_t(HAL_I2C_Interface, uint8_t, void*))
   d5e04:	b508      	push	{r3, lr}
   d5e06:	4b02      	ldr	r3, [pc, #8]	; (d5e10 <HAL_I2C_Write_Data+0xc>)
   d5e08:	681b      	ldr	r3, [r3, #0]
   d5e0a:	6a1b      	ldr	r3, [r3, #32]
   d5e0c:	9301      	str	r3, [sp, #4]
   d5e0e:	bd08      	pop	{r3, pc}
   d5e10:	00030228 	.word	0x00030228

000d5e14 <HAL_I2C_Available_Data>:
DYNALIB_FN(BASE_IDX + 9, hal_i2c, HAL_I2C_Available_Data, int32_t(HAL_I2C_Interface, void*))
   d5e14:	b508      	push	{r3, lr}
   d5e16:	4b02      	ldr	r3, [pc, #8]	; (d5e20 <HAL_I2C_Available_Data+0xc>)
   d5e18:	681b      	ldr	r3, [r3, #0]
   d5e1a:	6a5b      	ldr	r3, [r3, #36]	; 0x24
   d5e1c:	9301      	str	r3, [sp, #4]
   d5e1e:	bd08      	pop	{r3, pc}
   d5e20:	00030228 	.word	0x00030228

000d5e24 <HAL_I2C_Read_Data>:
DYNALIB_FN(BASE_IDX + 10, hal_i2c, HAL_I2C_Read_Data, int32_t(HAL_I2C_Interface, void*))
   d5e24:	b508      	push	{r3, lr}
   d5e26:	4b02      	ldr	r3, [pc, #8]	; (d5e30 <HAL_I2C_Read_Data+0xc>)
   d5e28:	681b      	ldr	r3, [r3, #0]
   d5e2a:	6a9b      	ldr	r3, [r3, #40]	; 0x28
   d5e2c:	9301      	str	r3, [sp, #4]
   d5e2e:	bd08      	pop	{r3, pc}
   d5e30:	00030228 	.word	0x00030228

000d5e34 <HAL_I2C_Peek_Data>:
DYNALIB_FN(BASE_IDX + 11, hal_i2c, HAL_I2C_Peek_Data, int32_t(HAL_I2C_Interface, void*))
   d5e34:	b508      	push	{r3, lr}
   d5e36:	4b02      	ldr	r3, [pc, #8]	; (d5e40 <HAL_I2C_Peek_Data+0xc>)
   d5e38:	681b      	ldr	r3, [r3, #0]
   d5e3a:	6adb      	ldr	r3, [r3, #44]	; 0x2c
   d5e3c:	9301      	str	r3, [sp, #4]
   d5e3e:	bd08      	pop	{r3, pc}
   d5e40:	00030228 	.word	0x00030228

000d5e44 <HAL_I2C_Flush_Data>:
DYNALIB_FN(BASE_IDX + 12, hal_i2c, HAL_I2C_Flush_Data, void(HAL_I2C_Interface, void*))
   d5e44:	b508      	push	{r3, lr}
   d5e46:	4b02      	ldr	r3, [pc, #8]	; (d5e50 <HAL_I2C_Flush_Data+0xc>)
   d5e48:	681b      	ldr	r3, [r3, #0]
   d5e4a:	6b1b      	ldr	r3, [r3, #48]	; 0x30
   d5e4c:	9301      	str	r3, [sp, #4]
   d5e4e:	bd08      	pop	{r3, pc}
   d5e50:	00030228 	.word	0x00030228

000d5e54 <HAL_I2C_Is_Enabled>:
DYNALIB_FN(BASE_IDX + 13, hal_i2c, HAL_I2C_Is_Enabled, bool(HAL_I2C_Interface, void*))
   d5e54:	b508      	push	{r3, lr}
   d5e56:	4b02      	ldr	r3, [pc, #8]	; (d5e60 <HAL_I2C_Is_Enabled+0xc>)
   d5e58:	681b      	ldr	r3, [r3, #0]
   d5e5a:	6b5b      	ldr	r3, [r3, #52]	; 0x34
   d5e5c:	9301      	str	r3, [sp, #4]
   d5e5e:	bd08      	pop	{r3, pc}
   d5e60:	00030228 	.word	0x00030228

000d5e64 <HAL_I2C_Init>:
DYNALIB_FN(BASE_IDX + 14, hal_i2c, HAL_I2C_Set_Callback_On_Receive, void(HAL_I2C_Interface, void(*)(int), void*))
DYNALIB_FN(BASE_IDX + 15, hal_i2c, HAL_I2C_Set_Callback_On_Request, void(HAL_I2C_Interface, void(*)(void), void*))
DYNALIB_FN(BASE_IDX + 16, hal_i2c, HAL_I2C_Init, int(HAL_I2C_Interface, const HAL_I2C_Config*))
   d5e64:	b508      	push	{r3, lr}
   d5e66:	4b02      	ldr	r3, [pc, #8]	; (d5e70 <HAL_I2C_Init+0xc>)
   d5e68:	681b      	ldr	r3, [r3, #0]
   d5e6a:	6c1b      	ldr	r3, [r3, #64]	; 0x40
   d5e6c:	9301      	str	r3, [sp, #4]
   d5e6e:	bd08      	pop	{r3, pc}
   d5e70:	00030228 	.word	0x00030228

000d5e74 <HAL_I2C_Request_Data_Ex>:
DYNALIB_FN(BASE_IDX + 17, hal_i2c, HAL_I2C_Reset, uint8_t(HAL_I2C_Interface, uint32_t, void*))
DYNALIB_FN(BASE_IDX + 18, hal_i2c, HAL_I2C_Acquire, int32_t(HAL_I2C_Interface, void*))
DYNALIB_FN(BASE_IDX + 19, hal_i2c, HAL_I2C_Release, int32_t(HAL_I2C_Interface, void*))
DYNALIB_FN(BASE_IDX + 20, hal_i2c, HAL_I2C_Request_Data_Ex, int32_t(HAL_I2C_Interface, const HAL_I2C_Transmission_Config*, void*))
   d5e74:	b508      	push	{r3, lr}
   d5e76:	4b02      	ldr	r3, [pc, #8]	; (d5e80 <HAL_I2C_Request_Data_Ex+0xc>)
   d5e78:	681b      	ldr	r3, [r3, #0]
   d5e7a:	6d1b      	ldr	r3, [r3, #80]	; 0x50
   d5e7c:	9301      	str	r3, [sp, #4]
   d5e7e:	bd08      	pop	{r3, pc}
   d5e80:	00030228 	.word	0x00030228

000d5e84 <inet_inet_ntop>:
DYNALIB_FN(0, hal_inet, inet_inet_addr, in_addr_t(const char*))
DYNALIB_FN(1, hal_inet, inet_inet_aton, int(const char*, struct in_addr*))
DYNALIB_FN(2, hal_inet, inet_inet_network, in_addr_t(const char*))
DYNALIB_FN(3, hal_inet, inet_inet_ntoa, char*(struct in_addr))
DYNALIB_FN(4, hal_inet, inet_inet_ntoa_r, char*(struct in_addr, char*, socklen_t))
DYNALIB_FN(5, hal_inet, inet_inet_ntop, const char*(int, const void*, char*, socklen_t))
   d5e84:	b508      	push	{r3, lr}
   d5e86:	4b02      	ldr	r3, [pc, #8]	; (d5e90 <inet_inet_ntop+0xc>)
   d5e88:	681b      	ldr	r3, [r3, #0]
   d5e8a:	695b      	ldr	r3, [r3, #20]
   d5e8c:	9301      	str	r3, [sp, #4]
   d5e8e:	bd08      	pop	{r3, pc}
   d5e90:	00030264 	.word	0x00030264

000d5e94 <netdb_freeaddrinfo>:

DYNALIB_BEGIN(hal_netdb)

DYNALIB_FN(0, hal_netdb, netdb_gethostbyname, struct hostent*(const char*))
DYNALIB_FN(1, hal_netdb, netdb_gethostbyname_r, int(const char*, struct hostent*, char*, size_t, struct hostent**, int*))
DYNALIB_FN(2, hal_netdb, netdb_freeaddrinfo, void(struct addrinfo*))
   d5e94:	b508      	push	{r3, lr}
   d5e96:	4b02      	ldr	r3, [pc, #8]	; (d5ea0 <netdb_freeaddrinfo+0xc>)
   d5e98:	681b      	ldr	r3, [r3, #0]
   d5e9a:	689b      	ldr	r3, [r3, #8]
   d5e9c:	9301      	str	r3, [sp, #4]
   d5e9e:	bd08      	pop	{r3, pc}
   d5ea0:	00030268 	.word	0x00030268

000d5ea4 <netdb_getaddrinfo>:
DYNALIB_FN(3, hal_netdb, netdb_getaddrinfo, int(const char*, const char*, const struct addrinfo*, struct addrinfo**))
   d5ea4:	b508      	push	{r3, lr}
   d5ea6:	4b02      	ldr	r3, [pc, #8]	; (d5eb0 <netdb_getaddrinfo+0xc>)
   d5ea8:	681b      	ldr	r3, [r3, #0]
   d5eaa:	68db      	ldr	r3, [r3, #12]
   d5eac:	9301      	str	r3, [sp, #4]
   d5eae:	bd08      	pop	{r3, pc}
   d5eb0:	00030268 	.word	0x00030268

000d5eb4 <HAL_SPI_Begin>:
// New HAL functions must be added to the end of this list.
// GNINRAW

DYNALIB_BEGIN(hal_spi)

DYNALIB_FN(0, hal_spi, HAL_SPI_Begin, void(HAL_SPI_Interface, uint16_t))
   d5eb4:	b508      	push	{r3, lr}
   d5eb6:	4b02      	ldr	r3, [pc, #8]	; (d5ec0 <HAL_SPI_Begin+0xc>)
   d5eb8:	681b      	ldr	r3, [r3, #0]
   d5eba:	681b      	ldr	r3, [r3, #0]
   d5ebc:	9301      	str	r3, [sp, #4]
   d5ebe:	bd08      	pop	{r3, pc}
   d5ec0:	00030230 	.word	0x00030230

000d5ec4 <HAL_SPI_Set_Bit_Order>:
DYNALIB_FN(1, hal_spi, HAL_SPI_End, void(HAL_SPI_Interface))
DYNALIB_FN(2, hal_spi, HAL_SPI_Set_Bit_Order, void(HAL_SPI_Interface, uint8_t))
   d5ec4:	b508      	push	{r3, lr}
   d5ec6:	4b02      	ldr	r3, [pc, #8]	; (d5ed0 <HAL_SPI_Set_Bit_Order+0xc>)
   d5ec8:	681b      	ldr	r3, [r3, #0]
   d5eca:	689b      	ldr	r3, [r3, #8]
   d5ecc:	9301      	str	r3, [sp, #4]
   d5ece:	bd08      	pop	{r3, pc}
   d5ed0:	00030230 	.word	0x00030230

000d5ed4 <HAL_SPI_Set_Data_Mode>:
DYNALIB_FN(3, hal_spi, HAL_SPI_Set_Data_Mode, void(HAL_SPI_Interface, uint8_t))
   d5ed4:	b508      	push	{r3, lr}
   d5ed6:	4b02      	ldr	r3, [pc, #8]	; (d5ee0 <HAL_SPI_Set_Data_Mode+0xc>)
   d5ed8:	681b      	ldr	r3, [r3, #0]
   d5eda:	68db      	ldr	r3, [r3, #12]
   d5edc:	9301      	str	r3, [sp, #4]
   d5ede:	bd08      	pop	{r3, pc}
   d5ee0:	00030230 	.word	0x00030230

000d5ee4 <HAL_SPI_Set_Clock_Divider>:
DYNALIB_FN(4, hal_spi, HAL_SPI_Set_Clock_Divider, void(HAL_SPI_Interface, uint8_t))
   d5ee4:	b508      	push	{r3, lr}
   d5ee6:	4b02      	ldr	r3, [pc, #8]	; (d5ef0 <HAL_SPI_Set_Clock_Divider+0xc>)
   d5ee8:	681b      	ldr	r3, [r3, #0]
   d5eea:	691b      	ldr	r3, [r3, #16]
   d5eec:	9301      	str	r3, [sp, #4]
   d5eee:	bd08      	pop	{r3, pc}
   d5ef0:	00030230 	.word	0x00030230

000d5ef4 <HAL_SPI_Send_Receive_Data>:
DYNALIB_FN(5, hal_spi, HAL_SPI_Send_Receive_Data, uint16_t(HAL_SPI_Interface, uint16_t))
   d5ef4:	b508      	push	{r3, lr}
   d5ef6:	4b02      	ldr	r3, [pc, #8]	; (d5f00 <HAL_SPI_Send_Receive_Data+0xc>)
   d5ef8:	681b      	ldr	r3, [r3, #0]
   d5efa:	695b      	ldr	r3, [r3, #20]
   d5efc:	9301      	str	r3, [sp, #4]
   d5efe:	bd08      	pop	{r3, pc}
   d5f00:	00030230 	.word	0x00030230

000d5f04 <HAL_SPI_Init>:
DYNALIB_FN(6, hal_spi, HAL_SPI_Is_Enabled_Old, bool(void))
DYNALIB_FN(7, hal_spi, HAL_SPI_Init, void(HAL_SPI_Interface))
   d5f04:	b508      	push	{r3, lr}
   d5f06:	4b02      	ldr	r3, [pc, #8]	; (d5f10 <HAL_SPI_Init+0xc>)
   d5f08:	681b      	ldr	r3, [r3, #0]
   d5f0a:	69db      	ldr	r3, [r3, #28]
   d5f0c:	9301      	str	r3, [sp, #4]
   d5f0e:	bd08      	pop	{r3, pc}
   d5f10:	00030230 	.word	0x00030230

000d5f14 <HAL_SPI_Is_Enabled>:
DYNALIB_FN(8, hal_spi, HAL_SPI_Is_Enabled, bool(HAL_SPI_Interface))
   d5f14:	b508      	push	{r3, lr}
   d5f16:	4b02      	ldr	r3, [pc, #8]	; (d5f20 <HAL_SPI_Is_Enabled+0xc>)
   d5f18:	681b      	ldr	r3, [r3, #0]
   d5f1a:	6a1b      	ldr	r3, [r3, #32]
   d5f1c:	9301      	str	r3, [sp, #4]
   d5f1e:	bd08      	pop	{r3, pc}
   d5f20:	00030230 	.word	0x00030230

000d5f24 <HAL_SPI_Info>:
DYNALIB_FN(9, hal_spi, HAL_SPI_Info, void(HAL_SPI_Interface, hal_spi_info_t*, void*))
   d5f24:	b508      	push	{r3, lr}
   d5f26:	4b02      	ldr	r3, [pc, #8]	; (d5f30 <HAL_SPI_Info+0xc>)
   d5f28:	681b      	ldr	r3, [r3, #0]
   d5f2a:	6a5b      	ldr	r3, [r3, #36]	; 0x24
   d5f2c:	9301      	str	r3, [sp, #4]
   d5f2e:	bd08      	pop	{r3, pc}
   d5f30:	00030230 	.word	0x00030230

000d5f34 <HAL_SPI_Acquire>:
DYNALIB_FN(12, hal_spi, HAL_SPI_Set_Callback_On_Select, void(HAL_SPI_Interface, HAL_SPI_Select_UserCallback, void*))
DYNALIB_FN(13, hal_spi, HAL_SPI_DMA_Transfer_Cancel, void(HAL_SPI_Interface))
DYNALIB_FN(14, hal_spi, HAL_SPI_DMA_Transfer_Status, int32_t(HAL_SPI_Interface, HAL_SPI_TransferStatus*))
DYNALIB_FN(15, hal_spi, HAL_SPI_Set_Settings, int32_t(HAL_SPI_Interface, uint8_t, uint8_t, uint8_t, uint8_t, void*))
#if HAL_PLATFORM_SPI_HAL_THREAD_SAFETY
DYNALIB_FN(16, hal_spi, HAL_SPI_Acquire, int32_t(HAL_SPI_Interface, const HAL_SPI_AcquireConfig*))
   d5f34:	b508      	push	{r3, lr}
   d5f36:	4b02      	ldr	r3, [pc, #8]	; (d5f40 <HAL_SPI_Acquire+0xc>)
   d5f38:	681b      	ldr	r3, [r3, #0]
   d5f3a:	6c1b      	ldr	r3, [r3, #64]	; 0x40
   d5f3c:	9301      	str	r3, [sp, #4]
   d5f3e:	bd08      	pop	{r3, pc}
   d5f40:	00030230 	.word	0x00030230

000d5f44 <HAL_SPI_Release>:
DYNALIB_FN(17, hal_spi, HAL_SPI_Release, int32_t(HAL_SPI_Interface, void*))
   d5f44:	b508      	push	{r3, lr}
   d5f46:	4b02      	ldr	r3, [pc, #8]	; (d5f50 <HAL_SPI_Release+0xc>)
   d5f48:	681b      	ldr	r3, [r3, #0]
   d5f4a:	6c5b      	ldr	r3, [r3, #68]	; 0x44
   d5f4c:	9301      	str	r3, [sp, #4]
   d5f4e:	bd08      	pop	{r3, pc}
   d5f50:	00030230 	.word	0x00030230

000d5f54 <HAL_USART_Init>:
#define BASE_IDX 6 // Base index for all subsequent functions
#else
#define BASE_IDX 0
#endif

DYNALIB_FN(BASE_IDX + 0, hal_usart, HAL_USART_Init, void(HAL_USART_Serial, Ring_Buffer*, Ring_Buffer*))
   d5f54:	b508      	push	{r3, lr}
   d5f56:	4b02      	ldr	r3, [pc, #8]	; (d5f60 <HAL_USART_Init+0xc>)
   d5f58:	681b      	ldr	r3, [r3, #0]
   d5f5a:	681b      	ldr	r3, [r3, #0]
   d5f5c:	9301      	str	r3, [sp, #4]
   d5f5e:	bd08      	pop	{r3, pc}
   d5f60:	0003023c 	.word	0x0003023c

000d5f64 <HAL_USART_Write_Data>:
DYNALIB_FN(BASE_IDX + 1, hal_usart, HAL_USART_Begin, void(HAL_USART_Serial, uint32_t))
DYNALIB_FN(BASE_IDX + 2, hal_usart, HAL_USART_End, void(HAL_USART_Serial))
DYNALIB_FN(BASE_IDX + 3, hal_usart, HAL_USART_Write_Data, uint32_t(HAL_USART_Serial, uint8_t))
   d5f64:	b508      	push	{r3, lr}
   d5f66:	4b02      	ldr	r3, [pc, #8]	; (d5f70 <HAL_USART_Write_Data+0xc>)
   d5f68:	681b      	ldr	r3, [r3, #0]
   d5f6a:	68db      	ldr	r3, [r3, #12]
   d5f6c:	9301      	str	r3, [sp, #4]
   d5f6e:	bd08      	pop	{r3, pc}
   d5f70:	0003023c 	.word	0x0003023c

000d5f74 <HAL_USART_Available_Data>:
DYNALIB_FN(BASE_IDX + 4, hal_usart, HAL_USART_Available_Data, int32_t(HAL_USART_Serial))
   d5f74:	b508      	push	{r3, lr}
   d5f76:	4b02      	ldr	r3, [pc, #8]	; (d5f80 <HAL_USART_Available_Data+0xc>)
   d5f78:	681b      	ldr	r3, [r3, #0]
   d5f7a:	691b      	ldr	r3, [r3, #16]
   d5f7c:	9301      	str	r3, [sp, #4]
   d5f7e:	bd08      	pop	{r3, pc}
   d5f80:	0003023c 	.word	0x0003023c

000d5f84 <HAL_USART_Read_Data>:
DYNALIB_FN(BASE_IDX + 5, hal_usart, HAL_USART_Read_Data, int32_t(HAL_USART_Serial))
   d5f84:	b508      	push	{r3, lr}
   d5f86:	4b02      	ldr	r3, [pc, #8]	; (d5f90 <HAL_USART_Read_Data+0xc>)
   d5f88:	681b      	ldr	r3, [r3, #0]
   d5f8a:	695b      	ldr	r3, [r3, #20]
   d5f8c:	9301      	str	r3, [sp, #4]
   d5f8e:	bd08      	pop	{r3, pc}
   d5f90:	0003023c 	.word	0x0003023c

000d5f94 <HAL_USART_Peek_Data>:
DYNALIB_FN(BASE_IDX + 6, hal_usart, HAL_USART_Peek_Data, int32_t(HAL_USART_Serial))
   d5f94:	b508      	push	{r3, lr}
   d5f96:	4b02      	ldr	r3, [pc, #8]	; (d5fa0 <HAL_USART_Peek_Data+0xc>)
   d5f98:	681b      	ldr	r3, [r3, #0]
   d5f9a:	699b      	ldr	r3, [r3, #24]
   d5f9c:	9301      	str	r3, [sp, #4]
   d5f9e:	bd08      	pop	{r3, pc}
   d5fa0:	0003023c 	.word	0x0003023c

000d5fa4 <HAL_USART_Flush_Data>:
DYNALIB_FN(BASE_IDX + 7, hal_usart, HAL_USART_Flush_Data, void(HAL_USART_Serial))
   d5fa4:	b508      	push	{r3, lr}
   d5fa6:	4b02      	ldr	r3, [pc, #8]	; (d5fb0 <HAL_USART_Flush_Data+0xc>)
   d5fa8:	681b      	ldr	r3, [r3, #0]
   d5faa:	69db      	ldr	r3, [r3, #28]
   d5fac:	9301      	str	r3, [sp, #4]
   d5fae:	bd08      	pop	{r3, pc}
   d5fb0:	0003023c 	.word	0x0003023c

000d5fb4 <HAL_USART_Is_Enabled>:
DYNALIB_FN(BASE_IDX + 8, hal_usart, HAL_USART_Is_Enabled, bool(HAL_USART_Serial))
   d5fb4:	b508      	push	{r3, lr}
   d5fb6:	4b02      	ldr	r3, [pc, #8]	; (d5fc0 <HAL_USART_Is_Enabled+0xc>)
   d5fb8:	681b      	ldr	r3, [r3, #0]
   d5fba:	6a1b      	ldr	r3, [r3, #32]
   d5fbc:	9301      	str	r3, [sp, #4]
   d5fbe:	bd08      	pop	{r3, pc}
   d5fc0:	0003023c 	.word	0x0003023c

000d5fc4 <HAL_USART_Available_Data_For_Write>:
DYNALIB_FN(BASE_IDX + 9, hal_usart, HAL_USART_Half_Duplex, void(HAL_USART_Serial, bool))
DYNALIB_FN(BASE_IDX + 10, hal_usart, HAL_USART_Available_Data_For_Write, int32_t(HAL_USART_Serial))
   d5fc4:	b508      	push	{r3, lr}
   d5fc6:	4b02      	ldr	r3, [pc, #8]	; (d5fd0 <HAL_USART_Available_Data_For_Write+0xc>)
   d5fc8:	681b      	ldr	r3, [r3, #0]
   d5fca:	6a9b      	ldr	r3, [r3, #40]	; 0x28
   d5fcc:	9301      	str	r3, [sp, #4]
   d5fce:	bd08      	pop	{r3, pc}
   d5fd0:	0003023c 	.word	0x0003023c

000d5fd4 <HAL_USB_USART_Init>:
#endif

DYNALIB_BEGIN(hal_usb)

#ifdef USB_CDC_ENABLE
DYNALIB_FN(0, hal_usb, HAL_USB_USART_Init, void(HAL_USB_USART_Serial, const HAL_USB_USART_Config*))
   d5fd4:	b508      	push	{r3, lr}
   d5fd6:	4b02      	ldr	r3, [pc, #8]	; (d5fe0 <HAL_USB_USART_Init+0xc>)
   d5fd8:	681b      	ldr	r3, [r3, #0]
   d5fda:	681b      	ldr	r3, [r3, #0]
   d5fdc:	9301      	str	r3, [sp, #4]
   d5fde:	bd08      	pop	{r3, pc}
   d5fe0:	0003024c 	.word	0x0003024c

000d5fe4 <HAL_USB_USART_Available_Data>:
DYNALIB_FN(1, hal_usb, HAL_USB_USART_Begin, void(HAL_USB_USART_Serial, uint32_t, void *))
DYNALIB_FN(2, hal_usb, HAL_USB_USART_End, void(HAL_USB_USART_Serial))
DYNALIB_FN(3, hal_usb, HAL_USB_USART_Baud_Rate, unsigned int(HAL_USB_USART_Serial))
DYNALIB_FN(4, hal_usb, HAL_USB_USART_Available_Data, int32_t(HAL_USB_USART_Serial))
   d5fe4:	b508      	push	{r3, lr}
   d5fe6:	4b02      	ldr	r3, [pc, #8]	; (d5ff0 <HAL_USB_USART_Available_Data+0xc>)
   d5fe8:	681b      	ldr	r3, [r3, #0]
   d5fea:	691b      	ldr	r3, [r3, #16]
   d5fec:	9301      	str	r3, [sp, #4]
   d5fee:	bd08      	pop	{r3, pc}
   d5ff0:	0003024c 	.word	0x0003024c

000d5ff4 <HAL_USB_USART_Available_Data_For_Write>:
DYNALIB_FN(5, hal_usb, HAL_USB_USART_Available_Data_For_Write, int32_t(HAL_USB_USART_Serial))
   d5ff4:	b508      	push	{r3, lr}
   d5ff6:	4b02      	ldr	r3, [pc, #8]	; (d6000 <HAL_USB_USART_Available_Data_For_Write+0xc>)
   d5ff8:	681b      	ldr	r3, [r3, #0]
   d5ffa:	695b      	ldr	r3, [r3, #20]
   d5ffc:	9301      	str	r3, [sp, #4]
   d5ffe:	bd08      	pop	{r3, pc}
   d6000:	0003024c 	.word	0x0003024c

000d6004 <HAL_USB_USART_Receive_Data>:
DYNALIB_FN(6, hal_usb, HAL_USB_USART_Receive_Data, int32_t(HAL_USB_USART_Serial, uint8_t))
   d6004:	b508      	push	{r3, lr}
   d6006:	4b02      	ldr	r3, [pc, #8]	; (d6010 <HAL_USB_USART_Receive_Data+0xc>)
   d6008:	681b      	ldr	r3, [r3, #0]
   d600a:	699b      	ldr	r3, [r3, #24]
   d600c:	9301      	str	r3, [sp, #4]
   d600e:	bd08      	pop	{r3, pc}
   d6010:	0003024c 	.word	0x0003024c

000d6014 <HAL_USB_USART_Send_Data>:
DYNALIB_FN(7, hal_usb, HAL_USB_USART_Send_Data, int32_t(HAL_USB_USART_Serial, uint8_t))
   d6014:	b508      	push	{r3, lr}
   d6016:	4b02      	ldr	r3, [pc, #8]	; (d6020 <HAL_USB_USART_Send_Data+0xc>)
   d6018:	681b      	ldr	r3, [r3, #0]
   d601a:	69db      	ldr	r3, [r3, #28]
   d601c:	9301      	str	r3, [sp, #4]
   d601e:	bd08      	pop	{r3, pc}
   d6020:	0003024c 	.word	0x0003024c

000d6024 <HAL_USB_USART_Flush_Data>:
DYNALIB_FN(8, hal_usb, HAL_USB_USART_Flush_Data, void(HAL_USB_USART_Serial))
   d6024:	b508      	push	{r3, lr}
   d6026:	4b02      	ldr	r3, [pc, #8]	; (d6030 <HAL_USB_USART_Flush_Data+0xc>)
   d6028:	681b      	ldr	r3, [r3, #0]
   d602a:	6a1b      	ldr	r3, [r3, #32]
   d602c:	9301      	str	r3, [sp, #4]
   d602e:	bd08      	pop	{r3, pc}
   d6030:	0003024c 	.word	0x0003024c

000d6034 <system_mode>:
#include "system_power.h"
#endif

DYNALIB_BEGIN(system)

DYNALIB_FN(0, system, system_mode, System_Mode_TypeDef(void))
   d6034:	b508      	push	{r3, lr}
   d6036:	4b02      	ldr	r3, [pc, #8]	; (d6040 <system_mode+0xc>)
   d6038:	681b      	ldr	r3, [r3, #0]
   d603a:	681b      	ldr	r3, [r3, #0]
   d603c:	9301      	str	r3, [sp, #4]
   d603e:	bd08      	pop	{r3, pc}
   d6040:	00030220 	.word	0x00030220

000d6044 <set_system_mode>:
DYNALIB_FN(1, system, set_system_mode, void(System_Mode_TypeDef))
   d6044:	b508      	push	{r3, lr}
   d6046:	4b02      	ldr	r3, [pc, #8]	; (d6050 <set_system_mode+0xc>)
   d6048:	681b      	ldr	r3, [r3, #0]
   d604a:	685b      	ldr	r3, [r3, #4]
   d604c:	9301      	str	r3, [sp, #4]
   d604e:	bd08      	pop	{r3, pc}
   d6050:	00030220 	.word	0x00030220

000d6054 <system_delay_ms>:

DYNALIB_FN(2, system, set_ymodem_serial_flash_update_handler, void(ymodem_serial_flash_update_handler))
DYNALIB_FN(3, system, system_firmwareUpdate, bool(Stream*, void*))
DYNALIB_FN(4, system, system_fileTransfer, bool(system_file_transfer_t*, void*))

DYNALIB_FN(5, system, system_delay_ms, void(unsigned long, bool))
   d6054:	b508      	push	{r3, lr}
   d6056:	4b02      	ldr	r3, [pc, #8]	; (d6060 <system_delay_ms+0xc>)
   d6058:	681b      	ldr	r3, [r3, #0]
   d605a:	695b      	ldr	r3, [r3, #20]
   d605c:	9301      	str	r3, [sp, #4]
   d605e:	bd08      	pop	{r3, pc}
   d6060:	00030220 	.word	0x00030220

000d6064 <system_thread_set_state>:
DYNALIB_FN(6, system, system_sleep, int(Spark_Sleep_TypeDef, long, uint32_t, void*))
DYNALIB_FN(7, system, system_sleep_pin, int(uint16_t, uint16_t, long, uint32_t, void*))
DYNALIB_FN(8, system, system_subscribe_event, int(system_event_t, system_event_handler_t*, void*))
DYNALIB_FN(9, system, system_unsubscribe_event, void(system_event_t, system_event_handler_t*, void*))
DYNALIB_FN(10, system, system_button_pushed_duration, uint16_t(uint8_t, void*))
DYNALIB_FN(11, system, system_thread_set_state, void(spark::feature::State, void*))
   d6064:	b508      	push	{r3, lr}
   d6066:	4b02      	ldr	r3, [pc, #8]	; (d6070 <system_thread_set_state+0xc>)
   d6068:	681b      	ldr	r3, [r3, #0]
   d606a:	6adb      	ldr	r3, [r3, #44]	; 0x2c
   d606c:	9301      	str	r3, [sp, #4]
   d606e:	bd08      	pop	{r3, pc}
   d6070:	00030220 	.word	0x00030220

000d6074 <application_thread_current>:
DYNALIB_FN(15, system, system_get_flag, int(system_flag_t, uint8_t*, void*))
DYNALIB_FN(16, system, Spark_Prepare_For_Firmware_Update, int(FileTransfer::Descriptor&, uint32_t, void*))
DYNALIB_FN(17, system, Spark_Save_Firmware_Chunk, int(FileTransfer::Descriptor&, const uint8_t*, void*))
DYNALIB_FN(18, system, Spark_Finish_Firmware_Update, int(FileTransfer::Descriptor&, uint32_t, void*))

DYNALIB_FN(19, system, application_thread_current, uint8_t(void*))
   d6074:	b508      	push	{r3, lr}
   d6076:	4b02      	ldr	r3, [pc, #8]	; (d6080 <application_thread_current+0xc>)
   d6078:	681b      	ldr	r3, [r3, #0]
   d607a:	6cdb      	ldr	r3, [r3, #76]	; 0x4c
   d607c:	9301      	str	r3, [sp, #4]
   d607e:	bd08      	pop	{r3, pc}
   d6080:	00030220 	.word	0x00030220

000d6084 <application_thread_invoke>:
DYNALIB_FN(20, system, system_thread_current, uint8_t(void*))
DYNALIB_FN(21, system, application_thread_invoke, uint8_t(void(*)(void*), void*, void*))
   d6084:	b508      	push	{r3, lr}
   d6086:	4b02      	ldr	r3, [pc, #8]	; (d6090 <application_thread_invoke+0xc>)
   d6088:	681b      	ldr	r3, [r3, #0]
   d608a:	6d5b      	ldr	r3, [r3, #84]	; 0x54
   d608c:	9301      	str	r3, [sp, #4]
   d608e:	bd08      	pop	{r3, pc}
   d6090:	00030220 	.word	0x00030220

000d6094 <system_thread_get_state>:
DYNALIB_FN(22, system, system_thread_get_state, spark::feature::State(void*))
   d6094:	b508      	push	{r3, lr}
   d6096:	4b02      	ldr	r3, [pc, #8]	; (d60a0 <system_thread_get_state+0xc>)
   d6098:	681b      	ldr	r3, [r3, #0]
   d609a:	6d9b      	ldr	r3, [r3, #88]	; 0x58
   d609c:	9301      	str	r3, [sp, #4]
   d609e:	bd08      	pop	{r3, pc}
   d60a0:	00030220 	.word	0x00030220

000d60a4 <system_ctrl_set_app_request_handler>:
DYNALIB_FN(BASE_IDX + 6, system, led_pattern_period, uint16_t(int, int, void*))
DYNALIB_FN(BASE_IDX + 7, system, system_set_tester_handlers, int(system_tester_handlers_t*, void*))
DYNALIB_FN(BASE_IDX + 8, system, system_format_diag_data, int(const uint16_t*, size_t, unsigned, appender_fn, void*, void*))

// Control requests
DYNALIB_FN(BASE_IDX + 9, system, system_ctrl_set_app_request_handler, int(ctrl_request_handler_fn, void*))
   d60a4:	b508      	push	{r3, lr}
   d60a6:	4b03      	ldr	r3, [pc, #12]	; (d60b4 <system_ctrl_set_app_request_handler+0x10>)
   d60a8:	681b      	ldr	r3, [r3, #0]
   d60aa:	f8d3 3088 	ldr.w	r3, [r3, #136]	; 0x88
   d60ae:	9301      	str	r3, [sp, #4]
   d60b0:	bd08      	pop	{r3, pc}
   d60b2:	0000      	.short	0x0000
   d60b4:	00030220 	.word	0x00030220

000d60b8 <system_ctrl_set_result>:
DYNALIB_FN(BASE_IDX + 10, system, system_ctrl_alloc_reply_data, int(ctrl_request*, size_t, void*))
DYNALIB_FN(BASE_IDX + 11, system, system_ctrl_free_request_data, void(ctrl_request*, void*))
DYNALIB_FN(BASE_IDX + 12, system, system_ctrl_set_result, void(ctrl_request*, int, ctrl_completion_handler_fn, void*, void*))
   d60b8:	b508      	push	{r3, lr}
   d60ba:	4b03      	ldr	r3, [pc, #12]	; (d60c8 <system_ctrl_set_result+0x10>)
   d60bc:	681b      	ldr	r3, [r3, #0]
   d60be:	f8d3 3094 	ldr.w	r3, [r3, #148]	; 0x94
   d60c2:	9301      	str	r3, [sp, #4]
   d60c4:	bd08      	pop	{r3, pc}
   d60c6:	0000      	.short	0x0000
   d60c8:	00030220 	.word	0x00030220

000d60cc <spark_variable>:
#endif


DYNALIB_BEGIN(system_cloud)

DYNALIB_FN(0, system_cloud, spark_variable, bool(const char*, const void*, Spark_Data_TypeDef, spark_variable_t*))
   d60cc:	b508      	push	{r3, lr}
   d60ce:	4b02      	ldr	r3, [pc, #8]	; (d60d8 <spark_variable+0xc>)
   d60d0:	681b      	ldr	r3, [r3, #0]
   d60d2:	681b      	ldr	r3, [r3, #0]
   d60d4:	9301      	str	r3, [sp, #4]
   d60d6:	bd08      	pop	{r3, pc}
   d60d8:	00030244 	.word	0x00030244

000d60dc <spark_function>:
DYNALIB_FN(1, system_cloud, spark_function, bool(const char*, p_user_function_int_str_t, void*))
   d60dc:	b508      	push	{r3, lr}
   d60de:	4b02      	ldr	r3, [pc, #8]	; (d60e8 <spark_function+0xc>)
   d60e0:	681b      	ldr	r3, [r3, #0]
   d60e2:	685b      	ldr	r3, [r3, #4]
   d60e4:	9301      	str	r3, [sp, #4]
   d60e6:	bd08      	pop	{r3, pc}
   d60e8:	00030244 	.word	0x00030244

000d60ec <spark_process>:
DYNALIB_FN(2, system_cloud, spark_process, void(void))
   d60ec:	b508      	push	{r3, lr}
   d60ee:	4b02      	ldr	r3, [pc, #8]	; (d60f8 <spark_process+0xc>)
   d60f0:	681b      	ldr	r3, [r3, #0]
   d60f2:	689b      	ldr	r3, [r3, #8]
   d60f4:	9301      	str	r3, [sp, #4]
   d60f6:	bd08      	pop	{r3, pc}
   d60f8:	00030244 	.word	0x00030244

000d60fc <spark_cloud_flag_connect>:
DYNALIB_FN(3, system_cloud, spark_cloud_flag_connect, void(void))
   d60fc:	b508      	push	{r3, lr}
   d60fe:	4b02      	ldr	r3, [pc, #8]	; (d6108 <spark_cloud_flag_connect+0xc>)
   d6100:	681b      	ldr	r3, [r3, #0]
   d6102:	68db      	ldr	r3, [r3, #12]
   d6104:	9301      	str	r3, [sp, #4]
   d6106:	bd08      	pop	{r3, pc}
   d6108:	00030244 	.word	0x00030244

000d610c <spark_cloud_flag_connected>:
DYNALIB_FN(4, system_cloud, spark_cloud_flag_disconnect, void(void))
DYNALIB_FN(5, system_cloud, spark_cloud_flag_connected, bool(void))
   d610c:	b508      	push	{r3, lr}
   d610e:	4b02      	ldr	r3, [pc, #8]	; (d6118 <spark_cloud_flag_connected+0xc>)
   d6110:	681b      	ldr	r3, [r3, #0]
   d6112:	695b      	ldr	r3, [r3, #20]
   d6114:	9301      	str	r3, [sp, #4]
   d6116:	bd08      	pop	{r3, pc}
   d6118:	00030244 	.word	0x00030244

000d611c <spark_deviceID>:
DYNALIB_FN(6, system_cloud, system_cloud_protocol_instance, ProtocolFacade*(void))
DYNALIB_FN(7, system_cloud, spark_deviceID, String(void))
   d611c:	b508      	push	{r3, lr}
   d611e:	4b02      	ldr	r3, [pc, #8]	; (d6128 <spark_deviceID+0xc>)
   d6120:	681b      	ldr	r3, [r3, #0]
   d6122:	69db      	ldr	r3, [r3, #28]
   d6124:	9301      	str	r3, [sp, #4]
   d6126:	bd08      	pop	{r3, pc}
   d6128:	00030244 	.word	0x00030244

000d612c <spark_send_event>:
DYNALIB_FN(8, system_cloud, spark_send_event, bool(const char*, const char*, int, uint32_t, void*))
   d612c:	b508      	push	{r3, lr}
   d612e:	4b02      	ldr	r3, [pc, #8]	; (d6138 <spark_send_event+0xc>)
   d6130:	681b      	ldr	r3, [r3, #0]
   d6132:	6a1b      	ldr	r3, [r3, #32]
   d6134:	9301      	str	r3, [sp, #4]
   d6136:	bd08      	pop	{r3, pc}
   d6138:	00030244 	.word	0x00030244

000d613c <spark_subscribe>:
DYNALIB_FN(9, system_cloud, spark_subscribe, bool(const char*, EventHandler, void*, Spark_Subscription_Scope_TypeDef, const char*, void*))
   d613c:	b508      	push	{r3, lr}
   d613e:	4b02      	ldr	r3, [pc, #8]	; (d6148 <spark_subscribe+0xc>)
   d6140:	681b      	ldr	r3, [r3, #0]
   d6142:	6a5b      	ldr	r3, [r3, #36]	; 0x24
   d6144:	9301      	str	r3, [sp, #4]
   d6146:	bd08      	pop	{r3, pc}
   d6148:	00030244 	.word	0x00030244

000d614c <spark_sync_time>:
DYNALIB_FN(10, system_cloud, spark_unsubscribe, void(void*))
DYNALIB_FN(11, system_cloud, spark_sync_time, bool(void*))
   d614c:	b508      	push	{r3, lr}
   d614e:	4b02      	ldr	r3, [pc, #8]	; (d6158 <spark_sync_time+0xc>)
   d6150:	681b      	ldr	r3, [r3, #0]
   d6152:	6adb      	ldr	r3, [r3, #44]	; 0x2c
   d6154:	9301      	str	r3, [sp, #4]
   d6156:	bd08      	pop	{r3, pc}
   d6158:	00030244 	.word	0x00030244

000d615c <spark_sync_time_pending>:
DYNALIB_FN(12, system_cloud, spark_sync_time_pending, bool(void*))
   d615c:	b508      	push	{r3, lr}
   d615e:	4b02      	ldr	r3, [pc, #8]	; (d6168 <spark_sync_time_pending+0xc>)
   d6160:	681b      	ldr	r3, [r3, #0]
   d6162:	6b1b      	ldr	r3, [r3, #48]	; 0x30
   d6164:	9301      	str	r3, [sp, #4]
   d6166:	bd08      	pop	{r3, pc}
   d6168:	00030244 	.word	0x00030244

000d616c <spark_set_random_seed_from_cloud_handler>:
DYNALIB_FN(13, system_cloud, spark_sync_time_last, system_tick_t(time_t*, void*))
DYNALIB_FN(14, system_cloud, spark_set_connection_property, int(unsigned, unsigned, particle::protocol::connection_properties_t*, void*))
DYNALIB_FN(15, system_cloud, spark_set_random_seed_from_cloud_handler, int(void (*handler)(unsigned int), void*))
   d616c:	b508      	push	{r3, lr}
   d616e:	4b02      	ldr	r3, [pc, #8]	; (d6178 <spark_set_random_seed_from_cloud_handler+0xc>)
   d6170:	681b      	ldr	r3, [r3, #0]
   d6172:	6bdb      	ldr	r3, [r3, #60]	; 0x3c
   d6174:	9301      	str	r3, [sp, #4]
   d6176:	bd08      	pop	{r3, pc}
   d6178:	00030244 	.word	0x00030244

000d617c <network_connect>:
#endif

DYNALIB_BEGIN(system_net)

DYNALIB_FN(0, system_net, network_config, const void*(network_handle_t, uint32_t, void*))
DYNALIB_FN(1, system_net, network_connect, void(network_handle_t, uint32_t, uint32_t, void*))
   d617c:	b508      	push	{r3, lr}
   d617e:	4b02      	ldr	r3, [pc, #8]	; (d6188 <network_connect+0xc>)
   d6180:	681b      	ldr	r3, [r3, #0]
   d6182:	685b      	ldr	r3, [r3, #4]
   d6184:	9301      	str	r3, [sp, #4]
   d6186:	bd08      	pop	{r3, pc}
   d6188:	00030240 	.word	0x00030240

000d618c <network_connecting>:
DYNALIB_FN(2, system_net, network_connecting, bool(network_handle_t, uint32_t, void*))
   d618c:	b508      	push	{r3, lr}
   d618e:	4b02      	ldr	r3, [pc, #8]	; (d6198 <network_connecting+0xc>)
   d6190:	681b      	ldr	r3, [r3, #0]
   d6192:	689b      	ldr	r3, [r3, #8]
   d6194:	9301      	str	r3, [sp, #4]
   d6196:	bd08      	pop	{r3, pc}
   d6198:	00030240 	.word	0x00030240

000d619c <network_disconnect>:
DYNALIB_FN(3, system_net, network_disconnect, void(network_handle_t, uint32_t, void*))
   d619c:	b508      	push	{r3, lr}
   d619e:	4b02      	ldr	r3, [pc, #8]	; (d61a8 <network_disconnect+0xc>)
   d61a0:	681b      	ldr	r3, [r3, #0]
   d61a2:	68db      	ldr	r3, [r3, #12]
   d61a4:	9301      	str	r3, [sp, #4]
   d61a6:	bd08      	pop	{r3, pc}
   d61a8:	00030240 	.word	0x00030240

000d61ac <network_ready>:
DYNALIB_FN(4, system_net, network_ready, bool(network_handle_t, uint32_t, void*))
   d61ac:	b508      	push	{r3, lr}
   d61ae:	4b02      	ldr	r3, [pc, #8]	; (d61b8 <network_ready+0xc>)
   d61b0:	681b      	ldr	r3, [r3, #0]
   d61b2:	691b      	ldr	r3, [r3, #16]
   d61b4:	9301      	str	r3, [sp, #4]
   d61b6:	bd08      	pop	{r3, pc}
   d61b8:	00030240 	.word	0x00030240

000d61bc <network_on>:
DYNALIB_FN(5, system_net, network_on, void(network_handle_t, uint32_t, uint32_t, void*))
   d61bc:	b508      	push	{r3, lr}
   d61be:	4b02      	ldr	r3, [pc, #8]	; (d61c8 <network_on+0xc>)
   d61c0:	681b      	ldr	r3, [r3, #0]
   d61c2:	695b      	ldr	r3, [r3, #20]
   d61c4:	9301      	str	r3, [sp, #4]
   d61c6:	bd08      	pop	{r3, pc}
   d61c8:	00030240 	.word	0x00030240

000d61cc <network_off>:
DYNALIB_FN(6, system_net, network_off, void(network_handle_t, uint32_t, uint32_t, void*))
   d61cc:	b508      	push	{r3, lr}
   d61ce:	4b02      	ldr	r3, [pc, #8]	; (d61d8 <network_off+0xc>)
   d61d0:	681b      	ldr	r3, [r3, #0]
   d61d2:	699b      	ldr	r3, [r3, #24]
   d61d4:	9301      	str	r3, [sp, #4]
   d61d6:	bd08      	pop	{r3, pc}
   d61d8:	00030240 	.word	0x00030240

000d61dc <network_listen>:
DYNALIB_FN(7, system_net, network_listen, void(network_handle_t, uint32_t, void*))
   d61dc:	b508      	push	{r3, lr}
   d61de:	4b02      	ldr	r3, [pc, #8]	; (d61e8 <network_listen+0xc>)
   d61e0:	681b      	ldr	r3, [r3, #0]
   d61e2:	69db      	ldr	r3, [r3, #28]
   d61e4:	9301      	str	r3, [sp, #4]
   d61e6:	bd08      	pop	{r3, pc}
   d61e8:	00030240 	.word	0x00030240

000d61ec <network_listening>:
DYNALIB_FN(8, system_net, network_listening, bool(network_handle_t, uint32_t, void*))
   d61ec:	b508      	push	{r3, lr}
   d61ee:	4b02      	ldr	r3, [pc, #8]	; (d61f8 <network_listening+0xc>)
   d61f0:	681b      	ldr	r3, [r3, #0]
   d61f2:	6a1b      	ldr	r3, [r3, #32]
   d61f4:	9301      	str	r3, [sp, #4]
   d61f6:	bd08      	pop	{r3, pc}
   d61f8:	00030240 	.word	0x00030240

000d61fc <network_set_listen_timeout>:
DYNALIB_FN(9, system_net, network_has_credentials, bool(network_handle_t, uint32_t, void*))
DYNALIB_FN(10, system_net, network_set_credentials, int(network_handle_t, uint32_t, NetworkCredentials*, void*))
DYNALIB_FN(11, system_net, network_clear_credentials, bool(network_handle_t, uint32_t, NetworkCredentials*, void*))
DYNALIB_FN(12, system_net, network_set_listen_timeout, void(network_handle_t, uint16_t, void*))
   d61fc:	b508      	push	{r3, lr}
   d61fe:	4b02      	ldr	r3, [pc, #8]	; (d6208 <network_set_listen_timeout+0xc>)
   d6200:	681b      	ldr	r3, [r3, #0]
   d6202:	6b1b      	ldr	r3, [r3, #48]	; 0x30
   d6204:	9301      	str	r3, [sp, #4]
   d6206:	bd08      	pop	{r3, pc}
   d6208:	00030240 	.word	0x00030240

000d620c <network_get_listen_timeout>:
DYNALIB_FN(13, system_net, network_get_listen_timeout, uint16_t(network_handle_t, uint32_t, void*))
   d620c:	b508      	push	{r3, lr}
   d620e:	4b02      	ldr	r3, [pc, #8]	; (d6218 <network_get_listen_timeout+0xc>)
   d6210:	681b      	ldr	r3, [r3, #0]
   d6212:	6b5b      	ldr	r3, [r3, #52]	; 0x34
   d6214:	9301      	str	r3, [sp, #4]
   d6216:	bd08      	pop	{r3, pc}
   d6218:	00030240 	.word	0x00030240

000d621c <malloc>:
#include <assert.h>
#endif

DYNALIB_BEGIN(rt)

DYNALIB_FN(0, rt, malloc, void*(size_t))
   d621c:	b508      	push	{r3, lr}
   d621e:	4b02      	ldr	r3, [pc, #8]	; (d6228 <malloc+0xc>)
   d6220:	681b      	ldr	r3, [r3, #0]
   d6222:	681b      	ldr	r3, [r3, #0]
   d6224:	9301      	str	r3, [sp, #4]
   d6226:	bd08      	pop	{r3, pc}
   d6228:	0003021c 	.word	0x0003021c

000d622c <free>:
DYNALIB_FN(1, rt, free, void(void*))
   d622c:	b508      	push	{r3, lr}
   d622e:	4b02      	ldr	r3, [pc, #8]	; (d6238 <free+0xc>)
   d6230:	681b      	ldr	r3, [r3, #0]
   d6232:	685b      	ldr	r3, [r3, #4]
   d6234:	9301      	str	r3, [sp, #4]
   d6236:	bd08      	pop	{r3, pc}
   d6238:	0003021c 	.word	0x0003021c

000d623c <realloc>:
DYNALIB_FN(2, rt, realloc, void*(void*, size_t))
   d623c:	b508      	push	{r3, lr}
   d623e:	4b02      	ldr	r3, [pc, #8]	; (d6248 <realloc+0xc>)
   d6240:	681b      	ldr	r3, [r3, #0]
   d6242:	689b      	ldr	r3, [r3, #8]
   d6244:	9301      	str	r3, [sp, #4]
   d6246:	bd08      	pop	{r3, pc}
   d6248:	0003021c 	.word	0x0003021c

000d624c <siscanf>:
DYNALIB_FN(3, rt, sprintf, int(char*, const char*, ...))
DYNALIB_FN(4, rt, siprintf, int(char*, const char*, ...))
DYNALIB_FN(5, rt, sscanf, int(const char*, const char*, ...))
DYNALIB_FN(6, rt, siscanf, int(const char*, const char*, ...))
   d624c:	b508      	push	{r3, lr}
   d624e:	4b02      	ldr	r3, [pc, #8]	; (d6258 <siscanf+0xc>)
   d6250:	681b      	ldr	r3, [r3, #0]
   d6252:	699b      	ldr	r3, [r3, #24]
   d6254:	9301      	str	r3, [sp, #4]
   d6256:	bd08      	pop	{r3, pc}
   d6258:	0003021c 	.word	0x0003021c

000d625c <snprintf>:
DYNALIB_FN(7, rt, snprintf, int(char*, size_t, const char*, ...))
   d625c:	b508      	push	{r3, lr}
   d625e:	4b02      	ldr	r3, [pc, #8]	; (d6268 <snprintf+0xc>)
   d6260:	681b      	ldr	r3, [r3, #0]
   d6262:	69db      	ldr	r3, [r3, #28]
   d6264:	9301      	str	r3, [sp, #4]
   d6266:	bd08      	pop	{r3, pc}
   d6268:	0003021c 	.word	0x0003021c

000d626c <abort>:
DYNALIB_FN(8, rt, sniprintf, int(char*, size_t, const char*, ...))
DYNALIB_FN(9, rt, vsnprintf, int(char*, size_t, const char*, va_list))
DYNALIB_FN(10, rt, vsniprintf, int(char*, size_t, const char*, va_list))
DYNALIB_FN(11, rt, abort, void(void))
   d626c:	b508      	push	{r3, lr}
   d626e:	4b02      	ldr	r3, [pc, #8]	; (d6278 <abort+0xc>)
   d6270:	681b      	ldr	r3, [r3, #0]
   d6272:	6adb      	ldr	r3, [r3, #44]	; 0x2c
   d6274:	9301      	str	r3, [sp, #4]
   d6276:	bd08      	pop	{r3, pc}
   d6278:	0003021c 	.word	0x0003021c

000d627c <_malloc_r>:
DYNALIB_FN(12, rt, _malloc_r, void*(struct _reent*, size_t))
   d627c:	b508      	push	{r3, lr}
   d627e:	4b02      	ldr	r3, [pc, #8]	; (d6288 <_malloc_r+0xc>)
   d6280:	681b      	ldr	r3, [r3, #0]
   d6282:	6b1b      	ldr	r3, [r3, #48]	; 0x30
   d6284:	9301      	str	r3, [sp, #4]
   d6286:	bd08      	pop	{r3, pc}
   d6288:	0003021c 	.word	0x0003021c

000d628c <delay>:
    return (value - fromStart) * (toEnd - toStart) / (fromEnd - fromStart) + toStart;
}

void delay(unsigned long ms)
{
    system_delay_ms(ms, false);
   d628c:	2100      	movs	r1, #0
   d628e:	f7ff bee1 	b.w	d6054 <system_delay_ms>

000d6292 <_ZN8particle6detail21futureCallbackWrapperEPv>:
 * License along with this library; if not, see <http://www.gnu.org/licenses/>.
 */

#include "spark_wiring_async.h"

void particle::detail::futureCallbackWrapper(void* data) {
   d6292:	b510      	push	{r4, lr}
  template<typename _Res, typename... _ArgTypes>
    _Res
    function<_Res(_ArgTypes...)>::
    operator()(_ArgTypes... __args) const
    {
      if (_M_empty())
   d6294:	6883      	ldr	r3, [r0, #8]
   d6296:	4604      	mov	r4, r0
   d6298:	b90b      	cbnz	r3, d629e <_ZN8particle6detail21futureCallbackWrapperEPv+0xc>
	__throw_bad_function_call();
   d629a:	f001 fb3a 	bl	d7912 <_ZSt25__throw_bad_function_callv>
      return _M_invoker(_M_functor, std::forward<_ArgTypes>(__args)...);
   d629e:	68c3      	ldr	r3, [r0, #12]
   d62a0:	4798      	blx	r3

    _Function_base() : _M_manager(nullptr) { }

    ~_Function_base()
    {
      if (_M_manager)
   d62a2:	68a3      	ldr	r3, [r4, #8]
   d62a4:	b11b      	cbz	r3, d62ae <_ZN8particle6detail21futureCallbackWrapperEPv+0x1c>
	_M_manager(_M_functor, _M_functor, __destroy_functor);
   d62a6:	2203      	movs	r2, #3
   d62a8:	4621      	mov	r1, r4
   d62aa:	4620      	mov	r0, r4
   d62ac:	4798      	blx	r3
    auto callbackPtr = static_cast<const std::function<void()>*>(data);
    (*callbackPtr)();
    delete callbackPtr;
   d62ae:	4620      	mov	r0, r4
   d62b0:	2110      	movs	r1, #16
}
   d62b2:	e8bd 4010 	ldmia.w	sp!, {r4, lr}
#include "spark_wiring_async.h"

void particle::detail::futureCallbackWrapper(void* data) {
    auto callbackPtr = static_cast<const std::function<void()>*>(data);
    (*callbackPtr)();
    delete callbackPtr;
   d62b6:	f001 bb10 	b.w	d78da <_ZdlPvj>

000d62ba <_ZN14RecursiveMutexD1Ev>:
    RecursiveMutex() : handle_(nullptr)
    {
        os_mutex_recursive_create(&handle_);
    }

    ~RecursiveMutex() {
   d62ba:	b510      	push	{r4, lr}
   d62bc:	4604      	mov	r4, r0
        dispose();
    }

    void dispose()
    {
        if (handle_) {
   d62be:	6800      	ldr	r0, [r0, #0]
   d62c0:	b108      	cbz	r0, d62c6 <_ZN14RecursiveMutexD1Ev+0xc>
            os_mutex_recursive_destroy(handle_);
   d62c2:	f7ff fd1f 	bl	d5d04 <os_mutex_recursive_destroy>
        os_mutex_recursive_create(&handle_);
    }

    ~RecursiveMutex() {
        dispose();
    }
   d62c6:	4620      	mov	r0, r4
   d62c8:	bd10      	pop	{r4, pc}

000d62ca <_ZNSt14__shared_countILN9__gnu_cxx12_Lock_policyE0EEC1ERKS2_>:
	if (_M_pi != nullptr)
	  _M_pi->_M_release();
      }

      __shared_count(const __shared_count& __r) noexcept
      : _M_pi(__r._M_pi)
   d62ca:	680b      	ldr	r3, [r1, #0]
   d62cc:	6003      	str	r3, [r0, #0]
      {
	if (_M_pi != 0)
   d62ce:	b113      	cbz	r3, d62d6 <_ZNSt14__shared_countILN9__gnu_cxx12_Lock_policyE0EEC1ERKS2_+0xc>
    }

  template<>
    inline void
    _Sp_counted_base<_S_single>::_M_add_ref_copy()
    { ++_M_use_count; }
   d62d0:	685a      	ldr	r2, [r3, #4]
   d62d2:	3201      	adds	r2, #1
   d62d4:	605a      	str	r2, [r3, #4]
      __shared_count(const __shared_count& __r) noexcept
      : _M_pi(__r._M_pi)
      {
	if (_M_pi != 0)
	  _M_pi->_M_add_ref_copy();
      }
   d62d6:	4770      	bx	lr

000d62d8 <_GLOBAL__sub_I__ZN8particle3ble13WiringBleLock6mutex_E>:
BleCharacteristic BleLocalDevice::addCharacteristic(const String& desc, EnumFlags<BleCharacteristicProperty> properties, BleOnDataReceivedCallback callback, void* context) {
    WiringBleLock lk;
    return addCharacteristic(desc.c_str(), properties, callback, context);
}

} /* namespace particle */
   d62d8:	b510      	push	{r4, lr}
    /**
     * Creates a shared mutex.
     */
    RecursiveMutex(os_mutex_recursive_t handle) : handle_(handle) {}

    RecursiveMutex() : handle_(nullptr)
   d62da:	4c06      	ldr	r4, [pc, #24]	; (d62f4 <_GLOBAL__sub_I__ZN8particle3ble13WiringBleLock6mutex_E+0x1c>)
   d62dc:	2300      	movs	r3, #0
    {
        os_mutex_recursive_create(&handle_);
   d62de:	4620      	mov	r0, r4
    /**
     * Creates a shared mutex.
     */
    RecursiveMutex(os_mutex_recursive_t handle) : handle_(handle) {}

    RecursiveMutex() : handle_(nullptr)
   d62e0:	6023      	str	r3, [r4, #0]
    {
        os_mutex_recursive_create(&handle_);
   d62e2:	f7ff fd07 	bl	d5cf4 <os_mutex_recursive_create>
private:
    bool locked_;
    static RecursiveMutex mutex_;
};

RecursiveMutex WiringBleLock::mutex_;
   d62e6:	4620      	mov	r0, r4
   d62e8:	4a03      	ldr	r2, [pc, #12]	; (d62f8 <_GLOBAL__sub_I__ZN8particle3ble13WiringBleLock6mutex_E+0x20>)
   d62ea:	4904      	ldr	r1, [pc, #16]	; (d62fc <_GLOBAL__sub_I__ZN8particle3ble13WiringBleLock6mutex_E+0x24>)
BleCharacteristic BleLocalDevice::addCharacteristic(const String& desc, EnumFlags<BleCharacteristicProperty> properties, BleOnDataReceivedCallback callback, void* context) {
    WiringBleLock lk;
    return addCharacteristic(desc.c_str(), properties, callback, context);
}

} /* namespace particle */
   d62ec:	e8bd 4010 	ldmia.w	sp!, {r4, lr}
private:
    bool locked_;
    static RecursiveMutex mutex_;
};

RecursiveMutex WiringBleLock::mutex_;
   d62f0:	f001 baee 	b.w	d78d0 <__aeabi_atexit>
   d62f4:	2003e350 	.word	0x2003e350
   d62f8:	2003e130 	.word	0x2003e130
   d62fc:	000d62bb 	.word	0x000d62bb

000d6300 <_ZN5spark13CellularClass5readyEv>:
        return network_listening(*this, 0, NULL);
    }

    bool ready()
    {
        return network_ready(*this, 0,  NULL);
   d6300:	2200      	movs	r2, #0
   d6302:	4611      	mov	r1, r2
   d6304:	6840      	ldr	r0, [r0, #4]
   d6306:	f7ff bf51 	b.w	d61ac <network_ready>

000d630a <_ZN5spark13CellularClass9listeningEv>:
    uint16_t getListenTimeout(void) {
        return network_get_listen_timeout(*this, 0, NULL);
    }

    bool listening(void) {
        return network_listening(*this, 0, NULL);
   d630a:	2200      	movs	r2, #0
   d630c:	4611      	mov	r1, r2
   d630e:	6840      	ldr	r0, [r0, #4]
   d6310:	f7ff bf6c 	b.w	d61ec <network_listening>

000d6314 <_ZN5spark13CellularClass16getListenTimeoutEv>:
    }

    inline void setListenTimeout(std::chrono::seconds s) { setListenTimeout(s.count()); }

    uint16_t getListenTimeout(void) {
        return network_get_listen_timeout(*this, 0, NULL);
   d6314:	2200      	movs	r2, #0
   d6316:	4611      	mov	r1, r2
   d6318:	6840      	ldr	r0, [r0, #4]
   d631a:	f7ff bf77 	b.w	d620c <network_get_listen_timeout>

000d631e <_ZN5spark13CellularClass16setListenTimeoutEt>:
    void listen(bool begin=true) {
        network_listen(*this, begin ? 0 : 1, NULL);
    }

    inline void setListenTimeout(uint16_t timeout) {
        network_set_listen_timeout(*this, timeout, NULL);
   d631e:	2200      	movs	r2, #0
   d6320:	6840      	ldr	r0, [r0, #4]
   d6322:	f7ff bf6b 	b.w	d61fc <network_set_listen_timeout>

000d6326 <_ZN5spark13CellularClass6listenEb>:
        cellular_credentials_clear(nullptr);
    }
#endif // HAL_PLATFORM_MESH

    void listen(bool begin=true) {
        network_listen(*this, begin ? 0 : 1, NULL);
   d6326:	2200      	movs	r2, #0
   d6328:	f081 0101 	eor.w	r1, r1, #1
   d632c:	6840      	ldr	r0, [r0, #4]
   d632e:	f7ff bf55 	b.w	d61dc <network_listen>

000d6332 <_ZN5spark13CellularClass3offEv>:
    }
    void on() {
        network_on(*this, 0, 0, NULL);
    }
    void off() {
        network_off(*this, 0, 0, NULL);
   d6332:	2300      	movs	r3, #0
   d6334:	461a      	mov	r2, r3
   d6336:	4619      	mov	r1, r3
   d6338:	6840      	ldr	r0, [r0, #4]
   d633a:	f7ff bf47 	b.w	d61cc <network_off>

000d633e <_ZN5spark13CellularClass2onEv>:

    IPAddress localIP() {
        return IPAddress(((CellularConfig*)network_config(*this, 0, NULL))->nw.aucIP);
    }
    void on() {
        network_on(*this, 0, 0, NULL);
   d633e:	2300      	movs	r3, #0
   d6340:	461a      	mov	r2, r3
   d6342:	4619      	mov	r1, r3
   d6344:	6840      	ldr	r0, [r0, #4]
   d6346:	f7ff bf39 	b.w	d61bc <network_on>

000d634a <_ZN5spark13CellularClass10connectingEv>:
    }
    void connect(unsigned flags=0) {
        network_connect(*this, flags, 0, NULL);
    }
    bool connecting(void) {
        return network_connecting(*this, 0, NULL);
   d634a:	2200      	movs	r2, #0
   d634c:	4611      	mov	r1, r2
   d634e:	6840      	ldr	r0, [r0, #4]
   d6350:	f7ff bf1c 	b.w	d618c <network_connecting>

000d6354 <_ZN5spark13CellularClass10disconnectEv>:
    }

    void disconnect() {
        network_disconnect(*this, NETWORK_DISCONNECT_REASON_USER, NULL);
   d6354:	2200      	movs	r2, #0
   d6356:	2102      	movs	r1, #2
   d6358:	6840      	ldr	r0, [r0, #4]
   d635a:	f7ff bf1f 	b.w	d619c <network_disconnect>

000d635e <_ZN5spark13CellularClass7connectEj>:
    }
    void off() {
        network_off(*this, 0, 0, NULL);
    }
    void connect(unsigned flags=0) {
        network_connect(*this, flags, 0, NULL);
   d635e:	2300      	movs	r3, #0
   d6360:	461a      	mov	r2, r3
   d6362:	6840      	ldr	r0, [r0, #4]
   d6364:	f7ff bf0a 	b.w	d617c <network_connect>

000d6368 <_GLOBAL__sub_I__ZN5spark13CellularClass4RSSIEv>:
        return (band_get.ok = true);
    }

    CellularClass Cellular;
    // NetworkClass& Network = Cellular;
}
   d6368:	b538      	push	{r3, r4, r5, lr}
    int tx_total;
    int rx_total;

    CellularDataHal()
    {
        memset(this, 0, sizeof(*this));
   d636a:	4c08      	ldr	r4, [pc, #32]	; (d638c <_GLOBAL__sub_I__ZN5spark13CellularClass4RSSIEv+0x24>)
   d636c:	2528      	movs	r5, #40	; 0x28
   d636e:	462a      	mov	r2, r5
   d6370:	2100      	movs	r1, #0
   d6372:	4620      	mov	r0, r4
   d6374:	f002 fbe3 	bl	d8b3e <memset>
        cid = -1;
   d6378:	f04f 33ff 	mov.w	r3, #4294967295	; 0xffffffff
   d637c:	6063      	str	r3, [r4, #4]
    static NetworkClass& from(network_interface_t nif);

    virtual IPAddress resolve(const char* name);

    explicit NetworkClass(network_interface_t iface)
            : iface_(iface) {
   d637e:	4b04      	ldr	r3, [pc, #16]	; (d6390 <_GLOBAL__sub_I__ZN5spark13CellularClass4RSSIEv+0x28>)
        size = sizeof(*this);
   d6380:	8025      	strh	r5, [r4, #0]
   d6382:	2204      	movs	r2, #4
   d6384:	605a      	str	r2, [r3, #4]

class CellularClass : public NetworkClass
{
public:
    CellularClass() :
            NetworkClass(NETWORK_INTERFACE_CELLULAR) {
   d6386:	4a03      	ldr	r2, [pc, #12]	; (d6394 <_GLOBAL__sub_I__ZN5spark13CellularClass4RSSIEv+0x2c>)
   d6388:	601a      	str	r2, [r3, #0]
   d638a:	bd38      	pop	{r3, r4, r5, pc}
   d638c:	2003e35c 	.word	0x2003e35c
   d6390:	2003e354 	.word	0x2003e354
   d6394:	000db350 	.word	0x000db350

000d6398 <_ZNSt15_Sp_counted_ptrIPN8particle6detail10FutureImplIbNS1_13FutureContextEEELN9__gnu_cxx12_Lock_policyE0EED1Ev>:
    class __shared_count;


  // Counted ptr with no deleter or allocator support
  template<typename _Ptr, _Lock_policy _Lp>
    class _Sp_counted_ptr final : public _Sp_counted_base<_Lp>
   d6398:	4770      	bx	lr

000d639a <_ZNSt15_Sp_counted_ptrIPN8particle6detail10FutureImplIbNS1_13FutureContextEEELN9__gnu_cxx12_Lock_policyE0EE14_M_get_deleterERKSt9type_info>:
      _M_destroy() noexcept
      { delete this; }

      virtual void*
      _M_get_deleter(const std::type_info&) noexcept
      { return nullptr; }
   d639a:	2000      	movs	r0, #0
   d639c:	4770      	bx	lr

000d639e <_ZNSt15_Sp_counted_ptrIPN8particle6detail10FutureImplIbNS1_13FutureContextEEELN9__gnu_cxx12_Lock_policyE0EED0Ev>:
    class __shared_count;


  // Counted ptr with no deleter or allocator support
  template<typename _Ptr, _Lock_policy _Lp>
    class _Sp_counted_ptr final : public _Sp_counted_base<_Lp>
   d639e:	b510      	push	{r4, lr}
   d63a0:	2110      	movs	r1, #16
   d63a2:	4604      	mov	r4, r0
   d63a4:	f001 fa99 	bl	d78da <_ZdlPvj>
   d63a8:	4620      	mov	r0, r4
   d63aa:	bd10      	pop	{r4, pc}

000d63ac <_ZNSt15_Sp_counted_ptrIPN8particle6detail10FutureImplIbNS1_13FutureContextEEELN9__gnu_cxx12_Lock_policyE0EE10_M_destroyEv>:
      virtual void
      _M_dispose() noexcept
      { delete _M_ptr; }

      virtual void
      _M_destroy() noexcept
   d63ac:	b508      	push	{r3, lr}
      { delete this; }
   d63ae:	b108      	cbz	r0, d63b4 <_ZNSt15_Sp_counted_ptrIPN8particle6detail10FutureImplIbNS1_13FutureContextEEELN9__gnu_cxx12_Lock_policyE0EE10_M_destroyEv+0x8>
   d63b0:	f7ff fff5 	bl	d639e <_ZNSt15_Sp_counted_ptrIPN8particle6detail10FutureImplIbNS1_13FutureContextEEELN9__gnu_cxx12_Lock_policyE0EED0Ev>
   d63b4:	bd08      	pop	{r3, pc}

000d63b6 <_ZNSt14_Function_baseD1Ev>:
	}
      };

    _Function_base() : _M_manager(nullptr) { }

    ~_Function_base()
   d63b6:	b510      	push	{r4, lr}
    {
      if (_M_manager)
   d63b8:	6883      	ldr	r3, [r0, #8]
	}
      };

    _Function_base() : _M_manager(nullptr) { }

    ~_Function_base()
   d63ba:	4604      	mov	r4, r0
    {
      if (_M_manager)
   d63bc:	b113      	cbz	r3, d63c4 <_ZNSt14_Function_baseD1Ev+0xe>
	_M_manager(_M_functor, _M_functor, __destroy_functor);
   d63be:	2203      	movs	r2, #3
   d63c0:	4601      	mov	r1, r0
   d63c2:	4798      	blx	r3
    }
   d63c4:	4620      	mov	r0, r4
   d63c6:	bd10      	pop	{r4, pc}

000d63c8 <_ZN8particle5ErrorC1EOS0_>:

} // namespace particle

inline particle::Error::Error(Type type) :
        msg_(nullptr),
        type_(type) {
   d63c8:	2200      	movs	r2, #0
   d63ca:	6002      	str	r2, [r0, #0]

inline particle::Error::Error(const Error& error) :
        Error(error.type_, error.msg_) {
}

inline particle::Error::Error(Error&& error) :
   d63cc:	b510      	push	{r4, lr}

} // namespace particle

inline particle::Error::Error(Type type) :
        msg_(nullptr),
        type_(type) {
   d63ce:	f64f 729c 	movw	r2, #65436	; 0xff9c
   d63d2:	8082      	strh	r2, [r0, #4]
    {
      // concept requirements
      __glibcxx_function_requires(_SGIAssignableConcept<_Tp>)

      _Tp __tmp = _GLIBCXX_MOVE(__a);
      __a = _GLIBCXX_MOVE(__b);
   d63d4:	f9b1 4004 	ldrsh.w	r4, [r1, #4]
   d63d8:	8084      	strh	r4, [r0, #4]
      __b = _GLIBCXX_MOVE(__tmp);
   d63da:	808a      	strh	r2, [r1, #4]
#endif
    {
      // concept requirements
      __glibcxx_function_requires(_SGIAssignableConcept<_Tp>)

      _Tp __tmp = _GLIBCXX_MOVE(__a);
   d63dc:	6802      	ldr	r2, [r0, #0]
      __a = _GLIBCXX_MOVE(__b);
   d63de:	680c      	ldr	r4, [r1, #0]
   d63e0:	6004      	str	r4, [r0, #0]
      __b = _GLIBCXX_MOVE(__tmp);
   d63e2:	600a      	str	r2, [r1, #0]
}

inline particle::Error::Error(Error&& error) :
        Error() {
    swap(*this, error);
}
   d63e4:	bd10      	pop	{r4, pc}

000d63e6 <_ZN8particle5ErrorD1Ev>:

inline particle::Error::~Error() {
   d63e6:	b510      	push	{r4, lr}
   d63e8:	4604      	mov	r4, r0
    free((void*)msg_);
   d63ea:	6800      	ldr	r0, [r0, #0]
   d63ec:	f7ff ff1e 	bl	d622c <free>
}
   d63f0:	4620      	mov	r0, r4
   d63f2:	bd10      	pop	{r4, pc}

000d63f4 <_ZNSt15_Sp_counted_ptrIPN8particle6detail10FutureImplIbNS1_13FutureContextEEELN9__gnu_cxx12_Lock_policyE0EE10_M_disposeEv>:
      explicit
      _Sp_counted_ptr(_Ptr __p) noexcept
      : _M_ptr(__p) { }

      virtual void
      _M_dispose() noexcept
   d63f4:	b538      	push	{r3, r4, r5, lr}
      { delete _M_ptr; }
   d63f6:	68c4      	ldr	r4, [r0, #12]
   d63f8:	b1f4      	cbz	r4, d6438 <_ZNSt15_Sp_counted_ptrIPN8particle6detail10FutureImplIbNS1_13FutureContextEEELN9__gnu_cxx12_Lock_policyE0EE10_M_disposeEv+0x44>

      _Tp
      load(memory_order __m = memory_order_seq_cst) const noexcept
      { 
        _Tp tmp;
	__atomic_load(&_M_i, &tmp, __m);
   d63fa:	7823      	ldrb	r3, [r4, #0]
    ~FutureImpl() {
        // Call destructor of the appropriate unnamed enum's field
        const State s = this->state();
        if (s == State::SUCCEEDED) {
            result_.~ResultT();
        } else if (s == State::FAILED) {
   d63fc:	2b02      	cmp	r3, #2
   d63fe:	d103      	bne.n	d6408 <_ZNSt15_Sp_counted_ptrIPN8particle6detail10FutureImplIbNS1_13FutureContextEEELN9__gnu_cxx12_Lock_policyE0EE10_M_disposeEv+0x14>
            error_.~Error();
   d6400:	f104 000c 	add.w	r0, r4, #12
   d6404:	f7ff ffef 	bl	d63e6 <_ZN8particle5ErrorD1Ev>
      {
        memory_order __b = __m & __memory_order_mask;
	__glibcxx_assert(__b != memory_order_release);
	__glibcxx_assert(__b != memory_order_acq_rel);

	return __atomic_load_n(&_M_p, __m);
   d6408:	6865      	ldr	r5, [r4, #4]
    // Completion callback types
    typedef typename detail::FutureCallbackTypes<ResultT>::OnSuccess OnSuccessCallback;
    typedef typename detail::FutureCallbackTypes<ResultT>::OnError OnErrorCallback;

    ~FutureImplBase() {
        delete onSuccess_.load(std::memory_order_relaxed);
   d640a:	b135      	cbz	r5, d641a <_ZNSt15_Sp_counted_ptrIPN8particle6detail10FutureImplIbNS1_13FutureContextEEELN9__gnu_cxx12_Lock_policyE0EE10_M_disposeEv+0x26>
   *  @ingroup functors
   *
   *  Polymorphic function wrapper.
   */
  template<typename _Res, typename... _ArgTypes>
    class function<_Res(_ArgTypes...)>
   d640c:	4628      	mov	r0, r5
   d640e:	f7ff ffd2 	bl	d63b6 <_ZNSt14_Function_baseD1Ev>
   d6412:	2110      	movs	r1, #16
   d6414:	4628      	mov	r0, r5
   d6416:	f001 fa60 	bl	d78da <_ZdlPvj>
   d641a:	68a5      	ldr	r5, [r4, #8]
        delete onError_.load(std::memory_order_relaxed);
   d641c:	b135      	cbz	r5, d642c <_ZNSt15_Sp_counted_ptrIPN8particle6detail10FutureImplIbNS1_13FutureContextEEELN9__gnu_cxx12_Lock_policyE0EE10_M_disposeEv+0x38>
   d641e:	4628      	mov	r0, r5
   d6420:	f7ff ffc9 	bl	d63b6 <_ZNSt14_Function_baseD1Ev>
   d6424:	2110      	movs	r1, #16
   d6426:	4628      	mov	r0, r5
   d6428:	f001 fa57 	bl	d78da <_ZdlPvj>
   d642c:	4620      	mov	r0, r4
   d642e:	2114      	movs	r1, #20
   d6430:	e8bd 4038 	ldmia.w	sp!, {r3, r4, r5, lr}
   d6434:	f001 ba51 	b.w	d78da <_ZdlPvj>
   d6438:	bd38      	pop	{r3, r4, r5, pc}

000d643a <_ZN10CloudClass22call_raw_user_functionEPvPKcS0_>:
}

} // namespace

int CloudClass::call_raw_user_function(void* data, const char* param, void* reserved)
{
   d643a:	b510      	push	{r4, lr}
   d643c:	b088      	sub	sp, #32
   d643e:	4604      	mov	r4, r0
    user_function_int_str_t* fn = (user_function_int_str_t*)(data);
    String p(param);
   d6440:	4668      	mov	r0, sp
   d6442:	f000 fee0 	bl	d7206 <_ZN6StringC1EPK19__FlashStringHelper>
    return (*fn)(p);
   d6446:	4669      	mov	r1, sp
   d6448:	a804      	add	r0, sp, #16
   d644a:	f000 fefe 	bl	d724a <_ZN6StringC1ERKS_>
   d644e:	a804      	add	r0, sp, #16
   d6450:	47a0      	blx	r4
   d6452:	4604      	mov	r4, r0
   d6454:	a804      	add	r0, sp, #16
   d6456:	f000 fe8f 	bl	d7178 <_ZN6StringD1Ev>
} // namespace

int CloudClass::call_raw_user_function(void* data, const char* param, void* reserved)
{
    user_function_int_str_t* fn = (user_function_int_str_t*)(data);
    String p(param);
   d645a:	4668      	mov	r0, sp
   d645c:	f000 fe8c 	bl	d7178 <_ZN6StringD1Ev>
    return (*fn)(p);
}
   d6460:	4620      	mov	r0, r4
   d6462:	b008      	add	sp, #32
   d6464:	bd10      	pop	{r4, pc}

000d6466 <_ZN10CloudClass17register_functionEPFiPvPKcS0_ES0_S2_>:
    wiring_event_handler_t* fn = (wiring_event_handler_t*)(handler_data);
    (*fn)(event_name, data);
}

bool CloudClass::register_function(cloud_function_t fn, void* data, const char* funcKey)
{
   d6466:	b5f0      	push	{r4, r5, r6, r7, lr}
    const char *funcKey;
    cloud_function_t fn;
    void* data;

     cloud_function_descriptor() {
         memset(this, 0, sizeof(*this));
   d6468:	2410      	movs	r4, #16
   d646a:	b085      	sub	sp, #20
   d646c:	4607      	mov	r7, r0
   d646e:	460e      	mov	r6, r1
   d6470:	4615      	mov	r5, r2
   d6472:	2100      	movs	r1, #0
   d6474:	4622      	mov	r2, r4
   d6476:	4668      	mov	r0, sp
   d6478:	f002 fb61 	bl	d8b3e <memset>
    cloud_function_descriptor desc = {};
    desc.size = sizeof(desc);
    desc.fn = fn;
    desc.data = (void*)data;
    desc.funcKey = funcKey;
    return spark_function(NULL, (user_function_int_str_t*)&desc, NULL);
   d647c:	2200      	movs	r2, #0
   d647e:	4669      	mov	r1, sp
   d6480:	4610      	mov	r0, r2
         size = sizeof(*this);
   d6482:	f8ad 4000 	strh.w	r4, [sp]

bool CloudClass::register_function(cloud_function_t fn, void* data, const char* funcKey)
{
    cloud_function_descriptor desc = {};
    desc.size = sizeof(desc);
    desc.fn = fn;
   d6486:	9702      	str	r7, [sp, #8]
    desc.data = (void*)data;
   d6488:	9603      	str	r6, [sp, #12]
    desc.funcKey = funcKey;
   d648a:	9501      	str	r5, [sp, #4]
    return spark_function(NULL, (user_function_int_str_t*)&desc, NULL);
   d648c:	f7ff fe26 	bl	d60dc <spark_function>
}
   d6490:	b005      	add	sp, #20
   d6492:	bdf0      	pop	{r4, r5, r6, r7, pc}

000d6494 <_ZN8particle6FutureIbNS_6detail13FutureContextEEC1ESt10shared_ptrINS1_10FutureImplIbS2_EEE>:
};

template<typename ResultT, typename ContextT = detail::FutureContext>
class Future: public FutureBase<ResultT, ContextT> {
public:
    using FutureBase<ResultT, ContextT>::FutureBase;
   d6494:	b513      	push	{r0, r1, r4, lr}
   d6496:	4604      	mov	r4, r0
      }

      void
      _M_swap(__shared_count& __r) noexcept
      {
	_Sp_counted_base<_Lp>* __tmp = __r._M_pi;
   d6498:	e891 0005 	ldmia.w	r1, {r0, r2}
	__r._M_pi = _M_pi;
   d649c:	2300      	movs	r3, #0
   d649e:	604b      	str	r3, [r1, #4]

      __shared_ptr(__shared_ptr&& __r) noexcept
      : _M_ptr(__r._M_ptr), _M_refcount()
      {
	_M_refcount._M_swap(__r._M_refcount);
	__r._M_ptr = 0;
   d64a0:	600b      	str	r3, [r1, #0]
	__shared_ptr(const __shared_ptr<_Tp1, _Lp>& __r) noexcept
	: _M_ptr(__r._M_ptr), _M_refcount(__r._M_refcount)
	{ }

      __shared_ptr(__shared_ptr&& __r) noexcept
      : _M_ptr(__r._M_ptr), _M_refcount()
   d64a2:	6020      	str	r0, [r4, #0]
      void
      _M_swap(__shared_count& __r) noexcept
      {
	_Sp_counted_base<_Lp>* __tmp = __r._M_pi;
	__r._M_pi = _M_pi;
	_M_pi = __tmp;
   d64a4:	6062      	str	r2, [r4, #4]
	: _M_ptr(__p), _M_refcount(__r._M_refcount) // never throws
	{ }

      __shared_ptr(const __shared_ptr&) noexcept = default;
      __shared_ptr& operator=(const __shared_ptr&) noexcept = default;
      ~__shared_ptr() = default;
   d64a6:	a801      	add	r0, sp, #4

      void
      _M_swap(__shared_count& __r) noexcept
      {
	_Sp_counted_base<_Lp>* __tmp = __r._M_pi;
	__r._M_pi = _M_pi;
   d64a8:	9301      	str	r3, [sp, #4]

      __shared_ptr(__shared_ptr&& __r) noexcept
      : _M_ptr(__r._M_ptr), _M_refcount()
      {
	_M_refcount._M_swap(__r._M_refcount);
	__r._M_ptr = 0;
   d64aa:	9300      	str	r3, [sp, #0]
	: _M_ptr(__p), _M_refcount(__r._M_refcount) // never throws
	{ }

      __shared_ptr(const __shared_ptr&) noexcept = default;
      __shared_ptr& operator=(const __shared_ptr&) noexcept = default;
      ~__shared_ptr() = default;
   d64ac:	f7fe fc26 	bl	d4cfc <_ZNSt14__shared_countILN9__gnu_cxx12_Lock_policyE0EED1Ev>
   d64b0:	4620      	mov	r0, r4
   d64b2:	b002      	add	sp, #8
   d64b4:	bd10      	pop	{r4, pc}

000d64b6 <_ZN8particle11PromiseBaseIbNS_6detail13FutureContextEE11fromDataPtrEPv>:
        // TODO: Use custom reference counting object to avoid unnecessary memory allocation
        return new detail::FutureImplPtr<ResultT, ContextT>(p_);
    }

    // Unwraps promise from an object pointer created via dataPtr() method
    static Promise<ResultT, ContextT> fromDataPtr(void* data) {
   d64b6:	b5f7      	push	{r0, r1, r2, r4, r5, r6, r7, lr}
      template<typename _Tp1>
	__shared_ptr(const __shared_ptr<_Tp1, _Lp>& __r, _Tp* __p) noexcept
	: _M_ptr(__p), _M_refcount(__r._M_refcount) // never throws
	{ }

      __shared_ptr(const __shared_ptr&) noexcept = default;
   d64b8:	460c      	mov	r4, r1
   d64ba:	ad02      	add	r5, sp, #8
   d64bc:	f854 3b04 	ldr.w	r3, [r4], #4
   d64c0:	f845 3d08 	str.w	r3, [r5, #-8]!
   d64c4:	4606      	mov	r6, r0
   d64c6:	460f      	mov	r7, r1
   d64c8:	a801      	add	r0, sp, #4
   d64ca:	4621      	mov	r1, r4
   d64cc:	f7ff fefd 	bl	d62ca <_ZNSt14__shared_countILN9__gnu_cxx12_Lock_policyE0EEC1ERKS2_>
        auto d = static_cast<detail::FutureImplPtr<ResultT, ContextT>*>(data);
        const Promise<ResultT, ContextT> p(*d);
   d64d0:	4629      	mov	r1, r5
   d64d2:	4630      	mov	r0, r6
   d64d4:	f7ff ffde 	bl	d6494 <_ZN8particle6FutureIbNS_6detail13FutureContextEEC1ESt10shared_ptrINS1_10FutureImplIbS2_EEE>
      __shared_ptr& operator=(const __shared_ptr&) noexcept = default;
      ~__shared_ptr() = default;
   d64d8:	a801      	add	r0, sp, #4
   d64da:	f7fe fc0f 	bl	d4cfc <_ZNSt14__shared_countILN9__gnu_cxx12_Lock_policyE0EED1Ev>
   d64de:	4620      	mov	r0, r4
   d64e0:	f7fe fc0c 	bl	d4cfc <_ZNSt14__shared_countILN9__gnu_cxx12_Lock_policyE0EED1Ev>
        delete d;
   d64e4:	4638      	mov	r0, r7
   d64e6:	2108      	movs	r1, #8
   d64e8:	f001 f9f7 	bl	d78da <_ZdlPvj>
        return p;
    }
   d64ec:	4630      	mov	r0, r6
   d64ee:	b003      	add	sp, #12
   d64f0:	bdf0      	pop	{r4, r5, r6, r7, pc}

000d64f2 <_ZSt4swapISt9_Any_dataEvRT_S2_>:
   *  @param  __b  Another thing of arbitrary type.
   *  @return   Nothing.
  */
  template<typename _Tp>
    inline void
    swap(_Tp& __a, _Tp& __b)
   d64f2:	b513      	push	{r0, r1, r4, lr}
   d64f4:	460b      	mov	r3, r1
   d64f6:	4604      	mov	r4, r0
#endif
    {
      // concept requirements
      __glibcxx_function_requires(_SGIAssignableConcept<_Tp>)

      _Tp __tmp = _GLIBCXX_MOVE(__a);
   d64f8:	c803      	ldmia	r0, {r0, r1}
   d64fa:	e88d 0003 	stmia.w	sp, {r0, r1}
      __a = _GLIBCXX_MOVE(__b);
   d64fe:	e893 0003 	ldmia.w	r3, {r0, r1}
   d6502:	e884 0003 	stmia.w	r4, {r0, r1}
      __b = _GLIBCXX_MOVE(__tmp);
   d6506:	e89d 0003 	ldmia.w	sp, {r0, r1}
   d650a:	e883 0003 	stmia.w	r3, {r0, r1}
    }
   d650e:	b002      	add	sp, #8
   d6510:	bd10      	pop	{r4, pc}
	...

000d6514 <_ZNSt14__shared_countILN9__gnu_cxx12_Lock_policyE0EEC1IPN8particle6detail10FutureImplIbNS5_13FutureContextEEEEET_>:
      constexpr __shared_count() noexcept : _M_pi(0)
      { }

      template<typename _Ptr>
        explicit
	__shared_count(_Ptr __p) : _M_pi(0)
   d6514:	b538      	push	{r3, r4, r5, lr}
   d6516:	2300      	movs	r3, #0
   d6518:	4604      	mov	r4, r0
   d651a:	6003      	str	r3, [r0, #0]
	{
	  __try
	    {
	      _M_pi = new _Sp_counted_ptr<_Ptr, _Lp>(__p);
   d651c:	2010      	movs	r0, #16
      constexpr __shared_count() noexcept : _M_pi(0)
      { }

      template<typename _Ptr>
        explicit
	__shared_count(_Ptr __p) : _M_pi(0)
   d651e:	460d      	mov	r5, r1
	{
	  __try
	    {
	      _M_pi = new _Sp_counted_ptr<_Ptr, _Lp>(__p);
   d6520:	f7fd fdbb 	bl	d409a <_Znwj>
   d6524:	b128      	cbz	r0, d6532 <_ZNSt14__shared_countILN9__gnu_cxx12_Lock_policyE0EEC1IPN8particle6detail10FutureImplIbNS5_13FutureContextEEEEET_+0x1e>
    class _Sp_counted_base
    : public _Mutex_base<_Lp>
    {
    public:  
      _Sp_counted_base() noexcept
      : _M_use_count(1), _M_weak_count(1) { }
   d6526:	2301      	movs	r3, #1
   d6528:	6043      	str	r3, [r0, #4]
   d652a:	6083      	str	r3, [r0, #8]
    class _Sp_counted_ptr final : public _Sp_counted_base<_Lp>
    {
    public:
      explicit
      _Sp_counted_ptr(_Ptr __p) noexcept
      : _M_ptr(__p) { }
   d652c:	4b02      	ldr	r3, [pc, #8]	; (d6538 <_ZNSt14__shared_countILN9__gnu_cxx12_Lock_policyE0EEC1IPN8particle6detail10FutureImplIbNS5_13FutureContextEEEEET_+0x24>)
   d652e:	6003      	str	r3, [r0, #0]
   d6530:	60c5      	str	r5, [r0, #12]
        explicit
	__shared_count(_Ptr __p) : _M_pi(0)
	{
	  __try
	    {
	      _M_pi = new _Sp_counted_ptr<_Ptr, _Lp>(__p);
   d6532:	6020      	str	r0, [r4, #0]
	  __catch(...)
	    {
	      delete __p;
	      __throw_exception_again;
	    }
	}
   d6534:	4620      	mov	r0, r4
   d6536:	bd38      	pop	{r3, r4, r5, pc}
   d6538:	000db384 	.word	0x000db384

000d653c <_ZNKSt8functionIFvRKN8particle5ErrorEEEclES3_>:
  template<typename _Res, typename... _ArgTypes>
    _Res
    function<_Res(_ArgTypes...)>::
    operator()(_ArgTypes... __args) const
    {
      if (_M_empty())
   d653c:	6882      	ldr	r2, [r0, #8]
	  }
      }

  template<typename _Res, typename... _ArgTypes>
    _Res
    function<_Res(_ArgTypes...)>::
   d653e:	b510      	push	{r4, lr}
    operator()(_ArgTypes... __args) const
    {
      if (_M_empty())
   d6540:	b90a      	cbnz	r2, d6546 <_ZNKSt8functionIFvRKN8particle5ErrorEEEclES3_+0xa>
	__throw_bad_function_call();
   d6542:	f001 f9e6 	bl	d7912 <_ZSt25__throw_bad_function_callv>
      return _M_invoker(_M_functor, std::forward<_ArgTypes>(__args)...);
   d6546:	68c3      	ldr	r3, [r0, #12]
    }
   d6548:	e8bd 4010 	ldmia.w	sp!, {r4, lr}
    function<_Res(_ArgTypes...)>::
    operator()(_ArgTypes... __args) const
    {
      if (_M_empty())
	__throw_bad_function_call();
      return _M_invoker(_M_functor, std::forward<_ArgTypes>(__args)...);
   d654c:	4718      	bx	r3

000d654e <_ZNSt17_Function_handlerIFvvESt5_BindIFSt8functionIFvRKN8particle5ErrorEEES4_EEE9_M_invokeERKSt9_Any_data>:
    {
      typedef _Function_base::_Base_manager<_Functor> _Base;

     public:
      static void
      _M_invoke(const _Any_data& __functor, _ArgTypes&&... __args)
   d654e:	b508      	push	{r3, lr}
	static _Functor*
	_M_get_pointer(const _Any_data& __source)
	{
	  const _Functor* __ptr =
	    __stored_locally? std::__addressof(__source._M_access<_Functor>())
	    /* have stored a pointer */ : __source._M_access<_Functor*>();
   d6550:	6800      	ldr	r0, [r0, #0]
      template<typename _Result, typename... _Args, std::size_t... _Indexes>
	_Result
	__call(tuple<_Args...>&& __args, _Index_tuple<_Indexes...>)
	{
	  return _M_f(_Mu<_Bound_args>()
		      (std::get<_Indexes>(_M_bound_args), __args)...);
   d6552:	f100 0110 	add.w	r1, r0, #16
   d6556:	f7ff fff1 	bl	d653c <_ZNKSt8functionIFvRKN8particle5ErrorEEEclES3_>
   d655a:	bd08      	pop	{r3, pc}

000d655c <_ZNKSt8functionIFvRKbEEclES1_>:
  template<typename _Res, typename... _ArgTypes>
    _Res
    function<_Res(_ArgTypes...)>::
    operator()(_ArgTypes... __args) const
    {
      if (_M_empty())
   d655c:	6882      	ldr	r2, [r0, #8]
	  }
      }

  template<typename _Res, typename... _ArgTypes>
    _Res
    function<_Res(_ArgTypes...)>::
   d655e:	b510      	push	{r4, lr}
    operator()(_ArgTypes... __args) const
    {
      if (_M_empty())
   d6560:	b90a      	cbnz	r2, d6566 <_ZNKSt8functionIFvRKbEEclES1_+0xa>
	__throw_bad_function_call();
   d6562:	f001 f9d6 	bl	d7912 <_ZSt25__throw_bad_function_callv>
      return _M_invoker(_M_functor, std::forward<_ArgTypes>(__args)...);
   d6566:	68c3      	ldr	r3, [r0, #12]
    }
   d6568:	e8bd 4010 	ldmia.w	sp!, {r4, lr}
    function<_Res(_ArgTypes...)>::
    operator()(_ArgTypes... __args) const
    {
      if (_M_empty())
	__throw_bad_function_call();
      return _M_invoker(_M_functor, std::forward<_ArgTypes>(__args)...);
   d656c:	4718      	bx	r3

000d656e <_ZNSt17_Function_handlerIFvvESt5_BindIFSt8functionIFvRKbEEbEEE9_M_invokeERKSt9_Any_data>:
    {
      typedef _Function_base::_Base_manager<_Functor> _Base;

     public:
      static void
      _M_invoke(const _Any_data& __functor, _ArgTypes&&... __args)
   d656e:	b508      	push	{r3, lr}
	static _Functor*
	_M_get_pointer(const _Any_data& __source)
	{
	  const _Functor* __ptr =
	    __stored_locally? std::__addressof(__source._M_access<_Functor>())
	    /* have stored a pointer */ : __source._M_access<_Functor*>();
   d6570:	6800      	ldr	r0, [r0, #0]
      template<typename _Result, typename... _Args, std::size_t... _Indexes>
	_Result
	__call(tuple<_Args...>&& __args, _Index_tuple<_Indexes...>)
	{
	  return _M_f(_Mu<_Bound_args>()
		      (std::get<_Indexes>(_M_bound_args), __args)...);
   d6572:	f100 0110 	add.w	r1, r0, #16
   d6576:	f7ff fff1 	bl	d655c <_ZNKSt8functionIFvRKbEEclES1_>
   d657a:	bd08      	pop	{r3, pc}

000d657c <_ZNSt8functionIFvRKN8particle5ErrorEEEC1ERKS5_>:
      _Invoker_type _M_invoker;
  };

  // Out-of-line member definitions.
  template<typename _Res, typename... _ArgTypes>
    function<_Res(_ArgTypes...)>::
   d657c:	b538      	push	{r3, r4, r5, lr}
	{
	  _Base::_M_init_functor(__functor, std::__addressof(__f.get()));
	}
      };

    _Function_base() : _M_manager(nullptr) { }
   d657e:	2300      	movs	r3, #0
   d6580:	6083      	str	r3, [r0, #8]
   d6582:	688b      	ldr	r3, [r1, #8]
      _Invoker_type _M_invoker;
  };

  // Out-of-line member definitions.
  template<typename _Res, typename... _ArgTypes>
    function<_Res(_ArgTypes...)>::
   d6584:	4604      	mov	r4, r0
   d6586:	460d      	mov	r5, r1
    function(const function& __x)
    : _Function_base()
    {
      if (static_cast<bool>(__x))
   d6588:	b12b      	cbz	r3, d6596 <_ZNSt8functionIFvRKN8particle5ErrorEEEC1ERKS5_+0x1a>
	{
	  __x._M_manager(_M_functor, __x._M_functor, __clone_functor);
   d658a:	2202      	movs	r2, #2
   d658c:	4798      	blx	r3
	  _M_invoker = __x._M_invoker;
   d658e:	68eb      	ldr	r3, [r5, #12]
   d6590:	60e3      	str	r3, [r4, #12]
	  _M_manager = __x._M_manager;
   d6592:	68ab      	ldr	r3, [r5, #8]
   d6594:	60a3      	str	r3, [r4, #8]
	}
    }
   d6596:	4620      	mov	r0, r4
   d6598:	bd38      	pop	{r3, r4, r5, pc}
	...

000d659c <_ZN8particle11PromiseBaseIbNS_6detail13FutureContextEE8setErrorENS_5ErrorE>:

    explicit PromiseBase(detail::FutureImplPtr<ResultT, ContextT> ptr) :
            p_(std::move(ptr)) {
    }

    void setError(Error error) {
   d659c:	b5f0      	push	{r4, r5, r6, r7, lr}
   d659e:	b089      	sub	sp, #36	; 0x24
   d65a0:	6804      	ldr	r4, [r0, #0]
        p_->setError(std::move(error));
   d65a2:	4668      	mov	r0, sp
   d65a4:	f7ff ff10 	bl	d63c8 <_ZN8particle5ErrorC1EOS0_>
            onSuccess_(nullptr),
            onError_(nullptr) {
    }

    bool changeState(State state) {
        State s = State::RUNNING; // Expected state
   d65a8:	2300      	movs	r3, #0
   d65aa:	f88d 3008 	strb.w	r3, [sp, #8]

      bool
      compare_exchange_strong(_Tp& __e, _Tp __i, memory_order __s, 
			      memory_order __f) noexcept
      {
	return __atomic_compare_exchange(&_M_i, &__e, &__i, false, __s, __f);
   d65ae:	f04f 0202 	mov.w	r2, #2
   d65b2:	e8d4 3f4f 	ldrexb	r3, [r4]
   d65b6:	2b00      	cmp	r3, #0
   d65b8:	d103      	bne.n	d65c2 <_ZN8particle11PromiseBaseIbNS_6detail13FutureContextEE8setErrorENS_5ErrorE+0x26>
   d65ba:	e8c4 2f41 	strexb	r1, r2, [r4]
   d65be:	2900      	cmp	r1, #0
   d65c0:	d1f7      	bne.n	d65b2 <_ZN8particle11PromiseBaseIbNS_6detail13FutureContextEE8setErrorENS_5ErrorE+0x16>
   d65c2:	d002      	beq.n	d65ca <_ZN8particle11PromiseBaseIbNS_6detail13FutureContextEE8setErrorENS_5ErrorE+0x2e>
   d65c4:	f88d 3008 	strb.w	r3, [sp, #8]
   d65c8:	e063      	b.n	d6692 <_ZN8particle11PromiseBaseIbNS_6detail13FutureContextEE8setErrorENS_5ErrorE+0xf6>
        return std::move(defaultValue);
    }

    void setError(Error error) {
        if (this->changeState(State::FAILED)) {
            new(&error_) Error(std::move(error));
   d65ca:	f114 050c 	adds.w	r5, r4, #12
   d65ce:	d003      	beq.n	d65d8 <_ZN8particle11PromiseBaseIbNS_6detail13FutureContextEE8setErrorENS_5ErrorE+0x3c>
   d65d0:	4669      	mov	r1, sp
   d65d2:	4628      	mov	r0, r5
   d65d4:	f7ff fef8 	bl	d63c8 <_ZN8particle5ErrorC1EOS0_>
        memory_order __b = __m & __memory_order_mask;
	__glibcxx_assert(__b != memory_order_acquire);
	__glibcxx_assert(__b != memory_order_acq_rel);
	__glibcxx_assert(__b != memory_order_consume);

	__atomic_store_n(&_M_i, __i, __m);
   d65d8:	f3bf 8f5f 	dmb	sy
   d65dc:	2301      	movs	r3, #1
   d65de:	7063      	strb	r3, [r4, #1]

      _GLIBCXX_ALWAYS_INLINE __pointer_type
      exchange(__pointer_type __p,
	       memory_order __m = memory_order_seq_cst) noexcept
      {
	return __atomic_exchange_n(&_M_p, __p, __m);
   d65e0:	2000      	movs	r0, #0
   d65e2:	f104 0308 	add.w	r3, r4, #8
   d65e6:	f3bf 8f5f 	dmb	sy
   d65ea:	e853 6f00 	ldrex	r6, [r3]
   d65ee:	e843 0200 	strex	r2, r0, [r3]
   d65f2:	2a00      	cmp	r2, #0
   d65f4:	d1f9      	bne.n	d65ea <_ZN8particle11PromiseBaseIbNS_6detail13FutureContextEE8setErrorENS_5ErrorE+0x4e>
   d65f6:	f3bf 8f5f 	dmb	sy

    // Takes a callback from its atomic wrapper and invokes it
    template<typename FunctionT, typename... ArgsT>
    static void invokeCallback(std::atomic<std::function<FunctionT>*>& wrapper, ArgsT&&... args) {
        std::function<FunctionT>* callbackPtr = wrapper.exchange(nullptr, std::memory_order_acq_rel);
        if (callbackPtr) {
   d65fa:	2e00      	cmp	r6, #0
   d65fc:	d049      	beq.n	d6692 <_ZN8particle11PromiseBaseIbNS_6detail13FutureContextEE8setErrorENS_5ErrorE+0xf6>
        return (application_thread_invoke(callback, data, nullptr) == 0);
    }

    // Returns true if current thread is the application thread
    static bool isApplicationThreadCurrent() {
        return (application_thread_current(nullptr) != 0);
   d65fe:	f7ff fd39 	bl	d6074 <application_thread_current>
    }

    // Invokes std::function in the application context
    template<typename FunctionT, typename... ArgsT>
    static void invokeCallback(const std::function<FunctionT>& callback, ArgsT&&... args) {
        if (ContextT::isApplicationThreadCurrent()) {
   d6602:	b120      	cbz	r0, d660e <_ZN8particle11PromiseBaseIbNS_6detail13FutureContextEE8setErrorENS_5ErrorE+0x72>
            callback(std::forward<ArgsT>(args)...); // Synchronous call
   d6604:	4629      	mov	r1, r5
   d6606:	4630      	mov	r0, r6
   d6608:	f7ff ff98 	bl	d653c <_ZNKSt8functionIFvRKN8particle5ErrorEEEclES3_>
   d660c:	e03a      	b.n	d6684 <_ZN8particle11PromiseBaseIbNS_6detail13FutureContextEE8setErrorENS_5ErrorE+0xe8>
	}

     public:
      template<typename... _Args>
	explicit _Bind(const _Functor& __f, _Args&&... __args)
	: _M_f(__f), _M_bound_args(std::forward<_Args>(__args)...)
   d660e:	4631      	mov	r1, r6
   d6610:	a802      	add	r0, sp, #8
   d6612:	f7ff ffb3 	bl	d657c <_ZNSt8functionIFvRKN8particle5ErrorEEEC1ERKS5_>
inline particle::Error::Error(const char* msg) :
        Error(UNKNOWN, msg) {
}

inline particle::Error::Error(const Error& error) :
        Error(error.type_, error.msg_) {
   d6616:	68e0      	ldr	r0, [r4, #12]
   d6618:	f9b4 5010 	ldrsh.w	r5, [r4, #16]
        type_(type) {
}

inline particle::Error::Error(Type type, const char* msg) :
        msg_(msg ? (const char*)strdup(msg) : nullptr),
        type_(type) {
   d661c:	b108      	cbz	r0, d6622 <_ZN8particle11PromiseBaseIbNS_6detail13FutureContextEE8setErrorENS_5ErrorE+0x86>
   d661e:	f002 fad1 	bl	d8bc4 <strdup>
   d6622:	9006      	str	r0, [sp, #24]
        } else {
            // Bind all arguments and wrap resulting function into a pointer
            auto callbackPtr = new std::function<void()>(std::bind(callback, std::forward<ArgsT>(args)...));
   d6624:	2010      	movs	r0, #16
   d6626:	f8ad 501c 	strh.w	r5, [sp, #28]
   d662a:	f7fd fd36 	bl	d409a <_Znwj>
   d662e:	4605      	mov	r5, r0
   d6630:	b1e8      	cbz	r0, d666e <_ZN8particle11PromiseBaseIbNS_6detail13FutureContextEE8setErrorENS_5ErrorE+0xd2>
	{
	  _Base::_M_init_functor(__functor, std::__addressof(__f.get()));
	}
      };

    _Function_base() : _M_manager(nullptr) { }
   d6632:	2700      	movs	r7, #0
   d6634:	6087      	str	r7, [r0, #8]
	_M_init_functor(_Any_data& __functor, _Functor&& __f, true_type)
	{ new (__functor._M_access()) _Functor(std::move(__f)); }

	static void
	_M_init_functor(_Any_data& __functor, _Functor&& __f, false_type)
	{ __functor._M_access<_Functor*>() = new _Functor(std::move(__f)); }
   d6636:	2018      	movs	r0, #24
   d6638:	f7fd fd2f 	bl	d409a <_Znwj>
   d663c:	4604      	mov	r4, r0
   d663e:	b188      	cbz	r0, d6664 <_ZN8particle11PromiseBaseIbNS_6detail13FutureContextEE8setErrorENS_5ErrorE+0xc8>
       *  Swap the targets of @c this function object and @a __f. This
       *  function will not throw an %exception.
       */
      void swap(function& __x)
      {
	std::swap(_M_functor, __x._M_functor);
   d6640:	4601      	mov	r1, r0
	{
	  _Base::_M_init_functor(__functor, std::__addressof(__f.get()));
	}
      };

    _Function_base() : _M_manager(nullptr) { }
   d6642:	6087      	str	r7, [r0, #8]
       *  Swap the targets of @c this function object and @a __f. This
       *  function will not throw an %exception.
       */
      void swap(function& __x)
      {
	std::swap(_M_functor, __x._M_functor);
   d6644:	a802      	add	r0, sp, #8
   d6646:	f7ff ff54 	bl	d64f2 <_ZSt4swapISt9_Any_dataEvRT_S2_>
#endif
    {
      // concept requirements
      __glibcxx_function_requires(_SGIAssignableConcept<_Tp>)

      _Tp __tmp = _GLIBCXX_MOVE(__a);
   d664a:	9b04      	ldr	r3, [sp, #16]
      __a = _GLIBCXX_MOVE(__b);
   d664c:	68a2      	ldr	r2, [r4, #8]
      __b = _GLIBCXX_MOVE(__tmp);
   d664e:	60a3      	str	r3, [r4, #8]
#endif
    {
      // concept requirements
      __glibcxx_function_requires(_SGIAssignableConcept<_Tp>)

      _Tp __tmp = _GLIBCXX_MOVE(__a);
   d6650:	9b05      	ldr	r3, [sp, #20]
      __a = _GLIBCXX_MOVE(__b);
   d6652:	9204      	str	r2, [sp, #16]
      constexpr _Head_base(const _Head_base&) = default;
      constexpr _Head_base(_Head_base&&) = default;

      template<typename _UHead>
        constexpr _Head_base(_UHead&& __h)
	: _M_head_impl(std::forward<_UHead>(__h)) { }
   d6654:	a906      	add	r1, sp, #24
   d6656:	68e2      	ldr	r2, [r4, #12]
      __b = _GLIBCXX_MOVE(__tmp);
   d6658:	60e3      	str	r3, [r4, #12]
   d665a:	f104 0010 	add.w	r0, r4, #16
    {
      // concept requirements
      __glibcxx_function_requires(_SGIAssignableConcept<_Tp>)

      _Tp __tmp = _GLIBCXX_MOVE(__a);
      __a = _GLIBCXX_MOVE(__b);
   d665e:	9205      	str	r2, [sp, #20]
   d6660:	f7ff feb2 	bl	d63c8 <_ZN8particle5ErrorC1EOS0_>
	typedef _Function_handler<_Signature_type, _Functor> _My_handler;

	if (_My_handler::_M_not_empty_function(__f))
	  {
	    _My_handler::_M_init_functor(_M_functor, std::move(__f));
	    _M_invoker = &_My_handler::_M_invoke;
   d6664:	4b0d      	ldr	r3, [pc, #52]	; (d669c <_ZN8particle11PromiseBaseIbNS_6detail13FutureContextEE8setErrorENS_5ErrorE+0x100>)
   d6666:	60eb      	str	r3, [r5, #12]
	    _M_manager = &_My_handler::_M_manager;
   d6668:	4b0d      	ldr	r3, [pc, #52]	; (d66a0 <_ZN8particle11PromiseBaseIbNS_6detail13FutureContextEE8setErrorENS_5ErrorE+0x104>)
	_M_init_functor(_Any_data& __functor, _Functor&& __f, true_type)
	{ new (__functor._M_access()) _Functor(std::move(__f)); }

	static void
	_M_init_functor(_Any_data& __functor, _Functor&& __f, false_type)
	{ __functor._M_access<_Functor*>() = new _Functor(std::move(__f)); }
   d666a:	602c      	str	r4, [r5, #0]

	if (_My_handler::_M_not_empty_function(__f))
	  {
	    _My_handler::_M_init_functor(_M_functor, std::move(__f));
	    _M_invoker = &_My_handler::_M_invoke;
	    _M_manager = &_My_handler::_M_manager;
   d666c:	60ab      	str	r3, [r5, #8]
      static constexpr const _Head&
      _M_head(const _Head_base& __b) noexcept { return __b; }
    };

  template<std::size_t _Idx, typename _Head>
    struct _Head_base<_Idx, _Head, false>
   d666e:	a806      	add	r0, sp, #24
   d6670:	f7ff feb9 	bl	d63e6 <_ZN8particle5ErrorD1Ev>
   *  @ingroup functors
   *
   *  Polymorphic function wrapper.
   */
  template<typename _Res, typename... _ArgTypes>
    class function<_Res(_ArgTypes...)>
   d6674:	a802      	add	r0, sp, #8
   d6676:	f7ff fe9e 	bl	d63b6 <_ZNSt14_Function_baseD1Ev>
        spark_process();
    }

    // Asynchronously invokes a callback in the application context
    static bool invokeApplicationCallback(void (*callback)(void* data), void* data) {
        return (application_thread_invoke(callback, data, nullptr) == 0);
   d667a:	2200      	movs	r2, #0
   d667c:	4629      	mov	r1, r5
   d667e:	4809      	ldr	r0, [pc, #36]	; (d66a4 <_ZN8particle11PromiseBaseIbNS_6detail13FutureContextEE8setErrorENS_5ErrorE+0x108>)
   d6680:	f7ff fd00 	bl	d6084 <application_thread_invoke>
   d6684:	4630      	mov	r0, r6
   d6686:	f7ff fe96 	bl	d63b6 <_ZNSt14_Function_baseD1Ev>
    template<typename FunctionT, typename... ArgsT>
    static void invokeCallback(std::atomic<std::function<FunctionT>*>& wrapper, ArgsT&&... args) {
        std::function<FunctionT>* callbackPtr = wrapper.exchange(nullptr, std::memory_order_acq_rel);
        if (callbackPtr) {
            invokeCallback(*callbackPtr, std::forward<ArgsT>(args)...);
            delete callbackPtr;
   d668a:	2110      	movs	r1, #16
   d668c:	4630      	mov	r0, r6
   d668e:	f001 f924 	bl	d78da <_ZdlPvj>
    explicit PromiseBase(detail::FutureImplPtr<ResultT, ContextT> ptr) :
            p_(std::move(ptr)) {
    }

    void setError(Error error) {
        p_->setError(std::move(error));
   d6692:	4668      	mov	r0, sp
   d6694:	f7ff fea7 	bl	d63e6 <_ZN8particle5ErrorD1Ev>
    }
   d6698:	b009      	add	sp, #36	; 0x24
   d669a:	bdf0      	pop	{r4, r5, r6, r7, pc}
   d669c:	000d654f 	.word	0x000d654f
   d66a0:	000d67c5 	.word	0x000d67c5
   d66a4:	000d6293 	.word	0x000d6293

000d66a8 <_ZN10CloudClass13publish_eventEPKcS1_iN8particle5FlagsI15PublishFlagTypehEE>:

Future<bool> CloudClass::publish_event(const char *eventName, const char *eventData, int ttl, PublishFlags flags) {
   d66a8:	e92d 4ff0 	stmdb	sp!, {r4, r5, r6, r7, r8, r9, sl, fp, lr}
   d66ac:	b08b      	sub	sp, #44	; 0x2c
   d66ae:	4606      	mov	r6, r0
   d66b0:	460f      	mov	r7, r1
   d66b2:	4690      	mov	r8, r2
   d66b4:	4699      	mov	r9, r3
   d66b6:	f89d a050 	ldrb.w	sl, [sp, #80]	; 0x50
    static void sleep(Spark_Sleep_TypeDef sleepMode, long seconds=0) __attribute__ ((deprecated("Please use System.sleep() instead.")))
    { SystemClass::sleep(sleepMode, seconds); }
    static void sleep(uint16_t wakeUpPin, InterruptMode edgeTriggerMode, long seconds=0) __attribute__ ((deprecated("Please use System.sleep() instead.")))
    { SystemClass::sleep(wakeUpPin, edgeTriggerMode, seconds); }

    static bool connected(void) { return spark_cloud_flag_connected(); }
   d66ba:	f7ff fd27 	bl	d610c <spark_cloud_flag_connected>
   d66be:	ad07      	add	r5, sp, #28
    if (!connected()) {
   d66c0:	4683      	mov	fp, r0
   d66c2:	bb30      	cbnz	r0, d6712 <_ZN10CloudClass13publish_eventEPKcS1_iN8particle5FlagsI15PublishFlagTypehEE+0x6a>

} // namespace particle

inline particle::Error::Error(Type type) :
        msg_(nullptr),
        type_(type) {
   d66c4:	f64f 732e 	movw	r3, #65326	; 0xff2e
   d66c8:	9005      	str	r0, [sp, #20]
    typedef typename detail::FutureImpl<ResultT, ContextT>::OnSuccessCallback OnSuccessCallback;
    typedef typename detail::FutureImpl<ResultT, ContextT>::OnErrorCallback OnErrorCallback;

    // Construct failed future
    explicit FutureBase(Error error) :
            p_(new detail::FutureImpl<ResultT, ContextT>(std::move(error))) {
   d66ca:	a905      	add	r1, sp, #20
   d66cc:	4628      	mov	r0, r5
   d66ce:	f8ad 3018 	strh.w	r3, [sp, #24]
   d66d2:	f7ff fe79 	bl	d63c8 <_ZN8particle5ErrorC1EOS0_>
   d66d6:	2014      	movs	r0, #20
   d66d8:	f7fd fcdf 	bl	d409a <_Znwj>
   d66dc:	4604      	mov	r4, r0
   d66de:	b158      	cbz	r0, d66f8 <_ZN10CloudClass13publish_eventEPKcS1_iN8particle5FlagsI15PublishFlagTypehEE+0x50>
      ~atomic() noexcept = default;
      atomic(const atomic&) = delete;
      atomic& operator=(const atomic&) = delete;
      atomic& operator=(const atomic&) volatile = delete;

      constexpr atomic(_Tp __i) noexcept : _M_i(__i) { }
   d66e0:	2302      	movs	r3, #2
   d66e2:	7003      	strb	r3, [r0, #0]
      __atomic_base(const __atomic_base&) = delete;
      __atomic_base& operator=(const __atomic_base&) = delete;
      __atomic_base& operator=(const __atomic_base&) volatile = delete;

      // Requires __int_type convertible to _M_i.
      constexpr __atomic_base(__int_type __i) noexcept : _M_i (__i) { }
   d66e4:	2301      	movs	r3, #1
   d66e6:	7043      	strb	r3, [r0, #1]
      __atomic_base(const __atomic_base&) = delete;
      __atomic_base& operator=(const __atomic_base&) = delete;
      __atomic_base& operator=(const __atomic_base&) volatile = delete;

      // Requires __pointer_type convertible to _M_p.
      constexpr __atomic_base(__pointer_type __p) noexcept : _M_p (__p) { }
   d66e8:	f8c0 b004 	str.w	fp, [r0, #4]
   d66ec:	f8c0 b008 	str.w	fp, [r0, #8]
            result_(std::move(result)) {
    }

    explicit FutureImpl(Error error) :
            FutureImplBase<ResultT, ContextT>(State::FAILED),
            error_(std::move(error)) {
   d66f0:	4629      	mov	r1, r5
   d66f2:	300c      	adds	r0, #12
   d66f4:	f7ff fe68 	bl	d63c8 <_ZN8particle5ErrorC1EOS0_>
      : _M_ptr(0), _M_refcount()
      { }

      template<typename _Tp1>
	explicit __shared_ptr(_Tp1* __p)
        : _M_ptr(__p), _M_refcount(__p)
   d66f8:	4630      	mov	r0, r6
   d66fa:	4621      	mov	r1, r4
   d66fc:	f840 4b04 	str.w	r4, [r0], #4
   d6700:	f7ff ff08 	bl	d6514 <_ZNSt14__shared_countILN9__gnu_cxx12_Lock_policyE0EEC1IPN8particle6detail10FutureImplIbNS5_13FutureContextEEEEET_>
    typedef typename detail::FutureImpl<ResultT, ContextT>::OnSuccessCallback OnSuccessCallback;
    typedef typename detail::FutureImpl<ResultT, ContextT>::OnErrorCallback OnErrorCallback;

    // Construct failed future
    explicit FutureBase(Error error) :
            p_(new detail::FutureImpl<ResultT, ContextT>(std::move(error))) {
   d6704:	4628      	mov	r0, r5
   d6706:	f7ff fe6e 	bl	d63e6 <_ZN8particle5ErrorD1Ev>
    }

    explicit FutureBase(Error::Type error) :
            FutureBase(Error(error)) {
   d670a:	a805      	add	r0, sp, #20
   d670c:	f7ff fe6b 	bl	d63e6 <_ZN8particle5ErrorD1Ev>
   d6710:	e052      	b.n	d67b8 <_ZN10CloudClass13publish_eventEPKcS1_iN8particle5FlagsI15PublishFlagTypehEE+0x110>
        return Future<bool>(Error::INVALID_STATE);
    }
    spark_send_event_data d = { sizeof(spark_send_event_data) };
   d6712:	2400      	movs	r4, #0
   d6714:	230c      	movs	r3, #12
// can be acquired via Future
template<typename ResultT, typename ContextT>
class PromiseBase {
public:
    PromiseBase() :
            p_(new detail::FutureImpl<ResultT, ContextT>(State::RUNNING)) {
   d6716:	2014      	movs	r0, #20
   d6718:	606c      	str	r4, [r5, #4]
   d671a:	60ac      	str	r4, [r5, #8]
   d671c:	9307      	str	r3, [sp, #28]
   d671e:	f7fd fcbc 	bl	d409a <_Znwj>
   d6722:	4601      	mov	r1, r0
   d6724:	b118      	cbz	r0, d672e <_ZN10CloudClass13publish_eventEPKcS1_iN8particle5FlagsI15PublishFlagTypehEE+0x86>
   d6726:	7004      	strb	r4, [r0, #0]
      __atomic_base(const __atomic_base&) = delete;
      __atomic_base& operator=(const __atomic_base&) = delete;
      __atomic_base& operator=(const __atomic_base&) volatile = delete;

      // Requires __int_type convertible to _M_i.
      constexpr __atomic_base(__int_type __i) noexcept : _M_i (__i) { }
   d6728:	7044      	strb	r4, [r0, #1]
      __atomic_base(const __atomic_base&) = delete;
      __atomic_base& operator=(const __atomic_base&) = delete;
      __atomic_base& operator=(const __atomic_base&) volatile = delete;

      // Requires __pointer_type convertible to _M_p.
      constexpr __atomic_base(__pointer_type __p) noexcept : _M_p (__p) { }
   d672a:	6044      	str	r4, [r0, #4]
   d672c:	6084      	str	r4, [r0, #8]
   d672e:	a804      	add	r0, sp, #16
   d6730:	9103      	str	r1, [sp, #12]
   d6732:	f7ff feef 	bl	d6514 <_ZNSt14__shared_countILN9__gnu_cxx12_Lock_policyE0EEC1IPN8particle6detail10FutureImplIbNS5_13FutureContextEEEEET_>

    // Completion handler
    Promise<bool> p;
    d.handler_callback = publishCompletionCallback;
   d6736:	4b22      	ldr	r3, [pc, #136]	; (d67c0 <_ZN10CloudClass13publish_eventEPKcS1_iN8particle5FlagsI15PublishFlagTypehEE+0x118>)
   d6738:	9308      	str	r3, [sp, #32]
    }

    // Wraps this promise into an object pointer that can be passed to a C function
    void* dataPtr() const {
        // TODO: Use custom reference counting object to avoid unnecessary memory allocation
        return new detail::FutureImplPtr<ResultT, ContextT>(p_);
   d673a:	2008      	movs	r0, #8
   d673c:	f7fd fcad 	bl	d409a <_Znwj>
   d6740:	4604      	mov	r4, r0
   d6742:	b128      	cbz	r0, d6750 <_ZN10CloudClass13publish_eventEPKcS1_iN8particle5FlagsI15PublishFlagTypehEE+0xa8>
      template<typename _Tp1>
	__shared_ptr(const __shared_ptr<_Tp1, _Lp>& __r, _Tp* __p) noexcept
	: _M_ptr(__p), _M_refcount(__r._M_refcount) // never throws
	{ }

      __shared_ptr(const __shared_ptr&) noexcept = default;
   d6744:	9b03      	ldr	r3, [sp, #12]
   d6746:	f840 3b04 	str.w	r3, [r0], #4
   d674a:	a904      	add	r1, sp, #16
   d674c:	f7ff fdbd 	bl	d62ca <_ZNSt14__shared_countILN9__gnu_cxx12_Lock_policyE0EEC1ERKS2_>
    d.handler_data = p.dataPtr();

    if (!spark_send_event(eventName, eventData, ttl, flags.value(), &d) && !p.isDone()) {
   d6750:	9500      	str	r5, [sp, #0]
   d6752:	fa5f f38a 	uxtb.w	r3, sl
   d6756:	464a      	mov	r2, r9
   d6758:	4641      	mov	r1, r8
   d675a:	4638      	mov	r0, r7
    spark_send_event_data d = { sizeof(spark_send_event_data) };

    // Completion handler
    Promise<bool> p;
    d.handler_callback = publishCompletionCallback;
    d.handler_data = p.dataPtr();
   d675c:	9409      	str	r4, [sp, #36]	; 0x24

    if (!spark_send_event(eventName, eventData, ttl, flags.value(), &d) && !p.isDone()) {
   d675e:	f7ff fce5 	bl	d612c <spark_send_event>
   d6762:	b920      	cbnz	r0, d676e <_ZN10CloudClass13publish_eventEPKcS1_iN8particle5FlagsI15PublishFlagTypehEE+0xc6>
      {
       memory_order __b = __m & __memory_order_mask;
	__glibcxx_assert(__b != memory_order_release);
	__glibcxx_assert(__b != memory_order_acq_rel);

	return __atomic_load_n(&_M_i, __m);
   d6764:	9b03      	ldr	r3, [sp, #12]
   d6766:	785b      	ldrb	r3, [r3, #1]
   d6768:	f003 02ff 	and.w	r2, r3, #255	; 0xff
   d676c:	b183      	cbz	r3, d6790 <_ZN10CloudClass13publish_eventEPKcS1_iN8particle5FlagsI15PublishFlagTypehEE+0xe8>
   d676e:	9b03      	ldr	r3, [sp, #12]
   d6770:	9305      	str	r3, [sp, #20]
   d6772:	a904      	add	r1, sp, #16
   d6774:	a806      	add	r0, sp, #24
   d6776:	f7ff fda8 	bl	d62ca <_ZNSt14__shared_countILN9__gnu_cxx12_Lock_policyE0EEC1ERKS2_>
    bool isDone() const {
        return p_->isDone();
    }

    Future<ResultT, ContextT> future() const {
        return Future<ResultT, ContextT>(p_);
   d677a:	a905      	add	r1, sp, #20
   d677c:	4630      	mov	r0, r6
   d677e:	f7ff fe89 	bl	d6494 <_ZN8particle6FutureIbNS_6detail13FutureContextEEC1ESt10shared_ptrINS1_10FutureImplIbS2_EEE>
      __shared_ptr& operator=(const __shared_ptr&) noexcept = default;
      ~__shared_ptr() = default;
   d6782:	a806      	add	r0, sp, #24
   d6784:	f7fe faba 	bl	d4cfc <_ZNSt14__shared_countILN9__gnu_cxx12_Lock_policyE0EED1Ev>
   d6788:	a804      	add	r0, sp, #16
   d678a:	f7fe fab7 	bl	d4cfc <_ZNSt14__shared_countILN9__gnu_cxx12_Lock_policyE0EED1Ev>
   d678e:	e013      	b.n	d67b8 <_ZN10CloudClass13publish_eventEPKcS1_iN8particle5FlagsI15PublishFlagTypehEE+0x110>
   d6790:	f64f 739c 	movw	r3, #65436	; 0xff9c
        // Set generic error code in case completion callback wasn't invoked for some reason
        p.setError(Error::UNKNOWN);
   d6794:	a905      	add	r1, sp, #20
   d6796:	a803      	add	r0, sp, #12
   d6798:	9205      	str	r2, [sp, #20]
   d679a:	f8ad 3018 	strh.w	r3, [sp, #24]
   d679e:	f7ff fefd 	bl	d659c <_ZN8particle11PromiseBaseIbNS_6detail13FutureContextEE8setErrorENS_5ErrorE>
   d67a2:	a805      	add	r0, sp, #20
   d67a4:	f7ff fe1f 	bl	d63e6 <_ZN8particle5ErrorD1Ev>
        p.fromDataPtr(d.handler_data); // Free wrapper object
   d67a8:	a805      	add	r0, sp, #20
   d67aa:	9909      	ldr	r1, [sp, #36]	; 0x24
   d67ac:	f7ff fe83 	bl	d64b6 <_ZN8particle11PromiseBaseIbNS_6detail13FutureContextEE11fromDataPtrEPv>
   d67b0:	a806      	add	r0, sp, #24
   d67b2:	f7fe faa3 	bl	d4cfc <_ZNSt14__shared_countILN9__gnu_cxx12_Lock_policyE0EED1Ev>
   d67b6:	e7da      	b.n	d676e <_ZN10CloudClass13publish_eventEPKcS1_iN8particle5FlagsI15PublishFlagTypehEE+0xc6>
    }

    return p.future();
}
   d67b8:	4630      	mov	r0, r6
   d67ba:	b00b      	add	sp, #44	; 0x2c
   d67bc:	e8bd 8ff0 	ldmia.w	sp!, {r4, r5, r6, r7, r8, r9, sl, fp, pc}
   d67c0:	000d6935 	.word	0x000d6935

000d67c4 <_ZNSt14_Function_base13_Base_managerISt5_BindIFSt8functionIFvRKN8particle5ErrorEEES4_EEE10_M_managerERSt9_Any_dataRKSC_St18_Manager_operation>:
      public:
	static bool
	_M_manager(_Any_data& __dest, const _Any_data& __source,
		   _Manager_operation __op)
	{
	  switch (__op)
   d67c4:	2a02      	cmp	r2, #2
	  delete __victim._M_access<_Functor*>();
	}

      public:
	static bool
	_M_manager(_Any_data& __dest, const _Any_data& __source,
   d67c6:	b5f8      	push	{r3, r4, r5, r6, r7, lr}
   d67c8:	4604      	mov	r4, r0
		   _Manager_operation __op)
	{
	  switch (__op)
   d67ca:	d006      	beq.n	d67da <_ZNSt14_Function_base13_Base_managerISt5_BindIFSt8functionIFvRKN8particle5ErrorEEES4_EEE10_M_managerERSt9_Any_dataRKSC_St18_Manager_operation+0x16>
   d67cc:	2a03      	cmp	r2, #3
   d67ce:	d017      	beq.n	d6800 <_ZNSt14_Function_base13_Base_managerISt5_BindIFSt8functionIFvRKN8particle5ErrorEEES4_EEE10_M_managerERSt9_Any_dataRKSC_St18_Manager_operation+0x3c>
   d67d0:	2a01      	cmp	r2, #1
   d67d2:	d122      	bne.n	d681a <_ZNSt14_Function_base13_Base_managerISt5_BindIFSt8functionIFvRKN8particle5ErrorEEES4_EEE10_M_managerERSt9_Any_dataRKSC_St18_Manager_operation+0x56>
	static _Functor*
	_M_get_pointer(const _Any_data& __source)
	{
	  const _Functor* __ptr =
	    __stored_locally? std::__addressof(__source._M_access<_Functor>())
	    /* have stored a pointer */ : __source._M_access<_Functor*>();
   d67d4:	680b      	ldr	r3, [r1, #0]
	    case __get_type_info:
	      __dest._M_access<const type_info*>() = &typeid(_Functor);
	      break;
#endif
	    case __get_functor_ptr:
	      __dest._M_access<_Functor*>() = _M_get_pointer(__source);
   d67d6:	6003      	str	r3, [r0, #0]
	      break;
   d67d8:	e01f      	b.n	d681a <_ZNSt14_Function_base13_Base_managerISt5_BindIFSt8functionIFvRKN8particle5ErrorEEES4_EEE10_M_managerERSt9_Any_dataRKSC_St18_Manager_operation+0x56>
	// Clone a function object that is not location-invariant or
	// that cannot fit into an _Any_data structure.
	static void
	_M_clone(_Any_data& __dest, const _Any_data& __source, false_type)
	{
	  __dest._M_access<_Functor*>() =
   d67da:	2018      	movs	r0, #24
   d67dc:	680e      	ldr	r6, [r1, #0]
   d67de:	f7fd fc5c 	bl	d409a <_Znwj>
   d67e2:	4605      	mov	r5, r0
   d67e4:	b150      	cbz	r0, d67fc <_ZNSt14_Function_base13_Base_managerISt5_BindIFSt8functionIFvRKN8particle5ErrorEEES4_EEE10_M_managerERSt9_Any_dataRKSC_St18_Manager_operation+0x38>
      template<typename... _Args>
	explicit _Bind(_Functor&& __f, _Args&&... __args)
	: _M_f(std::move(__f)), _M_bound_args(std::forward<_Args>(__args)...)
	{ }

      _Bind(const _Bind&) = default;
   d67e6:	4631      	mov	r1, r6
   d67e8:	f7ff fec8 	bl	d657c <_ZNSt8functionIFvRKN8particle5ErrorEEEC1ERKS5_>
inline particle::Error::Error(const char* msg) :
        Error(UNKNOWN, msg) {
}

inline particle::Error::Error(const Error& error) :
        Error(error.type_, error.msg_) {
   d67ec:	6930      	ldr	r0, [r6, #16]
   d67ee:	f9b6 7014 	ldrsh.w	r7, [r6, #20]
        type_(type) {
}

inline particle::Error::Error(Type type, const char* msg) :
        msg_(msg ? (const char*)strdup(msg) : nullptr),
        type_(type) {
   d67f2:	b108      	cbz	r0, d67f8 <_ZNSt14_Function_base13_Base_managerISt5_BindIFSt8functionIFvRKN8particle5ErrorEEES4_EEE10_M_managerERSt9_Any_dataRKSC_St18_Manager_operation+0x34>
   d67f4:	f002 f9e6 	bl	d8bc4 <strdup>
   d67f8:	6128      	str	r0, [r5, #16]
   d67fa:	82af      	strh	r7, [r5, #20]
	// Clone a function object that is not location-invariant or
	// that cannot fit into an _Any_data structure.
	static void
	_M_clone(_Any_data& __dest, const _Any_data& __source, false_type)
	{
	  __dest._M_access<_Functor*>() =
   d67fc:	6025      	str	r5, [r4, #0]
   d67fe:	e00c      	b.n	d681a <_ZNSt14_Function_base13_Base_managerISt5_BindIFSt8functionIFvRKN8particle5ErrorEEES4_EEE10_M_managerERSt9_Any_dataRKSC_St18_Manager_operation+0x56>

	// Destroying an object located on the heap.
	static void
	_M_destroy(_Any_data& __victim, false_type)
	{
	  delete __victim._M_access<_Functor*>();
   d6800:	6804      	ldr	r4, [r0, #0]
   d6802:	b154      	cbz	r4, d681a <_ZNSt14_Function_base13_Base_managerISt5_BindIFSt8functionIFvRKN8particle5ErrorEEES4_EEE10_M_managerERSt9_Any_dataRKSC_St18_Manager_operation+0x56>
   d6804:	f104 0010 	add.w	r0, r4, #16
   d6808:	f7ff fded 	bl	d63e6 <_ZN8particle5ErrorD1Ev>
   *  @ingroup functors
   *
   *  Polymorphic function wrapper.
   */
  template<typename _Res, typename... _ArgTypes>
    class function<_Res(_ArgTypes...)>
   d680c:	4620      	mov	r0, r4
   d680e:	f7ff fdd2 	bl	d63b6 <_ZNSt14_Function_baseD1Ev>

	// Destroying an object located on the heap.
	static void
	_M_destroy(_Any_data& __victim, false_type)
	{
	  delete __victim._M_access<_Functor*>();
   d6812:	2118      	movs	r1, #24
   d6814:	4620      	mov	r0, r4
   d6816:	f001 f860 	bl	d78da <_ZdlPvj>
	    case __destroy_functor:
	      _M_destroy(__dest, _Local_storage());
	      break;
	    }
	  return false;
	}
   d681a:	2000      	movs	r0, #0
   d681c:	bdf8      	pop	{r3, r4, r5, r6, r7, pc}

000d681e <_ZNSt8functionIFvRKbEEC1ERKS3_>:
      _Invoker_type _M_invoker;
  };

  // Out-of-line member definitions.
  template<typename _Res, typename... _ArgTypes>
    function<_Res(_ArgTypes...)>::
   d681e:	b538      	push	{r3, r4, r5, lr}
	{
	  _Base::_M_init_functor(__functor, std::__addressof(__f.get()));
	}
      };

    _Function_base() : _M_manager(nullptr) { }
   d6820:	2300      	movs	r3, #0
   d6822:	6083      	str	r3, [r0, #8]
   d6824:	688b      	ldr	r3, [r1, #8]
      _Invoker_type _M_invoker;
  };

  // Out-of-line member definitions.
  template<typename _Res, typename... _ArgTypes>
    function<_Res(_ArgTypes...)>::
   d6826:	4604      	mov	r4, r0
   d6828:	460d      	mov	r5, r1
    function(const function& __x)
    : _Function_base()
    {
      if (static_cast<bool>(__x))
   d682a:	b12b      	cbz	r3, d6838 <_ZNSt8functionIFvRKbEEC1ERKS3_+0x1a>
	{
	  __x._M_manager(_M_functor, __x._M_functor, __clone_functor);
   d682c:	2202      	movs	r2, #2
   d682e:	4798      	blx	r3
	  _M_invoker = __x._M_invoker;
   d6830:	68eb      	ldr	r3, [r5, #12]
   d6832:	60e3      	str	r3, [r4, #12]
	  _M_manager = __x._M_manager;
   d6834:	68ab      	ldr	r3, [r5, #8]
   d6836:	60a3      	str	r3, [r4, #8]
	}
    }
   d6838:	4620      	mov	r0, r4
   d683a:	bd38      	pop	{r3, r4, r5, pc}

000d683c <_ZNSt14_Function_base13_Base_managerISt5_BindIFSt8functionIFvRKbEEbEEE10_M_managerERSt9_Any_dataRKSA_St18_Manager_operation>:
      public:
	static bool
	_M_manager(_Any_data& __dest, const _Any_data& __source,
		   _Manager_operation __op)
	{
	  switch (__op)
   d683c:	2a02      	cmp	r2, #2
	  delete __victim._M_access<_Functor*>();
	}

      public:
	static bool
	_M_manager(_Any_data& __dest, const _Any_data& __source,
   d683e:	b570      	push	{r4, r5, r6, lr}
   d6840:	4604      	mov	r4, r0
		   _Manager_operation __op)
	{
	  switch (__op)
   d6842:	d006      	beq.n	d6852 <_ZNSt14_Function_base13_Base_managerISt5_BindIFSt8functionIFvRKbEEbEEE10_M_managerERSt9_Any_dataRKSA_St18_Manager_operation+0x16>
   d6844:	2a03      	cmp	r2, #3
   d6846:	d011      	beq.n	d686c <_ZNSt14_Function_base13_Base_managerISt5_BindIFSt8functionIFvRKbEEbEEE10_M_managerERSt9_Any_dataRKSA_St18_Manager_operation+0x30>
   d6848:	2a01      	cmp	r2, #1
   d684a:	d118      	bne.n	d687e <_ZNSt14_Function_base13_Base_managerISt5_BindIFSt8functionIFvRKbEEbEEE10_M_managerERSt9_Any_dataRKSA_St18_Manager_operation+0x42>
	static _Functor*
	_M_get_pointer(const _Any_data& __source)
	{
	  const _Functor* __ptr =
	    __stored_locally? std::__addressof(__source._M_access<_Functor>())
	    /* have stored a pointer */ : __source._M_access<_Functor*>();
   d684c:	680b      	ldr	r3, [r1, #0]
	    case __get_type_info:
	      __dest._M_access<const type_info*>() = &typeid(_Functor);
	      break;
#endif
	    case __get_functor_ptr:
	      __dest._M_access<_Functor*>() = _M_get_pointer(__source);
   d684e:	6003      	str	r3, [r0, #0]
	      break;
   d6850:	e015      	b.n	d687e <_ZNSt14_Function_base13_Base_managerISt5_BindIFSt8functionIFvRKbEEbEEE10_M_managerERSt9_Any_dataRKSA_St18_Manager_operation+0x42>
	// Clone a function object that is not location-invariant or
	// that cannot fit into an _Any_data structure.
	static void
	_M_clone(_Any_data& __dest, const _Any_data& __source, false_type)
	{
	  __dest._M_access<_Functor*>() =
   d6852:	2014      	movs	r0, #20
   d6854:	680e      	ldr	r6, [r1, #0]
   d6856:	f7fd fc20 	bl	d409a <_Znwj>
   d685a:	4605      	mov	r5, r0
   d685c:	b120      	cbz	r0, d6868 <_ZNSt14_Function_base13_Base_managerISt5_BindIFSt8functionIFvRKbEEbEEE10_M_managerERSt9_Any_dataRKSA_St18_Manager_operation+0x2c>
      template<typename... _Args>
	explicit _Bind(_Functor&& __f, _Args&&... __args)
	: _M_f(std::move(__f)), _M_bound_args(std::forward<_Args>(__args)...)
	{ }

      _Bind(const _Bind&) = default;
   d685e:	4631      	mov	r1, r6
   d6860:	f7ff ffdd 	bl	d681e <_ZNSt8functionIFvRKbEEC1ERKS3_>
   d6864:	7c33      	ldrb	r3, [r6, #16]
   d6866:	742b      	strb	r3, [r5, #16]
	// Clone a function object that is not location-invariant or
	// that cannot fit into an _Any_data structure.
	static void
	_M_clone(_Any_data& __dest, const _Any_data& __source, false_type)
	{
	  __dest._M_access<_Functor*>() =
   d6868:	6025      	str	r5, [r4, #0]
   d686a:	e008      	b.n	d687e <_ZNSt14_Function_base13_Base_managerISt5_BindIFSt8functionIFvRKbEEbEEE10_M_managerERSt9_Any_dataRKSA_St18_Manager_operation+0x42>

	// Destroying an object located on the heap.
	static void
	_M_destroy(_Any_data& __victim, false_type)
	{
	  delete __victim._M_access<_Functor*>();
   d686c:	6804      	ldr	r4, [r0, #0]
   d686e:	b134      	cbz	r4, d687e <_ZNSt14_Function_base13_Base_managerISt5_BindIFSt8functionIFvRKbEEbEEE10_M_managerERSt9_Any_dataRKSA_St18_Manager_operation+0x42>
   *  @ingroup functors
   *
   *  Polymorphic function wrapper.
   */
  template<typename _Res, typename... _ArgTypes>
    class function<_Res(_ArgTypes...)>
   d6870:	4620      	mov	r0, r4
   d6872:	f7ff fda0 	bl	d63b6 <_ZNSt14_Function_baseD1Ev>

	// Destroying an object located on the heap.
	static void
	_M_destroy(_Any_data& __victim, false_type)
	{
	  delete __victim._M_access<_Functor*>();
   d6876:	2114      	movs	r1, #20
   d6878:	4620      	mov	r0, r4
   d687a:	f001 f82e 	bl	d78da <_ZdlPvj>
	    case __destroy_functor:
	      _M_destroy(__dest, _Local_storage());
	      break;
	    }
	  return false;
	}
   d687e:	2000      	movs	r0, #0
   d6880:	bd70      	pop	{r4, r5, r6, pc}
	...

000d6884 <_ZN8particle6detail14FutureImplBaseIbNS0_13FutureContextEE14invokeCallbackIFvRKbEIRbEEEvRSt6atomicIPSt8functionIT_EEDpOT0_>:
        delete callbackPtr; // Delete old callback
    }

    // Takes a callback from its atomic wrapper and invokes it
    template<typename FunctionT, typename... ArgsT>
    static void invokeCallback(std::atomic<std::function<FunctionT>*>& wrapper, ArgsT&&... args) {
   d6884:	b5f0      	push	{r4, r5, r6, r7, lr}

      _GLIBCXX_ALWAYS_INLINE __pointer_type
      exchange(__pointer_type __p,
	       memory_order __m = memory_order_seq_cst) noexcept
      {
	return __atomic_exchange_n(&_M_p, __p, __m);
   d6886:	2300      	movs	r3, #0
   d6888:	b087      	sub	sp, #28
   d688a:	460c      	mov	r4, r1
   d688c:	f3bf 8f5f 	dmb	sy
   d6890:	e850 6f00 	ldrex	r6, [r0]
   d6894:	e840 3200 	strex	r2, r3, [r0]
   d6898:	2a00      	cmp	r2, #0
   d689a:	d1f9      	bne.n	d6890 <_ZN8particle6detail14FutureImplBaseIbNS0_13FutureContextEE14invokeCallbackIFvRKbEIRbEEEvRSt6atomicIPSt8functionIT_EEDpOT0_+0xc>
   d689c:	f3bf 8f5f 	dmb	sy
        std::function<FunctionT>* callbackPtr = wrapper.exchange(nullptr, std::memory_order_acq_rel);
        if (callbackPtr) {
   d68a0:	2e00      	cmp	r6, #0
   d68a2:	d03f      	beq.n	d6924 <_ZN8particle6detail14FutureImplBaseIbNS0_13FutureContextEE14invokeCallbackIFvRKbEIRbEEEvRSt6atomicIPSt8functionIT_EEDpOT0_+0xa0>
        return (application_thread_invoke(callback, data, nullptr) == 0);
    }

    // Returns true if current thread is the application thread
    static bool isApplicationThreadCurrent() {
        return (application_thread_current(nullptr) != 0);
   d68a4:	4618      	mov	r0, r3
   d68a6:	f7ff fbe5 	bl	d6074 <application_thread_current>
    }

    // Invokes std::function in the application context
    template<typename FunctionT, typename... ArgsT>
    static void invokeCallback(const std::function<FunctionT>& callback, ArgsT&&... args) {
        if (ContextT::isApplicationThreadCurrent()) {
   d68aa:	4607      	mov	r7, r0
   d68ac:	b120      	cbz	r0, d68b8 <_ZN8particle6detail14FutureImplBaseIbNS0_13FutureContextEE14invokeCallbackIFvRKbEIRbEEEvRSt6atomicIPSt8functionIT_EEDpOT0_+0x34>
            callback(std::forward<ArgsT>(args)...); // Synchronous call
   d68ae:	4621      	mov	r1, r4
   d68b0:	4630      	mov	r0, r6
   d68b2:	f7ff fe53 	bl	d655c <_ZNKSt8functionIFvRKbEEclES1_>
   d68b6:	e02e      	b.n	d6916 <_ZN8particle6detail14FutureImplBaseIbNS0_13FutureContextEE14invokeCallbackIFvRKbEIRbEEEvRSt6atomicIPSt8functionIT_EEDpOT0_+0x92>
	}

     public:
      template<typename... _Args>
	explicit _Bind(const _Functor& __f, _Args&&... __args)
	: _M_f(__f), _M_bound_args(std::forward<_Args>(__args)...)
   d68b8:	4631      	mov	r1, r6
   d68ba:	a801      	add	r0, sp, #4
   d68bc:	f7ff ffaf 	bl	d681e <_ZNSt8functionIFvRKbEEC1ERKS3_>
      constexpr _Head_base(const _Head_base&) = default;
      constexpr _Head_base(_Head_base&&) = default;

      template<typename _UHead>
        constexpr _Head_base(_UHead&& __h)
	: _M_head_impl(std::forward<_UHead>(__h)) { }
   d68c0:	7823      	ldrb	r3, [r4, #0]
   d68c2:	f88d 3014 	strb.w	r3, [sp, #20]
        } else {
            // Bind all arguments and wrap resulting function into a pointer
            auto callbackPtr = new std::function<void()>(std::bind(callback, std::forward<ArgsT>(args)...));
   d68c6:	2010      	movs	r0, #16
   d68c8:	f7fd fbe7 	bl	d409a <_Znwj>
   d68cc:	4605      	mov	r5, r0
   d68ce:	b1d0      	cbz	r0, d6906 <_ZN8particle6detail14FutureImplBaseIbNS0_13FutureContextEE14invokeCallbackIFvRKbEIRbEEEvRSt6atomicIPSt8functionIT_EEDpOT0_+0x82>
	{
	  _Base::_M_init_functor(__functor, std::__addressof(__f.get()));
	}
      };

    _Function_base() : _M_manager(nullptr) { }
   d68d0:	6087      	str	r7, [r0, #8]
	_M_init_functor(_Any_data& __functor, _Functor&& __f, true_type)
	{ new (__functor._M_access()) _Functor(std::move(__f)); }

	static void
	_M_init_functor(_Any_data& __functor, _Functor&& __f, false_type)
	{ __functor._M_access<_Functor*>() = new _Functor(std::move(__f)); }
   d68d2:	2014      	movs	r0, #20
   d68d4:	f7fd fbe1 	bl	d409a <_Znwj>
   d68d8:	4604      	mov	r4, r0
   d68da:	b178      	cbz	r0, d68fc <_ZN8particle6detail14FutureImplBaseIbNS0_13FutureContextEE14invokeCallbackIFvRKbEIRbEEEvRSt6atomicIPSt8functionIT_EEDpOT0_+0x78>
	{
	  _Base::_M_init_functor(__functor, std::__addressof(__f.get()));
	}
      };

    _Function_base() : _M_manager(nullptr) { }
   d68dc:	6087      	str	r7, [r0, #8]
       *  Swap the targets of @c this function object and @a __f. This
       *  function will not throw an %exception.
       */
      void swap(function& __x)
      {
	std::swap(_M_functor, __x._M_functor);
   d68de:	4601      	mov	r1, r0
   d68e0:	a801      	add	r0, sp, #4
   d68e2:	f7ff fe06 	bl	d64f2 <_ZSt4swapISt9_Any_dataEvRT_S2_>
#endif
    {
      // concept requirements
      __glibcxx_function_requires(_SGIAssignableConcept<_Tp>)

      _Tp __tmp = _GLIBCXX_MOVE(__a);
   d68e6:	9b03      	ldr	r3, [sp, #12]
      __a = _GLIBCXX_MOVE(__b);
   d68e8:	68a2      	ldr	r2, [r4, #8]
      __b = _GLIBCXX_MOVE(__tmp);
   d68ea:	60a3      	str	r3, [r4, #8]
#endif
    {
      // concept requirements
      __glibcxx_function_requires(_SGIAssignableConcept<_Tp>)

      _Tp __tmp = _GLIBCXX_MOVE(__a);
   d68ec:	9b04      	ldr	r3, [sp, #16]
      __a = _GLIBCXX_MOVE(__b);
   d68ee:	9203      	str	r2, [sp, #12]
   d68f0:	68e2      	ldr	r2, [r4, #12]
      __b = _GLIBCXX_MOVE(__tmp);
   d68f2:	60e3      	str	r3, [r4, #12]
   d68f4:	f89d 3014 	ldrb.w	r3, [sp, #20]
    {
      // concept requirements
      __glibcxx_function_requires(_SGIAssignableConcept<_Tp>)

      _Tp __tmp = _GLIBCXX_MOVE(__a);
      __a = _GLIBCXX_MOVE(__b);
   d68f8:	9204      	str	r2, [sp, #16]
   d68fa:	7423      	strb	r3, [r4, #16]
	typedef _Function_handler<_Signature_type, _Functor> _My_handler;

	if (_My_handler::_M_not_empty_function(__f))
	  {
	    _My_handler::_M_init_functor(_M_functor, std::move(__f));
	    _M_invoker = &_My_handler::_M_invoke;
   d68fc:	4b0a      	ldr	r3, [pc, #40]	; (d6928 <_ZN8particle6detail14FutureImplBaseIbNS0_13FutureContextEE14invokeCallbackIFvRKbEIRbEEEvRSt6atomicIPSt8functionIT_EEDpOT0_+0xa4>)
   d68fe:	60eb      	str	r3, [r5, #12]
	    _M_manager = &_My_handler::_M_manager;
   d6900:	4b0a      	ldr	r3, [pc, #40]	; (d692c <_ZN8particle6detail14FutureImplBaseIbNS0_13FutureContextEE14invokeCallbackIFvRKbEIRbEEEvRSt6atomicIPSt8functionIT_EEDpOT0_+0xa8>)
	_M_init_functor(_Any_data& __functor, _Functor&& __f, true_type)
	{ new (__functor._M_access()) _Functor(std::move(__f)); }

	static void
	_M_init_functor(_Any_data& __functor, _Functor&& __f, false_type)
	{ __functor._M_access<_Functor*>() = new _Functor(std::move(__f)); }
   d6902:	602c      	str	r4, [r5, #0]

	if (_My_handler::_M_not_empty_function(__f))
	  {
	    _My_handler::_M_init_functor(_M_functor, std::move(__f));
	    _M_invoker = &_My_handler::_M_invoke;
	    _M_manager = &_My_handler::_M_manager;
   d6904:	60ab      	str	r3, [r5, #8]
   *  @ingroup functors
   *
   *  Polymorphic function wrapper.
   */
  template<typename _Res, typename... _ArgTypes>
    class function<_Res(_ArgTypes...)>
   d6906:	a801      	add	r0, sp, #4
   d6908:	f7ff fd55 	bl	d63b6 <_ZNSt14_Function_baseD1Ev>
        spark_process();
    }

    // Asynchronously invokes a callback in the application context
    static bool invokeApplicationCallback(void (*callback)(void* data), void* data) {
        return (application_thread_invoke(callback, data, nullptr) == 0);
   d690c:	2200      	movs	r2, #0
   d690e:	4629      	mov	r1, r5
   d6910:	4807      	ldr	r0, [pc, #28]	; (d6930 <_ZN8particle6detail14FutureImplBaseIbNS0_13FutureContextEE14invokeCallbackIFvRKbEIRbEEEvRSt6atomicIPSt8functionIT_EEDpOT0_+0xac>)
   d6912:	f7ff fbb7 	bl	d6084 <application_thread_invoke>
   d6916:	4630      	mov	r0, r6
   d6918:	f7ff fd4d 	bl	d63b6 <_ZNSt14_Function_baseD1Ev>
    template<typename FunctionT, typename... ArgsT>
    static void invokeCallback(std::atomic<std::function<FunctionT>*>& wrapper, ArgsT&&... args) {
        std::function<FunctionT>* callbackPtr = wrapper.exchange(nullptr, std::memory_order_acq_rel);
        if (callbackPtr) {
            invokeCallback(*callbackPtr, std::forward<ArgsT>(args)...);
            delete callbackPtr;
   d691c:	2110      	movs	r1, #16
   d691e:	4630      	mov	r0, r6
   d6920:	f000 ffdb 	bl	d78da <_ZdlPvj>
        }
    }
   d6924:	b007      	add	sp, #28
   d6926:	bdf0      	pop	{r4, r5, r6, r7, pc}
   d6928:	000d656f 	.word	0x000d656f
   d692c:	000d683d 	.word	0x000d683d
   d6930:	000d6293 	.word	0x000d6293

000d6934 <_ZN12_GLOBAL__N_125publishCompletionCallbackEiPKvPvS2_>:

namespace {

using namespace particle;

void publishCompletionCallback(int error, const void* data, void* callbackData, void* reserved) {
   d6934:	b530      	push	{r4, r5, lr}
   d6936:	b085      	sub	sp, #20
   d6938:	4604      	mov	r4, r0
   d693a:	460d      	mov	r5, r1
    auto p = Promise<bool>::fromDataPtr(callbackData);
   d693c:	4668      	mov	r0, sp
   d693e:	4611      	mov	r1, r2
   d6940:	f7ff fdb9 	bl	d64b6 <_ZN8particle11PromiseBaseIbNS_6detail13FutureContextEE11fromDataPtrEPv>
    if (error != Error::NONE) {
   d6944:	b17c      	cbz	r4, d6966 <_ZN12_GLOBAL__N_125publishCompletionCallbackEiPKvPvS2_+0x32>
        p.setError(Error((Error::Type)error, (const char*)data));
   d6946:	b224      	sxth	r4, r4
   d6948:	4628      	mov	r0, r5
   d694a:	b10d      	cbz	r5, d6950 <_ZN12_GLOBAL__N_125publishCompletionCallbackEiPKvPvS2_+0x1c>
   d694c:	f002 f93a 	bl	d8bc4 <strdup>
   d6950:	9002      	str	r0, [sp, #8]
   d6952:	a902      	add	r1, sp, #8
   d6954:	4668      	mov	r0, sp
   d6956:	f8ad 400c 	strh.w	r4, [sp, #12]
   d695a:	f7ff fe1f 	bl	d659c <_ZN8particle11PromiseBaseIbNS_6detail13FutureContextEE8setErrorENS_5ErrorE>
   d695e:	a802      	add	r0, sp, #8
   d6960:	f7ff fd41 	bl	d63e6 <_ZN8particle5ErrorD1Ev>
   d6964:	e01d      	b.n	d69a2 <_ZN12_GLOBAL__N_125publishCompletionCallbackEiPKvPvS2_+0x6e>
   d6966:	9800      	ldr	r0, [sp, #0]
            onSuccess_(nullptr),
            onError_(nullptr) {
    }

    bool changeState(State state) {
        State s = State::RUNNING; // Expected state
   d6968:	f88d 4008 	strb.w	r4, [sp, #8]

      bool
      compare_exchange_strong(_Tp& __e, _Tp __i, memory_order __s, 
			      memory_order __f) noexcept
      {
	return __atomic_compare_exchange(&_M_i, &__e, &__i, false, __s, __f);
   d696c:	f04f 0201 	mov.w	r2, #1
   d6970:	e8d0 3f4f 	ldrexb	r3, [r0]
   d6974:	42a3      	cmp	r3, r4
   d6976:	d103      	bne.n	d6980 <_ZN12_GLOBAL__N_125publishCompletionCallbackEiPKvPvS2_+0x4c>
   d6978:	e8c0 2f41 	strexb	r1, r2, [r0]
   d697c:	2900      	cmp	r1, #0
   d697e:	d1f7      	bne.n	d6970 <_ZN12_GLOBAL__N_125publishCompletionCallbackEiPKvPvS2_+0x3c>
   d6980:	d002      	beq.n	d6988 <_ZN12_GLOBAL__N_125publishCompletionCallbackEiPKvPvS2_+0x54>
   d6982:	f88d 3008 	strb.w	r3, [sp, #8]
   d6986:	e00c      	b.n	d69a2 <_ZN12_GLOBAL__N_125publishCompletionCallbackEiPKvPvS2_+0x6e>
        }
    }

    void setResult(ResultT result) {
        if (this->changeState(State::SUCCEEDED)) {
            new(&result_) ResultT(std::move(result));
   d6988:	f110 010c 	adds.w	r1, r0, #12
   d698c:	f04f 0301 	mov.w	r3, #1
   d6990:	bf18      	it	ne
   d6992:	7303      	strbne	r3, [r0, #12]
        memory_order __b = __m & __memory_order_mask;
	__glibcxx_assert(__b != memory_order_acquire);
	__glibcxx_assert(__b != memory_order_acq_rel);
	__glibcxx_assert(__b != memory_order_consume);

	__atomic_store_n(&_M_i, __i, __m);
   d6994:	f3bf 8f5f 	dmb	sy
            this->releaseDone();
            this->invokeCallback(this->onSuccess_, result_);
   d6998:	3004      	adds	r0, #4
   d699a:	f800 3c03 	strb.w	r3, [r0, #-3]
   d699e:	f7ff ff71 	bl	d6884 <_ZN8particle6detail14FutureImplBaseIbNS0_13FutureContextEE14invokeCallbackIFvRKbEIRbEEEvRSt6atomicIPSt8functionIT_EEDpOT0_>
   d69a2:	a801      	add	r0, sp, #4
   d69a4:	f7fe f9aa 	bl	d4cfc <_ZNSt14__shared_countILN9__gnu_cxx12_Lock_policyE0EED1Ev>
    } else {
        p.setResult(true);
    }
}
   d69a8:	b005      	add	sp, #20
   d69aa:	bd30      	pop	{r4, r5, pc}

000d69ac <_ZN5spark13EthernetClass9listeningEv>:
    uint16_t getListenTimeout(void) {
        return network_get_listen_timeout(*this, 0, NULL);
    }

    bool listening(void) {
        return network_listening(*this, 0, NULL);
   d69ac:	2200      	movs	r2, #0
   d69ae:	4611      	mov	r1, r2
   d69b0:	6840      	ldr	r0, [r0, #4]
   d69b2:	f7ff bc1b 	b.w	d61ec <network_listening>

000d69b6 <_ZN5spark13EthernetClass16getListenTimeoutEv>:
    void setListenTimeout(uint16_t timeout) {
        network_set_listen_timeout(*this, timeout, NULL);
    }

    uint16_t getListenTimeout(void) {
        return network_get_listen_timeout(*this, 0, NULL);
   d69b6:	2200      	movs	r2, #0
   d69b8:	4611      	mov	r1, r2
   d69ba:	6840      	ldr	r0, [r0, #4]
   d69bc:	f7ff bc26 	b.w	d620c <network_get_listen_timeout>

000d69c0 <_ZN5spark13EthernetClass16setListenTimeoutEt>:
    void listen(bool begin=true) {
        network_listen(*this, begin ? 0 : 1, NULL);
    }

    void setListenTimeout(uint16_t timeout) {
        network_set_listen_timeout(*this, timeout, NULL);
   d69c0:	2200      	movs	r2, #0
   d69c2:	6840      	ldr	r0, [r0, #4]
   d69c4:	f7ff bc1a 	b.w	d61fc <network_set_listen_timeout>

000d69c8 <_ZN5spark13EthernetClass6listenEb>:
    void disconnect() {
        network_disconnect(*this, NETWORK_DISCONNECT_REASON_USER, NULL);
    }

    void listen(bool begin=true) {
        network_listen(*this, begin ? 0 : 1, NULL);
   d69c8:	2200      	movs	r2, #0
   d69ca:	f081 0101 	eor.w	r1, r1, #1
   d69ce:	6840      	ldr	r0, [r0, #4]
   d69d0:	f7ff bc04 	b.w	d61dc <network_listen>

000d69d4 <_ZN5spark13EthernetClass3offEv>:
    void on() {
        network_on(*this, 0, 0, NULL);
    }

    void off() {
        network_off(*this, 0, 0, NULL);
   d69d4:	2300      	movs	r3, #0
   d69d6:	461a      	mov	r2, r3
   d69d8:	4619      	mov	r1, r3
   d69da:	6840      	ldr	r0, [r0, #4]
   d69dc:	f7ff bbf6 	b.w	d61cc <network_off>

000d69e0 <_ZN5spark13EthernetClass2onEv>:
    EthernetClass() :
            NetworkClass(NETWORK_INTERFACE_ETHERNET) {
    }

    void on() {
        network_on(*this, 0, 0, NULL);
   d69e0:	2300      	movs	r3, #0
   d69e2:	461a      	mov	r2, r3
   d69e4:	4619      	mov	r1, r3
   d69e6:	6840      	ldr	r0, [r0, #4]
   d69e8:	f7ff bbe8 	b.w	d61bc <network_on>

000d69ec <_ZN5spark13EthernetClass5readyEv>:
    bool listening(void) {
        return network_listening(*this, 0, NULL);
    }

    bool ready() {
        return network_ready(*this, 0,  NULL);
   d69ec:	2200      	movs	r2, #0
   d69ee:	4611      	mov	r1, r2
   d69f0:	6840      	ldr	r0, [r0, #4]
   d69f2:	f7ff bbdb 	b.w	d61ac <network_ready>

000d69f6 <_ZN5spark13EthernetClass10connectingEv>:
    void connect(unsigned flags=0) {
        network_connect(*this, flags, 0, NULL);
    }

    bool connecting(void) {
        return network_connecting(*this, 0, NULL);
   d69f6:	2200      	movs	r2, #0
   d69f8:	4611      	mov	r1, r2
   d69fa:	6840      	ldr	r0, [r0, #4]
   d69fc:	f7ff bbc6 	b.w	d618c <network_connecting>

000d6a00 <_ZN5spark13EthernetClass10disconnectEv>:
    }

    void disconnect() {
        network_disconnect(*this, NETWORK_DISCONNECT_REASON_USER, NULL);
   d6a00:	2200      	movs	r2, #0
   d6a02:	2102      	movs	r1, #2
   d6a04:	6840      	ldr	r0, [r0, #4]
   d6a06:	f7ff bbc9 	b.w	d619c <network_disconnect>

000d6a0a <_ZN5spark13EthernetClass7connectEj>:
    void off() {
        network_off(*this, 0, 0, NULL);
    }

    void connect(unsigned flags=0) {
        network_connect(*this, flags, 0, NULL);
   d6a0a:	2300      	movs	r3, #0
   d6a0c:	461a      	mov	r2, r3
   d6a0e:	6840      	ldr	r0, [r0, #4]
   d6a10:	f7ff bbb4 	b.w	d617c <network_connect>

000d6a14 <_GLOBAL__sub_I__ZN5spark8EthernetE>:
   d6a14:	4b02      	ldr	r3, [pc, #8]	; (d6a20 <_GLOBAL__sub_I__ZN5spark8EthernetE+0xc>)
   d6a16:	2203      	movs	r2, #3
   d6a18:	605a      	str	r2, [r3, #4]
    }

class EthernetClass : public NetworkClass {
public:
    EthernetClass() :
            NetworkClass(NETWORK_INTERFACE_ETHERNET) {
   d6a1a:	4a02      	ldr	r2, [pc, #8]	; (d6a24 <_GLOBAL__sub_I__ZN5spark8EthernetE+0x10>)
   d6a1c:	601a      	str	r2, [r3, #0]
   d6a1e:	4770      	bx	lr
   d6a20:	2003e384 	.word	0x2003e384
   d6a24:	000db3a0 	.word	0x000db3a0

000d6a28 <_ZN7TwoWireD1Ev>:
private:
  HAL_I2C_Interface _i2c;

public:
  TwoWire(HAL_I2C_Interface i2c, const HAL_I2C_Config& config);
  virtual ~TwoWire() {};
   d6a28:	4770      	bx	lr

000d6a2a <_ZN7TwoWire5writeEPKhj>:

// must be called in:
// slave tx event callback
// or after beginTransmission(address)
size_t TwoWire::write(const uint8_t *data, size_t quantity)
{
   d6a2a:	b5f8      	push	{r3, r4, r5, r6, r7, lr}
   d6a2c:	4606      	mov	r6, r0
   d6a2e:	4615      	mov	r5, r2
   d6a30:	460c      	mov	r4, r1
   d6a32:	188f      	adds	r7, r1, r2
  // in master/slave transmitter mode
  for(size_t i = 0; i < quantity; ++i)
   d6a34:	42bc      	cmp	r4, r7
   d6a36:	d006      	beq.n	d6a46 <_ZN7TwoWire5writeEPKhj+0x1c>
  {
    write(data[i]);
   d6a38:	6833      	ldr	r3, [r6, #0]
   d6a3a:	f814 1b01 	ldrb.w	r1, [r4], #1
   d6a3e:	689b      	ldr	r3, [r3, #8]
   d6a40:	4630      	mov	r0, r6
   d6a42:	4798      	blx	r3
// slave tx event callback
// or after beginTransmission(address)
size_t TwoWire::write(const uint8_t *data, size_t quantity)
{
  // in master/slave transmitter mode
  for(size_t i = 0; i < quantity; ++i)
   d6a44:	e7f6      	b.n	d6a34 <_ZN7TwoWire5writeEPKhj+0xa>
  {
    write(data[i]);
  }

  return quantity;
}
   d6a46:	4628      	mov	r0, r5
   d6a48:	bdf8      	pop	{r3, r4, r5, r6, r7, pc}

000d6a4a <_ZN7TwoWire5writeEh>:
// must be called in:
// slave tx event callback
// or after beginTransmission(address)
size_t TwoWire::write(uint8_t data)
{
  return HAL_I2C_Write_Data(_i2c, data, NULL);
   d6a4a:	2200      	movs	r2, #0
   d6a4c:	7c00      	ldrb	r0, [r0, #16]
   d6a4e:	f7ff b9d9 	b.w	d5e04 <HAL_I2C_Write_Data>

000d6a52 <_ZN7TwoWire9availableEv>:
// must be called in:
// slave rx event callback
// or after requestFrom(address, numBytes)
int TwoWire::available(void)
{
  return HAL_I2C_Available_Data(_i2c, NULL);
   d6a52:	2100      	movs	r1, #0
   d6a54:	7c00      	ldrb	r0, [r0, #16]
   d6a56:	f7ff b9dd 	b.w	d5e14 <HAL_I2C_Available_Data>

000d6a5a <_ZN7TwoWire4readEv>:
// must be called in:
// slave rx event callback
// or after requestFrom(address, numBytes)
int TwoWire::read(void)
{
  return HAL_I2C_Read_Data(_i2c, NULL);
   d6a5a:	2100      	movs	r1, #0
   d6a5c:	7c00      	ldrb	r0, [r0, #16]
   d6a5e:	f7ff b9e1 	b.w	d5e24 <HAL_I2C_Read_Data>

000d6a62 <_ZN7TwoWire4peekEv>:
// must be called in:
// slave rx event callback
// or after requestFrom(address, numBytes)
int TwoWire::peek(void)
{
  return HAL_I2C_Peek_Data(_i2c, NULL);
   d6a62:	2100      	movs	r1, #0
   d6a64:	7c00      	ldrb	r0, [r0, #16]
   d6a66:	f7ff b9e5 	b.w	d5e34 <HAL_I2C_Peek_Data>

000d6a6a <_ZN7TwoWire5flushEv>:
}

void TwoWire::flush(void)
{
  HAL_I2C_Flush_Data(_i2c, NULL);
   d6a6a:	2100      	movs	r1, #0
   d6a6c:	7c00      	ldrb	r0, [r0, #16]
   d6a6e:	f7ff b9e9 	b.w	d5e44 <HAL_I2C_Flush_Data>

000d6a72 <_ZN7TwoWireD0Ev>:
   d6a72:	b510      	push	{r4, lr}
   d6a74:	2114      	movs	r1, #20
   d6a76:	4604      	mov	r4, r0
   d6a78:	f000 ff2f 	bl	d78da <_ZdlPvj>
   d6a7c:	4620      	mov	r0, r4
   d6a7e:	bd10      	pop	{r4, pc}

000d6a80 <_ZN7TwoWireC1E17HAL_I2C_InterfaceRK14HAL_I2C_Config>:
#include "i2c_hal.h"
#include "spark_wiring_thread.h"

// Constructors ////////////////////////////////////////////////////////////////

TwoWire::TwoWire(HAL_I2C_Interface i2c, const HAL_I2C_Config& conf)
   d6a80:	b510      	push	{r4, lr}
   d6a82:	4604      	mov	r4, r0
  protected:
    void setWriteError(int err = 1) { write_error = err; }
    size_t printf_impl(bool newline, const char* format, ...);

  public:
    Print() : write_error(0) {}
   d6a84:	2300      	movs	r3, #0
   d6a86:	6063      	str	r3, [r4, #4]
    virtual int available() = 0;
    virtual int read() = 0;
    virtual int peek() = 0;
    virtual void flush() = 0;

    Stream() {_timeout=1000;}
   d6a88:	f44f 737a 	mov.w	r3, #1000	; 0x3e8
   d6a8c:	60a3      	str	r3, [r4, #8]
   d6a8e:	4b04      	ldr	r3, [pc, #16]	; (d6aa0 <_ZN7TwoWireC1E17HAL_I2C_InterfaceRK14HAL_I2C_Config+0x20>)
{
  _i2c = i2c;
   d6a90:	7421      	strb	r1, [r4, #16]
#include "i2c_hal.h"
#include "spark_wiring_thread.h"

// Constructors ////////////////////////////////////////////////////////////////

TwoWire::TwoWire(HAL_I2C_Interface i2c, const HAL_I2C_Config& conf)
   d6a92:	4608      	mov	r0, r1
   d6a94:	6023      	str	r3, [r4, #0]
{
  _i2c = i2c;
  HAL_I2C_Init(_i2c, &conf);
   d6a96:	4611      	mov	r1, r2
   d6a98:	f7ff f9e4 	bl	d5e64 <HAL_I2C_Init>
}
   d6a9c:	4620      	mov	r0, r4
   d6a9e:	bd10      	pop	{r4, pc}
   d6aa0:	000db3d4 	.word	0x000db3d4

000d6aa4 <_ZN7TwoWire5beginEv>:
  HAL_I2C_Stretch_Clock(_i2c, stretch, NULL);
}

void TwoWire::begin(void)
{
	HAL_I2C_Begin(_i2c, I2C_MODE_MASTER, 0x00, NULL);
   d6aa4:	2300      	movs	r3, #0
   d6aa6:	461a      	mov	r2, r3
   d6aa8:	4619      	mov	r1, r3
   d6aaa:	7c00      	ldrb	r0, [r0, #16]
   d6aac:	f7ff b992 	b.w	d5dd4 <HAL_I2C_Begin>

000d6ab0 <_ZN7TwoWire11requestFromERK16WireTransmission>:
size_t TwoWire::requestFrom(uint8_t address, size_t quantity)
{
  return requestFrom(address, quantity, (uint8_t)true);
}

size_t TwoWire::requestFrom(const WireTransmission& transfer) {
   d6ab0:	b570      	push	{r4, r5, r6, lr}
   d6ab2:	460c      	mov	r4, r1
   d6ab4:	b086      	sub	sp, #24
      .address = address_,
      .reserved = {0},
      .quantity = (uint32_t)size_,
      .timeout_ms = timeout_,
      .flags = (uint32_t)(stop_ ? HAL_I2C_TRANSMISSION_FLAG_STOP : 0)
    };
   d6ab6:	2514      	movs	r5, #20
   d6ab8:	4606      	mov	r6, r0
   d6aba:	462a      	mov	r2, r5
   d6abc:	2100      	movs	r1, #0
   d6abe:	a801      	add	r0, sp, #4
   d6ac0:	f002 f83d 	bl	d8b3e <memset>
   d6ac4:	7823      	ldrb	r3, [r4, #0]
   d6ac6:	f88d 3008 	strb.w	r3, [sp, #8]
   d6aca:	6863      	ldr	r3, [r4, #4]
   d6acc:	9303      	str	r3, [sp, #12]
   d6ace:	68e3      	ldr	r3, [r4, #12]
   d6ad0:	9304      	str	r3, [sp, #16]
  auto conf = transfer.halConfig();
  return HAL_I2C_Request_Data_Ex(_i2c, &conf, nullptr);
   d6ad2:	2200      	movs	r2, #0
   d6ad4:	7a23      	ldrb	r3, [r4, #8]
   d6ad6:	7c30      	ldrb	r0, [r6, #16]
   d6ad8:	f8ad 5004 	strh.w	r5, [sp, #4]
   d6adc:	a901      	add	r1, sp, #4
   d6ade:	9305      	str	r3, [sp, #20]
   d6ae0:	f7ff f9c8 	bl	d5e74 <HAL_I2C_Request_Data_Ex>
}
   d6ae4:	b006      	add	sp, #24
   d6ae6:	bd70      	pop	{r4, r5, r6, pc}

000d6ae8 <_ZN7TwoWire11requestFromEhjh>:
{
	HAL_I2C_End(_i2c, NULL);
}

size_t TwoWire::requestFrom(uint8_t address, size_t quantity, uint8_t sendStop)
{
   d6ae8:	b51f      	push	{r0, r1, r2, r3, r4, lr}
  WireTransmission& timeout(std::chrono::milliseconds ms) {
    return timeout((system_tick_t)ms.count());
  }

  WireTransmission& stop(bool stop) {
    stop_ = stop;
   d6aea:	3300      	adds	r3, #0
public:
  WireTransmission(uint8_t address)
      : address_{address},
        size_{0},
        stop_{true},
        timeout_{HAL_I2C_DEFAULT_TIMEOUT_MS} {
   d6aec:	f88d 1000 	strb.w	r1, [sp]
   d6af0:	f04f 0164 	mov.w	r1, #100	; 0x64
   d6af4:	9103      	str	r1, [sp, #12]
  WireTransmission& timeout(std::chrono::milliseconds ms) {
    return timeout((system_tick_t)ms.count());
  }

  WireTransmission& stop(bool stop) {
    stop_ = stop;
   d6af6:	bf18      	it	ne
   d6af8:	2301      	movne	r3, #1
  return requestFrom(WireTransmission(address).quantity(quantity).stop(sendStop));
   d6afa:	4669      	mov	r1, sp
  }

  WireTransmission() = delete;

  WireTransmission& quantity(size_t size) {
    size_ = size;
   d6afc:	9201      	str	r2, [sp, #4]
  WireTransmission& timeout(std::chrono::milliseconds ms) {
    return timeout((system_tick_t)ms.count());
  }

  WireTransmission& stop(bool stop) {
    stop_ = stop;
   d6afe:	f88d 3008 	strb.w	r3, [sp, #8]
   d6b02:	f7ff ffd5 	bl	d6ab0 <_ZN7TwoWire11requestFromERK16WireTransmission>
}
   d6b06:	b005      	add	sp, #20
   d6b08:	f85d fb04 	ldr.w	pc, [sp], #4

000d6b0c <_ZN7TwoWire11requestFromEhj>:

size_t TwoWire::requestFrom(uint8_t address, size_t quantity)
{
  return requestFrom(address, quantity, (uint8_t)true);
   d6b0c:	2301      	movs	r3, #1
   d6b0e:	f7ff bfeb 	b.w	d6ae8 <_ZN7TwoWire11requestFromEhjh>

000d6b12 <_ZN7TwoWire17beginTransmissionEh>:
  return HAL_I2C_Request_Data_Ex(_i2c, &conf, nullptr);
}

void TwoWire::beginTransmission(uint8_t address)
{
	HAL_I2C_Begin_Transmission(_i2c, address, NULL);
   d6b12:	2200      	movs	r2, #0
   d6b14:	7c00      	ldrb	r0, [r0, #16]
   d6b16:	f7ff b965 	b.w	d5de4 <HAL_I2C_Begin_Transmission>

000d6b1a <_ZN7TwoWire15endTransmissionEh>:
//	no call to endTransmission(true) is made. Some I2C
//	devices will behave oddly if they do not see a STOP.
//
uint8_t TwoWire::endTransmission(uint8_t sendStop)
{
	return HAL_I2C_End_Transmission(_i2c, sendStop, NULL);
   d6b1a:	2200      	movs	r2, #0
   d6b1c:	7c00      	ldrb	r0, [r0, #16]
   d6b1e:	f7ff b969 	b.w	d5df4 <HAL_I2C_End_Transmission>

000d6b22 <_ZN7TwoWire15endTransmissionEv>:
//	This provides backwards compatibility with the original
//	definition, and expected behaviour, of endTransmission
//
uint8_t TwoWire::endTransmission(void)
{
  return endTransmission(true);
   d6b22:	2101      	movs	r1, #1
   d6b24:	f7ff bff9 	b.w	d6b1a <_ZN7TwoWire15endTransmissionEh>

000d6b28 <_ZN7TwoWire9isEnabledEv>:
  HAL_I2C_Set_Callback_On_Request(_i2c, function, NULL);
}

bool TwoWire::isEnabled()
{
  return HAL_I2C_Is_Enabled(_i2c, NULL);
   d6b28:	2100      	movs	r1, #0
   d6b2a:	7c00      	ldrb	r0, [r0, #16]
   d6b2c:	f7ff b992 	b.w	d5e54 <HAL_I2C_Is_Enabled>

000d6b30 <_ZN9IPAddressD1Ev>:
    IPAddress(uint8_t first_octet, uint8_t second_octet, uint8_t third_octet, uint8_t fourth_octet);
    IPAddress(uint32_t address);
    IPAddress(const uint8_t* address);
    IPAddress(const HAL_IPAddress& address);

    virtual ~IPAddress() {}
   d6b30:	4770      	bx	lr

000d6b32 <_ZN9IPAddressD0Ev>:
   d6b32:	b510      	push	{r4, lr}
   d6b34:	2118      	movs	r1, #24
   d6b36:	4604      	mov	r4, r0
   d6b38:	f000 fecf 	bl	d78da <_ZdlPvj>
   d6b3c:	4620      	mov	r0, r4
   d6b3e:	bd10      	pop	{r4, pc}

000d6b40 <_ZNK9IPAddress7printToER5Print>:
#endif // Wiring_IPv6
	return address.ipv4==that.address.ipv4;
}

size_t IPAddress::printTo(Print& p) const
{
   d6b40:	b5f0      	push	{r4, r5, r6, r7, lr}
#if Wiring_IPv6
#if HAL_USE_INET_HAL_POSIX
	if (address.v==6) {
   d6b42:	7d03      	ldrb	r3, [r0, #20]
   d6b44:	2b06      	cmp	r3, #6
#endif // Wiring_IPv6
	return address.ipv4==that.address.ipv4;
}

size_t IPAddress::printTo(Print& p) const
{
   d6b46:	b08d      	sub	sp, #52	; 0x34
   d6b48:	460e      	mov	r6, r1
   d6b4a:	f100 0704 	add.w	r7, r0, #4
   d6b4e:	f04f 0400 	mov.w	r4, #0
#if Wiring_IPv6
#if HAL_USE_INET_HAL_POSIX
	if (address.v==6) {
   d6b52:	d002      	beq.n	d6b5a <_ZNK9IPAddress7printToER5Print+0x1a>
   d6b54:	f100 0508 	add.w	r5, r0, #8
   d6b58:	e018      	b.n	d6b8c <_ZNK9IPAddress7printToER5Print+0x4c>
		char buf[INET6_ADDRSTRLEN+1];
		buf[0] = 0;
   d6b5a:	ad0c      	add	r5, sp, #48	; 0x30
		inet_inet_ntop(AF_INET6, address.ipv6, buf, sizeof(buf));
   d6b5c:	4639      	mov	r1, r7
{
#if Wiring_IPv6
#if HAL_USE_INET_HAL_POSIX
	if (address.v==6) {
		char buf[INET6_ADDRSTRLEN+1];
		buf[0] = 0;
   d6b5e:	f805 4d30 	strb.w	r4, [r5, #-48]!
		inet_inet_ntop(AF_INET6, address.ipv6, buf, sizeof(buf));
   d6b62:	232f      	movs	r3, #47	; 0x2f
   d6b64:	462a      	mov	r2, r5
   d6b66:	200a      	movs	r0, #10
   d6b68:	f7ff f98c 	bl	d5e84 <inet_inet_ntop>
    void clearWriteError() { setWriteError(0); }

    virtual size_t write(uint8_t) = 0;
    size_t write(const char *str) {
      if (str == NULL) return 0;
      return write((const uint8_t *)str, strlen(str));
   d6b6c:	4628      	mov	r0, r5
   d6b6e:	f002 f844 	bl	d8bfa <strlen>
   d6b72:	6833      	ldr	r3, [r6, #0]
   d6b74:	4602      	mov	r2, r0
   d6b76:	68db      	ldr	r3, [r3, #12]
   d6b78:	4629      	mov	r1, r5
   d6b7a:	4630      	mov	r0, r6
   d6b7c:	4798      	blx	r3
   d6b7e:	e00f      	b.n	d6ba0 <_ZNK9IPAddress7printToER5Print+0x60>
#endif // HAL_USE_INET_HAL_POSIX
#endif // Wiring_IPv6
    size_t n = 0;
    for (int i = 0; i < 4; i++)
    {
        if (n)
   d6b80:	b124      	cbz	r4, d6b8c <_ZNK9IPAddress7printToER5Print+0x4c>
            n += p.print('.');
   d6b82:	212e      	movs	r1, #46	; 0x2e
   d6b84:	4630      	mov	r0, r6
   d6b86:	f000 f9d5 	bl	d6f34 <_ZN5Print5printEc>
   d6b8a:	4404      	add	r4, r0
            t = print('-');
            val = -n;
        } else {
            val = n;
        }
        return printNumber(val, base) + t;
   d6b8c:	f815 1d01 	ldrb.w	r1, [r5, #-1]!
   d6b90:	220a      	movs	r2, #10
   d6b92:	4630      	mov	r0, r6
   d6b94:	f000 f9e7 	bl	d6f66 <_ZN5Print11printNumberEmh>
#else
#pragma message "HAL_USE_INET_HAL_POSIX is required for IPv6 support in IPAddress::printTo()"
#endif // HAL_USE_INET_HAL_POSIX
#endif // Wiring_IPv6
    size_t n = 0;
    for (int i = 0; i < 4; i++)
   d6b98:	42bd      	cmp	r5, r7
    {
        if (n)
            n += p.print('.');
        n += p.print((*this)[i], DEC);
   d6b9a:	4404      	add	r4, r0
#else
#pragma message "HAL_USE_INET_HAL_POSIX is required for IPv6 support in IPAddress::printTo()"
#endif // HAL_USE_INET_HAL_POSIX
#endif // Wiring_IPv6
    size_t n = 0;
    for (int i = 0; i < 4; i++)
   d6b9c:	d1f0      	bne.n	d6b80 <_ZNK9IPAddress7printToER5Print+0x40>
    {
        if (n)
            n += p.print('.');
        n += p.print((*this)[i], DEC);
   d6b9e:	4620      	mov	r0, r4
    }
    return n;
}
   d6ba0:	b00d      	add	sp, #52	; 0x34
   d6ba2:	bdf0      	pop	{r4, r5, r6, r7, pc}

000d6ba4 <_ZN9IPAddressC1Ev>:

#if HAL_USE_INET_HAL_POSIX
#include <arpa/inet.h>
#endif // HAL_USE_INET_HAL_POSIX

IPAddress::IPAddress()
   d6ba4:	b510      	push	{r4, lr}
   d6ba6:	4b05      	ldr	r3, [pc, #20]	; (d6bbc <_ZN9IPAddressC1Ev+0x18>)
   d6ba8:	4604      	mov	r4, r0
        return address;
    }

    virtual size_t printTo(Print& p) const;

    void clear() { memset(&address, 0, sizeof (address)); }
   d6baa:	2211      	movs	r2, #17
   d6bac:	f840 3b04 	str.w	r3, [r0], #4
   d6bb0:	2100      	movs	r1, #0
   d6bb2:	f001 ffc4 	bl	d8b3e <memset>
{
    clear();
}
   d6bb6:	4620      	mov	r0, r4
   d6bb8:	bd10      	pop	{r4, pc}
   d6bba:	bf00      	nop
   d6bbc:	000db3fc 	.word	0x000db3fc

000d6bc0 <_ZN9IPAddressC1ERK16_HAL_IPAddress_t>:

IPAddress::IPAddress(const HAL_IPAddress& address)
   d6bc0:	4603      	mov	r3, r0
   d6bc2:	4a07      	ldr	r2, [pc, #28]	; (d6be0 <_ZN9IPAddressC1ERK16_HAL_IPAddress_t+0x20>)
   d6bc4:	b510      	push	{r4, lr}
   d6bc6:	f843 2b04 	str.w	r2, [r3], #4
{
    memcpy(&this->address, &address, sizeof(address));
   d6bca:	f101 0210 	add.w	r2, r1, #16
   d6bce:	f851 4b04 	ldr.w	r4, [r1], #4
   d6bd2:	f843 4b04 	str.w	r4, [r3], #4
   d6bd6:	4291      	cmp	r1, r2
   d6bd8:	d1f9      	bne.n	d6bce <_ZN9IPAddressC1ERK16_HAL_IPAddress_t+0xe>
   d6bda:	780a      	ldrb	r2, [r1, #0]
   d6bdc:	701a      	strb	r2, [r3, #0]
}
   d6bde:	bd10      	pop	{r4, pc}
   d6be0:	000db3fc 	.word	0x000db3fc

000d6be4 <_ZN9IPAddress8set_ipv4Ehhhh>:
    return address.ipv4!=0;
#endif
}

void IPAddress::set_ipv4(uint8_t b0, uint8_t b1, uint8_t b2, uint8_t b3)
{
   d6be4:	b510      	push	{r4, lr}
    address.ipv4 = b0<<24 | b1 << 16 | b2 << 8 | b3;
   d6be6:	f89d 4008 	ldrb.w	r4, [sp, #8]
   d6bea:	ea44 2303 	orr.w	r3, r4, r3, lsl #8
   d6bee:	ea43 4202 	orr.w	r2, r3, r2, lsl #16
   d6bf2:	ea42 6101 	orr.w	r1, r2, r1, lsl #24
        return &address;
    }

    inline void setVersion(uint8_t version) {
#if HAL_IPv6
        address.v = version;
   d6bf6:	2304      	movs	r3, #4
   d6bf8:	6041      	str	r1, [r0, #4]
   d6bfa:	7503      	strb	r3, [r0, #20]
   d6bfc:	bd10      	pop	{r4, pc}

000d6bfe <_ZN9IPAddressaSEPKh>:
    setVersion(4);
}

IPAddress& IPAddress::operator=(const uint8_t* address)
{
   d6bfe:	b537      	push	{r0, r1, r2, r4, r5, lr}
    set_ipv4(address[0], address[1], address[2], address[3]);
   d6c00:	780d      	ldrb	r5, [r1, #0]
   d6c02:	788b      	ldrb	r3, [r1, #2]
   d6c04:	784a      	ldrb	r2, [r1, #1]
   d6c06:	78c9      	ldrb	r1, [r1, #3]
   d6c08:	9100      	str	r1, [sp, #0]
   d6c0a:	4629      	mov	r1, r5
   d6c0c:	f7ff ffea 	bl	d6be4 <_ZN9IPAddress8set_ipv4Ehhhh>
    return *this;
}
   d6c10:	b003      	add	sp, #12
   d6c12:	bd30      	pop	{r4, r5, pc}

000d6c14 <_GLOBAL__sub_I__ZN5spark3LogE>:
    // This handler doesn't support direct logging
}

// spark::Logger
inline spark::Logger::Logger(const char *name) :
        name_(name) {
   d6c14:	4b01      	ldr	r3, [pc, #4]	; (d6c1c <_GLOBAL__sub_I__ZN5spark3LogE+0x8>)
   d6c16:	4a02      	ldr	r2, [pc, #8]	; (d6c20 <_GLOBAL__sub_I__ZN5spark3LogE+0xc>)
   d6c18:	601a      	str	r2, [r3, #0]
   d6c1a:	4770      	bx	lr
   d6c1c:	2003e38c 	.word	0x2003e38c
   d6c20:	000db47b 	.word	0x000db47b

000d6c24 <_ZN5spark9MeshClass9listeningEv>:
    uint16_t getListenTimeout(void) {
        return network_get_listen_timeout(*this, 0, NULL);
    }

    bool listening(void) {
        return network_listening(*this, 0, NULL);
   d6c24:	2200      	movs	r2, #0
   d6c26:	4611      	mov	r1, r2
   d6c28:	6840      	ldr	r0, [r0, #4]
   d6c2a:	f7ff badf 	b.w	d61ec <network_listening>

000d6c2e <_ZN5spark9MeshClass16getListenTimeoutEv>:
    void setListenTimeout(uint16_t timeout) {
        network_set_listen_timeout(*this, timeout, NULL);
    }

    uint16_t getListenTimeout(void) {
        return network_get_listen_timeout(*this, 0, NULL);
   d6c2e:	2200      	movs	r2, #0
   d6c30:	4611      	mov	r1, r2
   d6c32:	6840      	ldr	r0, [r0, #4]
   d6c34:	f7ff baea 	b.w	d620c <network_get_listen_timeout>

000d6c38 <_ZN5spark9MeshClass16setListenTimeoutEt>:
    void listen(bool begin=true) {
        network_listen(*this, begin ? 0 : 1, NULL);
    }

    void setListenTimeout(uint16_t timeout) {
        network_set_listen_timeout(*this, timeout, NULL);
   d6c38:	2200      	movs	r2, #0
   d6c3a:	6840      	ldr	r0, [r0, #4]
   d6c3c:	f7ff bade 	b.w	d61fc <network_set_listen_timeout>

000d6c40 <_ZN5spark9MeshClass6listenEb>:
    void disconnect() {
        network_disconnect(*this, NETWORK_DISCONNECT_REASON_USER, NULL);
    }

    void listen(bool begin=true) {
        network_listen(*this, begin ? 0 : 1, NULL);
   d6c40:	2200      	movs	r2, #0
   d6c42:	f081 0101 	eor.w	r1, r1, #1
   d6c46:	6840      	ldr	r0, [r0, #4]
   d6c48:	f7ff bac8 	b.w	d61dc <network_listen>

000d6c4c <_ZN5spark9MeshClass3offEv>:
    void on() {
        network_on(*this, 0, 0, NULL);
    }

    void off() {
        network_off(*this, 1, 0, NULL);
   d6c4c:	2300      	movs	r3, #0
   d6c4e:	461a      	mov	r2, r3
   d6c50:	2101      	movs	r1, #1
   d6c52:	6840      	ldr	r0, [r0, #4]
   d6c54:	f7ff baba 	b.w	d61cc <network_off>

000d6c58 <_ZN5spark9MeshClass2onEv>:
    MeshClass() :
            NetworkClass(NETWORK_INTERFACE_MESH) {
    }

    void on() {
        network_on(*this, 0, 0, NULL);
   d6c58:	2300      	movs	r3, #0
   d6c5a:	461a      	mov	r2, r3
   d6c5c:	4619      	mov	r1, r3
   d6c5e:	6840      	ldr	r0, [r0, #4]
   d6c60:	f7ff baac 	b.w	d61bc <network_on>

000d6c64 <_ZN5spark9MeshClass5readyEv>:
    bool listening(void) {
        return network_listening(*this, 0, NULL);
    }

    bool ready() {
        return network_ready(*this, 0,  NULL);
   d6c64:	2200      	movs	r2, #0
   d6c66:	4611      	mov	r1, r2
   d6c68:	6840      	ldr	r0, [r0, #4]
   d6c6a:	f7ff ba9f 	b.w	d61ac <network_ready>

000d6c6e <_ZN5spark9MeshClass10connectingEv>:
    void connect(unsigned flags=0) {
        network_connect(*this, flags, 0, NULL);
    }

    bool connecting(void) {
        return network_connecting(*this, 0, NULL);
   d6c6e:	2200      	movs	r2, #0
   d6c70:	4611      	mov	r1, r2
   d6c72:	6840      	ldr	r0, [r0, #4]
   d6c74:	f7ff ba8a 	b.w	d618c <network_connecting>

000d6c78 <_ZN5spark9MeshClass10disconnectEv>:
    }

    void disconnect() {
        network_disconnect(*this, NETWORK_DISCONNECT_REASON_USER, NULL);
   d6c78:	2200      	movs	r2, #0
   d6c7a:	2102      	movs	r1, #2
   d6c7c:	6840      	ldr	r0, [r0, #4]
   d6c7e:	f7ff ba8d 	b.w	d619c <network_disconnect>

000d6c82 <_ZN5spark9MeshClass7connectEj>:
    void off() {
        network_off(*this, 1, 0, NULL);
    }

    void connect(unsigned flags=0) {
        network_connect(*this, flags, 0, NULL);
   d6c82:	2300      	movs	r3, #0
   d6c84:	461a      	mov	r2, r3
   d6c86:	6840      	ldr	r0, [r0, #4]
   d6c88:	f7ff ba78 	b.w	d617c <network_connect>

000d6c8c <_ZNKSt14default_deleteIN6Thread4DataEEclEPS1_.isra.6>:
	       enable_if<is_convertible<_Up*, _Tp*>::value>::type>
        default_delete(const default_delete<_Up>&) noexcept { }

      /// Calls @c delete @p __ptr
      void
      operator()(_Tp* __ptr) const
   d6c8c:	b538      	push	{r3, r4, r5, lr}
      {
	static_assert(!is_void<_Tp>::value,
		      "can't delete pointer to incomplete type");
	static_assert(sizeof(_Tp)>0,
		      "can't delete pointer to incomplete type");
	delete __ptr;
   d6c8e:	4605      	mov	r5, r0
   d6c90:	b188      	cbz	r0, d6cb6 <_ZNKSt14default_deleteIN6Thread4DataEEclEPS1_.isra.6+0x2a>

      /// Destructor, invokes the deleter if the stored pointer is not null.
      ~unique_ptr() noexcept
      {
	auto& __ptr = std::get<0>(_M_t);
	if (__ptr != nullptr)
   d6c92:	6804      	ldr	r4, [r0, #0]
   d6c94:	b14c      	cbz	r4, d6caa <_ZNKSt14default_deleteIN6Thread4DataEEclEPS1_.isra.6+0x1e>

    _Function_base() : _M_manager(nullptr) { }

    ~_Function_base()
    {
      if (_M_manager)
   d6c96:	68a3      	ldr	r3, [r4, #8]
   d6c98:	b11b      	cbz	r3, d6ca2 <_ZNKSt14default_deleteIN6Thread4DataEEclEPS1_.isra.6+0x16>
	_M_manager(_M_functor, _M_functor, __destroy_functor);
   d6c9a:	2203      	movs	r2, #3
   d6c9c:	4621      	mov	r1, r4
   d6c9e:	4620      	mov	r0, r4
   d6ca0:	4798      	blx	r3
      {
	static_assert(!is_void<_Tp>::value,
		      "can't delete pointer to incomplete type");
	static_assert(sizeof(_Tp)>0,
		      "can't delete pointer to incomplete type");
	delete __ptr;
   d6ca2:	2110      	movs	r1, #16
   d6ca4:	4620      	mov	r0, r4
   d6ca6:	f000 fe18 	bl	d78da <_ZdlPvj>
   d6caa:	4628      	mov	r0, r5
   d6cac:	2114      	movs	r1, #20
      }
   d6cae:	e8bd 4038 	ldmia.w	sp!, {r3, r4, r5, lr}
      {
	static_assert(!is_void<_Tp>::value,
		      "can't delete pointer to incomplete type");
	static_assert(sizeof(_Tp)>0,
		      "can't delete pointer to incomplete type");
	delete __ptr;
   d6cb2:	f000 be12 	b.w	d78da <_ZdlPvj>
   d6cb6:	bd38      	pop	{r3, r4, r5, pc}

000d6cb8 <_ZNKSt14default_deleteI3UDPEclEPS0_.isra.8.constprop.13>:
   d6cb8:	b110      	cbz	r0, d6cc0 <_ZNKSt14default_deleteI3UDPEclEPS0_.isra.8.constprop.13+0x8>
   d6cba:	6803      	ldr	r3, [r0, #0]
   d6cbc:	685b      	ldr	r3, [r3, #4]
   d6cbe:	4718      	bx	r3
   d6cc0:	4770      	bx	lr

000d6cc2 <_ZN6ThreadD1Ev>:
    Thread(Thread&& thread)
        : d_(std::move(thread.d_))
    {
    }

    ~Thread()
   d6cc2:	b510      	push	{r4, lr}
      }

      /// Return the stored pointer.
      pointer
      get() const noexcept
      { return std::get<0>(_M_t); }
   d6cc4:	6803      	ldr	r3, [r0, #0]
   d6cc6:	4604      	mov	r4, r0
        dispose();
    }

    void dispose()
    {
        if (!isValid())
   d6cc8:	b1bb      	cbz	r3, d6cfa <_ZN6ThreadD1Ev+0x38>
        return isCurrent();
    }

    bool isCurrent() const
    {
        return isValid() && os_thread_is_current(d_->handle);
   d6cca:	6858      	ldr	r0, [r3, #4]
   d6ccc:	f7fe fffa 	bl	d5cc4 <os_thread_is_current>
   d6cd0:	b978      	cbnz	r0, d6cf2 <_ZN6ThreadD1Ev+0x30>
   d6cd2:	6823      	ldr	r3, [r4, #0]

        // We shouldn't dispose of current thread
        if (isCurrent())
            return;

        if (!d_->exited) {
   d6cd4:	7c5a      	ldrb	r2, [r3, #17]
   d6cd6:	b912      	cbnz	r2, d6cde <_ZN6ThreadD1Ev+0x1c>
        d_.reset();
    }

    bool join()
    {
        return isValid() && os_thread_join(d_->handle)==0;
   d6cd8:	6858      	ldr	r0, [r3, #4]
   d6cda:	f7fe fffb 	bl	d5cd4 <os_thread_join>

        if (!d_->exited) {
            join();
        }

        os_thread_cleanup(d_->handle);
   d6cde:	6823      	ldr	r3, [r4, #0]
   d6ce0:	6858      	ldr	r0, [r3, #4]
   d6ce2:	f7fe ffff 	bl	d5ce4 <os_thread_cleanup>
#endif
    {
      // concept requirements
      __glibcxx_function_requires(_SGIAssignableConcept<_Tp>)

      _Tp __tmp = _GLIBCXX_MOVE(__a);
   d6ce6:	6820      	ldr	r0, [r4, #0]
      __a = _GLIBCXX_MOVE(__b);
   d6ce8:	2300      	movs	r3, #0
   d6cea:	6023      	str	r3, [r4, #0]
      void
      reset(pointer __p = pointer()) noexcept
      {
	using std::swap;
	swap(std::get<0>(_M_t), __p);
	if (__p != pointer())
   d6cec:	b128      	cbz	r0, d6cfa <_ZN6ThreadD1Ev+0x38>
	  get_deleter()(__p);
   d6cee:	f7ff ffcd 	bl	d6c8c <_ZNKSt14default_deleteIN6Thread4DataEEclEPS1_.isra.6>

      /// Destructor, invokes the deleter if the stored pointer is not null.
      ~unique_ptr() noexcept
      {
	auto& __ptr = std::get<0>(_M_t);
	if (__ptr != nullptr)
   d6cf2:	6820      	ldr	r0, [r4, #0]
   d6cf4:	b108      	cbz	r0, d6cfa <_ZN6ThreadD1Ev+0x38>
	  get_deleter()(__ptr);
   d6cf6:	f7ff ffc9 	bl	d6c8c <_ZNKSt14default_deleteIN6Thread4DataEEclEPS1_.isra.6>
    }

    ~Thread()
    {
        dispose();
    }
   d6cfa:	4620      	mov	r0, r4
   d6cfc:	bd10      	pop	{r4, pc}

000d6cfe <_ZN5spark11MeshPublishD1Ev>:
    virtual float getQualityValue() const {
        return 0.0f;
    }
};

class MeshPublish {
   d6cfe:	b538      	push	{r3, r4, r5, lr}
   d6d00:	4604      	mov	r4, r0

      /// Destructor, invokes the deleter if the stored pointer is not null.
      ~unique_ptr()
      {
	auto& __ptr = std::get<0>(_M_t);
	if (__ptr != nullptr)
   d6d02:	f8d0 01c4 	ldr.w	r0, [r0, #452]	; 0x1c4
   d6d06:	b108      	cbz	r0, d6d0c <_ZN5spark11MeshPublishD1Ev+0xe>
      void
      operator()(_Tp* __ptr) const
      {
	static_assert(sizeof(_Tp)>0,
		      "can't delete pointer to incomplete type");
	delete [] __ptr;
   d6d08:	f7fd f9cb 	bl	d40a2 <_ZdaPv>
        dispose();
    }

    void dispose()
    {
        if (handle_) {
   d6d0c:	f8d4 01c0 	ldr.w	r0, [r4, #448]	; 0x1c0
   d6d10:	b108      	cbz	r0, d6d16 <_ZN5spark11MeshPublishD1Ev+0x18>
            os_mutex_recursive_destroy(handle_);
   d6d12:	f7fe fff7 	bl	d5d04 <os_mutex_recursive_destroy>

      /// Destructor, invokes the deleter if the stored pointer is not null.
      ~unique_ptr() noexcept
      {
	auto& __ptr = std::get<0>(_M_t);
	if (__ptr != nullptr)
   d6d16:	f8d4 51bc 	ldr.w	r5, [r4, #444]	; 0x1bc
   d6d1a:	b135      	cbz	r5, d6d2a <_ZN5spark11MeshPublishD1Ev+0x2c>
      {
	static_assert(!is_void<_Tp>::value,
		      "can't delete pointer to incomplete type");
	static_assert(sizeof(_Tp)>0,
		      "can't delete pointer to incomplete type");
	delete __ptr;
   d6d1c:	4628      	mov	r0, r5
   d6d1e:	f7ff ffd0 	bl	d6cc2 <_ZN6ThreadD1Ev>
   d6d22:	2104      	movs	r1, #4
   d6d24:	4628      	mov	r0, r5
   d6d26:	f000 fdd8 	bl	d78da <_ZdlPvj>

      /// Destructor, invokes the deleter if the stored pointer is not null.
      ~unique_ptr() noexcept
      {
	auto& __ptr = std::get<0>(_M_t);
	if (__ptr != nullptr)
   d6d2a:	6820      	ldr	r0, [r4, #0]
   d6d2c:	b108      	cbz	r0, d6d32 <_ZN5spark11MeshPublishD1Ev+0x34>
	  get_deleter()(__ptr);
   d6d2e:	f7ff ffc3 	bl	d6cb8 <_ZNKSt14default_deleteI3UDPEclEPS0_.isra.8.constprop.13>
   d6d32:	4620      	mov	r0, r4
   d6d34:	bd38      	pop	{r3, r4, r5, pc}
	...

000d6d38 <_ZN5spark9MeshClassD1Ev>:
    RecursiveMutex mutex_;
    std::unique_ptr<uint8_t[]> buffer_;
    std::atomic_bool exit_;
};

class MeshClass : public NetworkClass, public MeshPublish {
   d6d38:	b510      	push	{r4, lr}
   d6d3a:	4b04      	ldr	r3, [pc, #16]	; (d6d4c <_ZN5spark9MeshClassD1Ev+0x14>)
   d6d3c:	4604      	mov	r4, r0
   d6d3e:	f840 3b08 	str.w	r3, [r0], #8
   d6d42:	f7ff ffdc 	bl	d6cfe <_ZN5spark11MeshPublishD1Ev>
   d6d46:	4620      	mov	r0, r4
   d6d48:	bd10      	pop	{r4, pc}
   d6d4a:	bf00      	nop
   d6d4c:	000db4f0 	.word	0x000db4f0

000d6d50 <_GLOBAL__sub_I__ZN5spark11MeshPublish13Subscriptions20event_handler_existsEPKcPFvS3_S3_EPvN17SubscriptionScope4EnumES3_>:

    return addr;
}

MeshClass Mesh;
} // namespace spark
   d6d50:	b538      	push	{r3, r4, r5, lr}
   d6d52:	4c0e      	ldr	r4, [pc, #56]	; (d6d8c <_GLOBAL__sub_I__ZN5spark11MeshPublish13Subscriptions20event_handler_existsEPKcPFvS3_S3_EPvN17SubscriptionScope4EnumES3_+0x3c>)
   d6d54:	4b0e      	ldr	r3, [pc, #56]	; (d6d90 <_GLOBAL__sub_I__ZN5spark11MeshPublish13Subscriptions20event_handler_existsEPKcPFvS3_S3_EPvN17SubscriptionScope4EnumES3_+0x40>)
   d6d56:	6023      	str	r3, [r4, #0]

  template<std::size_t _Idx, typename _Head>
    struct _Head_base<_Idx, _Head, false>
    {
      constexpr _Head_base()
      : _M_head_impl() { }
   d6d58:	2500      	movs	r5, #0
   d6d5a:	2302      	movs	r3, #2
     */
    RecursiveMutex(os_mutex_recursive_t handle) : handle_(handle) {}

    RecursiveMutex() : handle_(nullptr)
    {
        os_mutex_recursive_create(&handle_);
   d6d5c:	f504 70e4 	add.w	r0, r4, #456	; 0x1c8
   d6d60:	6063      	str	r3, [r4, #4]
   d6d62:	60a5      	str	r5, [r4, #8]
   d6d64:	f8c4 51c4 	str.w	r5, [r4, #452]	; 0x1c4
    /**
     * Creates a shared mutex.
     */
    RecursiveMutex(os_mutex_recursive_t handle) : handle_(handle) {}

    RecursiveMutex() : handle_(nullptr)
   d6d68:	f8c4 51c8 	str.w	r5, [r4, #456]	; 0x1c8
    {
        os_mutex_recursive_create(&handle_);
   d6d6c:	f7fe ffc2 	bl	d5cf4 <os_mutex_recursive_create>
public:
    MeshClass() :
            NetworkClass(NETWORK_INTERFACE_MESH) {
   d6d70:	4b08      	ldr	r3, [pc, #32]	; (d6d94 <_GLOBAL__sub_I__ZN5spark11MeshPublish13Subscriptions20event_handler_existsEPKcPFvS3_S3_EPvN17SubscriptionScope4EnumES3_+0x44>)
   d6d72:	f8c4 51cc 	str.w	r5, [r4, #460]	; 0x1cc
      __atomic_base(const __atomic_base&) = delete;
      __atomic_base& operator=(const __atomic_base&) = delete;
      __atomic_base& operator=(const __atomic_base&) volatile = delete;

      // Requires __int_type convertible to _M_i.
      constexpr __atomic_base(__int_type __i) noexcept : _M_i (__i) { }
   d6d76:	f884 51d0 	strb.w	r5, [r4, #464]	; 0x1d0
   d6d7a:	6023      	str	r3, [r4, #0]
    }

    return addr;
}

MeshClass Mesh;
   d6d7c:	4620      	mov	r0, r4
   d6d7e:	4a06      	ldr	r2, [pc, #24]	; (d6d98 <_GLOBAL__sub_I__ZN5spark11MeshPublish13Subscriptions20event_handler_existsEPKcPFvS3_S3_EPvN17SubscriptionScope4EnumES3_+0x48>)
   d6d80:	4906      	ldr	r1, [pc, #24]	; (d6d9c <_GLOBAL__sub_I__ZN5spark11MeshPublish13Subscriptions20event_handler_existsEPKcPFvS3_S3_EPvN17SubscriptionScope4EnumES3_+0x4c>)
} // namespace spark
   d6d82:	e8bd 4038 	ldmia.w	sp!, {r3, r4, r5, lr}
    }

    return addr;
}

MeshClass Mesh;
   d6d86:	f000 bda3 	b.w	d78d0 <__aeabi_atexit>
   d6d8a:	bf00      	nop
   d6d8c:	2003e390 	.word	0x2003e390
   d6d90:	000db524 	.word	0x000db524
   d6d94:	000db4f0 	.word	0x000db4f0
   d6d98:	2003e130 	.word	0x2003e130
   d6d9c:	000d6d39 	.word	0x000d6d39

000d6da0 <_ZN5spark12NetworkClass7connectEj>:
        return Network;
    }
}

void NetworkClass::connect(unsigned flags) {
    network_connect(*this, flags, 0, nullptr);
   d6da0:	2300      	movs	r3, #0
   d6da2:	461a      	mov	r2, r3
   d6da4:	6840      	ldr	r0, [r0, #4]
   d6da6:	f7ff b9e9 	b.w	d617c <network_connect>

000d6daa <_ZN5spark12NetworkClass10disconnectEv>:
}

void NetworkClass::disconnect() {
    network_disconnect(*this, NETWORK_DISCONNECT_REASON_USER, nullptr);
   d6daa:	2200      	movs	r2, #0
   d6dac:	2102      	movs	r1, #2
   d6dae:	6840      	ldr	r0, [r0, #4]
   d6db0:	f7ff b9f4 	b.w	d619c <network_disconnect>

000d6db4 <_ZN5spark12NetworkClass10connectingEv>:
}

bool NetworkClass::connecting() {
    return network_connecting(*this, 0, nullptr);
   d6db4:	2200      	movs	r2, #0
   d6db6:	4611      	mov	r1, r2
   d6db8:	6840      	ldr	r0, [r0, #4]
   d6dba:	f7ff b9e7 	b.w	d618c <network_connecting>

000d6dbe <_ZN5spark12NetworkClass5readyEv>:
}

bool NetworkClass::ready() {
    return network_ready(*this, 0, nullptr);
   d6dbe:	2200      	movs	r2, #0
   d6dc0:	4611      	mov	r1, r2
   d6dc2:	6840      	ldr	r0, [r0, #4]
   d6dc4:	f7ff b9f2 	b.w	d61ac <network_ready>

000d6dc8 <_ZN5spark12NetworkClass2onEv>:
}

void NetworkClass::on() {
    network_on(*this, 0, 0, nullptr);
   d6dc8:	2300      	movs	r3, #0
   d6dca:	461a      	mov	r2, r3
   d6dcc:	4619      	mov	r1, r3
   d6dce:	6840      	ldr	r0, [r0, #4]
   d6dd0:	f7ff b9f4 	b.w	d61bc <network_on>

000d6dd4 <_ZN5spark12NetworkClass3offEv>:
}

void NetworkClass::off() {
    network_off(*this, 0, 0, nullptr);
   d6dd4:	2300      	movs	r3, #0
   d6dd6:	461a      	mov	r2, r3
   d6dd8:	4619      	mov	r1, r3
   d6dda:	6840      	ldr	r0, [r0, #4]
   d6ddc:	f7ff b9f6 	b.w	d61cc <network_off>

000d6de0 <_ZN5spark12NetworkClass6listenEb>:
}

void NetworkClass::listen(bool begin) {
    network_listen(*this, begin ? 0 : 1, nullptr);
   d6de0:	2200      	movs	r2, #0
   d6de2:	f081 0101 	eor.w	r1, r1, #1
   d6de6:	6840      	ldr	r0, [r0, #4]
   d6de8:	f7ff b9f8 	b.w	d61dc <network_listen>

000d6dec <_ZN5spark12NetworkClass16setListenTimeoutEt>:
}

void NetworkClass::setListenTimeout(uint16_t timeout) {
    network_set_listen_timeout(*this, timeout, nullptr);
   d6dec:	2200      	movs	r2, #0
   d6dee:	6840      	ldr	r0, [r0, #4]
   d6df0:	f7ff ba04 	b.w	d61fc <network_set_listen_timeout>

000d6df4 <_ZN5spark12NetworkClass16getListenTimeoutEv>:
}

uint16_t NetworkClass::getListenTimeout() {
    return network_get_listen_timeout(*this, 0, nullptr);
   d6df4:	2200      	movs	r2, #0
   d6df6:	4611      	mov	r1, r2
   d6df8:	6840      	ldr	r0, [r0, #4]
   d6dfa:	f7ff ba07 	b.w	d620c <network_get_listen_timeout>

000d6dfe <_ZN5spark12NetworkClass9listeningEv>:
}

bool NetworkClass::listening() {
    return network_listening(*this, 0, nullptr);
   d6dfe:	2200      	movs	r2, #0
   d6e00:	4611      	mov	r1, r2
   d6e02:	6840      	ldr	r0, [r0, #4]
   d6e04:	f7ff b9f2 	b.w	d61ec <network_listening>

000d6e08 <_ZN5spark12NetworkClass7resolveEPKc>:
}

IPAddress NetworkClass::resolve(const char* name) {
   d6e08:	e92d 43f0 	stmdb	sp!, {r4, r5, r6, r7, r8, r9, lr}
    IPAddress addr;
#if HAL_USE_INET_HAL_POSIX
    struct addrinfo *ai = nullptr;
   d6e0c:	2400      	movs	r4, #0

bool NetworkClass::listening() {
    return network_listening(*this, 0, nullptr);
}

IPAddress NetworkClass::resolve(const char* name) {
   d6e0e:	b095      	sub	sp, #84	; 0x54
   d6e10:	4616      	mov	r6, r2
   d6e12:	460d      	mov	r5, r1
   d6e14:	4607      	mov	r7, r0
    IPAddress addr;
   d6e16:	f7ff fec5 	bl	d6ba4 <_ZN9IPAddressC1Ev>
#if HAL_USE_INET_HAL_POSIX
    struct addrinfo *ai = nullptr;
    struct addrinfo hints = {};
   d6e1a:	4621      	mov	r1, r4
   d6e1c:	2220      	movs	r2, #32
   d6e1e:	a80c      	add	r0, sp, #48	; 0x30
}

IPAddress NetworkClass::resolve(const char* name) {
    IPAddress addr;
#if HAL_USE_INET_HAL_POSIX
    struct addrinfo *ai = nullptr;
   d6e20:	9400      	str	r4, [sp, #0]
    struct addrinfo hints = {};
   d6e22:	f001 fe8c 	bl	d8b3e <memset>
    hints.ai_flags = AI_ADDRCONFIG;
   d6e26:	2340      	movs	r3, #64	; 0x40
   d6e28:	930c      	str	r3, [sp, #48]	; 0x30
    hints.ai_family = AF_UNSPEC;
    const int r = getaddrinfo(name, nullptr, &hints, &ai);
   d6e2a:	4621      	mov	r1, r4
   d6e2c:	466b      	mov	r3, sp
   d6e2e:	aa0c      	add	r2, sp, #48	; 0x30
   d6e30:	4630      	mov	r0, r6
   d6e32:	f7ff f837 	bl	d5ea4 <netdb_getaddrinfo>
    if (!r) {
   d6e36:	4604      	mov	r4, r0
   d6e38:	2800      	cmp	r0, #0
   d6e3a:	d144      	bne.n	d6ec6 <_ZN5spark12NetworkClass7resolveEPKc+0xbe>
        bool ok = false;
        // This is not really needed if AI_ADDRCONFIG is properly supported
        bool ipv4 = network_ready(*this, NETWORK_READY_TYPE_IPV4, nullptr);
   d6e3c:	4602      	mov	r2, r0
   d6e3e:	2101      	movs	r1, #1
   d6e40:	6868      	ldr	r0, [r5, #4]
   d6e42:	f7ff f9b3 	bl	d61ac <network_ready>
        bool ipv6 = network_ready(*this, NETWORK_READY_TYPE_IPV6, nullptr);
   d6e46:	2102      	movs	r1, #2
    hints.ai_family = AF_UNSPEC;
    const int r = getaddrinfo(name, nullptr, &hints, &ai);
    if (!r) {
        bool ok = false;
        // This is not really needed if AI_ADDRCONFIG is properly supported
        bool ipv4 = network_ready(*this, NETWORK_READY_TYPE_IPV4, nullptr);
   d6e48:	4680      	mov	r8, r0
        bool ipv6 = network_ready(*this, NETWORK_READY_TYPE_IPV6, nullptr);
   d6e4a:	4622      	mov	r2, r4
   d6e4c:	6868      	ldr	r0, [r5, #4]
   d6e4e:	f7ff f9ad 	bl	d61ac <network_ready>
        for (auto cur = ai; cur != nullptr && !ok; cur = cur->ai_next) {
   d6e52:	9e00      	ldr	r6, [sp, #0]
    const int r = getaddrinfo(name, nullptr, &hints, &ai);
    if (!r) {
        bool ok = false;
        // This is not really needed if AI_ADDRCONFIG is properly supported
        bool ipv4 = network_ready(*this, NETWORK_READY_TYPE_IPV4, nullptr);
        bool ipv6 = network_ready(*this, NETWORK_READY_TYPE_IPV6, nullptr);
   d6e54:	4681      	mov	r9, r0
    struct addrinfo hints = {};
    hints.ai_flags = AI_ADDRCONFIG;
    hints.ai_family = AF_UNSPEC;
    const int r = getaddrinfo(name, nullptr, &hints, &ai);
    if (!r) {
        bool ok = false;
   d6e56:	4621      	mov	r1, r4
        // This is not really needed if AI_ADDRCONFIG is properly supported
        bool ipv4 = network_ready(*this, NETWORK_READY_TYPE_IPV4, nullptr);
        bool ipv6 = network_ready(*this, NETWORK_READY_TYPE_IPV6, nullptr);
        for (auto cur = ai; cur != nullptr && !ok; cur = cur->ai_next) {
   d6e58:	2e00      	cmp	r6, #0
   d6e5a:	d034      	beq.n	d6ec6 <_ZN5spark12NetworkClass7resolveEPKc+0xbe>
   d6e5c:	2900      	cmp	r1, #0
   d6e5e:	d132      	bne.n	d6ec6 <_ZN5spark12NetworkClass7resolveEPKc+0xbe>
            // NOTE: using only the first entry that matches the current state of IPv4/IPv6 connectivity
            switch (cur->ai_family) {
   d6e60:	6873      	ldr	r3, [r6, #4]
   d6e62:	2b02      	cmp	r3, #2
   d6e64:	d002      	beq.n	d6e6c <_ZN5spark12NetworkClass7resolveEPKc+0x64>
   d6e66:	2b0a      	cmp	r3, #10
   d6e68:	d009      	beq.n	d6e7e <_ZN5spark12NetworkClass7resolveEPKc+0x76>
   d6e6a:	e02a      	b.n	d6ec2 <_ZN5spark12NetworkClass7resolveEPKc+0xba>
                case AF_INET: {
                    if (!ipv4) {
   d6e6c:	f1b8 0f00 	cmp.w	r8, #0
   d6e70:	d027      	beq.n	d6ec2 <_ZN5spark12NetworkClass7resolveEPKc+0xba>
                        continue;
                    }
                    // NOTE: HAL_IPAddress is little-endian
                    auto in = (struct sockaddr_in*)cur->ai_addr;
                    addr = (const uint8_t*)(&in->sin_addr.s_addr);
   d6e72:	6971      	ldr	r1, [r6, #20]
   d6e74:	4638      	mov	r0, r7
   d6e76:	3104      	adds	r1, #4
   d6e78:	f7ff fec1 	bl	d6bfe <_ZN9IPAddressaSEPKh>
   d6e7c:	e020      	b.n	d6ec0 <_ZN5spark12NetworkClass7resolveEPKc+0xb8>
                    ok = true;
                    break;
                }
                case AF_INET6: {
                    if (!ipv6) {
   d6e7e:	f1b9 0f00 	cmp.w	r9, #0
   d6e82:	d01e      	beq.n	d6ec2 <_ZN5spark12NetworkClass7resolveEPKc+0xba>
                        continue;
                    }
                    auto in6 = (struct sockaddr_in6*)cur->ai_addr;
   d6e84:	6974      	ldr	r4, [r6, #20]
                    HAL_IPAddress a = {};
   d6e86:	2211      	movs	r2, #17
   d6e88:	a801      	add	r0, sp, #4
   d6e8a:	f001 fe58 	bl	d8b3e <memset>
                    a.v = 6;
   d6e8e:	2306      	movs	r3, #6
   d6e90:	f88d 3014 	strb.w	r3, [sp, #20]
                    memcpy(a.ipv6, in6->sin6_addr.s6_addr, sizeof(a.ipv6));
   d6e94:	ad01      	add	r5, sp, #4
   d6e96:	f104 0308 	add.w	r3, r4, #8
   d6e9a:	3418      	adds	r4, #24
   d6e9c:	6818      	ldr	r0, [r3, #0]
   d6e9e:	6859      	ldr	r1, [r3, #4]
   d6ea0:	462a      	mov	r2, r5
   d6ea2:	c203      	stmia	r2!, {r0, r1}
   d6ea4:	3308      	adds	r3, #8
   d6ea6:	42a3      	cmp	r3, r4
   d6ea8:	4615      	mov	r5, r2
   d6eaa:	d1f7      	bne.n	d6e9c <_ZN5spark12NetworkClass7resolveEPKc+0x94>
                    addr = IPAddress(a);
   d6eac:	a901      	add	r1, sp, #4
   d6eae:	a806      	add	r0, sp, #24

/**
 * The IP address stored in host order.
 *
 */
class IPAddress : public Printable {
   d6eb0:	ad07      	add	r5, sp, #28
   d6eb2:	f7ff fe85 	bl	d6bc0 <_ZN9IPAddressC1ERK16_HAL_IPAddress_t>
   d6eb6:	cd0f      	ldmia	r5!, {r0, r1, r2, r3}
   d6eb8:	1d3c      	adds	r4, r7, #4
   d6eba:	c40f      	stmia	r4!, {r0, r1, r2, r3}
   d6ebc:	682b      	ldr	r3, [r5, #0]
   d6ebe:	7023      	strb	r3, [r4, #0]
                    ok = true;
   d6ec0:	2101      	movs	r1, #1
    if (!r) {
        bool ok = false;
        // This is not really needed if AI_ADDRCONFIG is properly supported
        bool ipv4 = network_ready(*this, NETWORK_READY_TYPE_IPV4, nullptr);
        bool ipv6 = network_ready(*this, NETWORK_READY_TYPE_IPV6, nullptr);
        for (auto cur = ai; cur != nullptr && !ok; cur = cur->ai_next) {
   d6ec2:	69f6      	ldr	r6, [r6, #28]
   d6ec4:	e7c8      	b.n	d6e58 <_ZN5spark12NetworkClass7resolveEPKc+0x50>
                    break;
                }
            }
        }
    }
    freeaddrinfo(ai);
   d6ec6:	9800      	ldr	r0, [sp, #0]
   d6ec8:	f7fe ffe4 	bl	d5e94 <netdb_freeaddrinfo>
    return Cellular.resolve(name);
#endif // Wiring_Cellular

#endif // HAL_USE_INET_HAL_POSIX
    return addr;
}
   d6ecc:	4638      	mov	r0, r7
   d6ece:	b015      	add	sp, #84	; 0x54
   d6ed0:	e8bd 83f0 	ldmia.w	sp!, {r4, r5, r6, r7, r8, r9, pc}

000d6ed4 <_GLOBAL__sub_I__ZN5spark7NetworkE>:
   d6ed4:	4b02      	ldr	r3, [pc, #8]	; (d6ee0 <_GLOBAL__sub_I__ZN5spark7NetworkE+0xc>)
   d6ed6:	4a03      	ldr	r2, [pc, #12]	; (d6ee4 <_GLOBAL__sub_I__ZN5spark7NetworkE+0x10>)
   d6ed8:	601a      	str	r2, [r3, #0]
   d6eda:	2200      	movs	r2, #0
   d6edc:	605a      	str	r2, [r3, #4]
   d6ede:	4770      	bx	lr
   d6ee0:	2003e564 	.word	0x2003e564
   d6ee4:	000db524 	.word	0x000db524

000d6ee8 <_ZN5Print5writeEPKhj>:

// Public Methods //////////////////////////////////////////////////////////////

/* default implementation: may be overridden */
size_t Print::write(const uint8_t *buffer, size_t size)
{
   d6ee8:	b5f8      	push	{r3, r4, r5, r6, r7, lr}
   d6eea:	4606      	mov	r6, r0
   d6eec:	460d      	mov	r5, r1
   d6eee:	188f      	adds	r7, r1, r2
  size_t n = 0;
   d6ef0:	2400      	movs	r4, #0
  while (size--) {
   d6ef2:	42bd      	cmp	r5, r7
   d6ef4:	d00c      	beq.n	d6f10 <_ZN5Print5writeEPKhj+0x28>
     int chunk = write(*buffer++);
   d6ef6:	6833      	ldr	r3, [r6, #0]
   d6ef8:	f815 1b01 	ldrb.w	r1, [r5], #1
   d6efc:	689b      	ldr	r3, [r3, #8]
   d6efe:	4630      	mov	r0, r6
   d6f00:	4798      	blx	r3
     if (chunk>=0)
   d6f02:	2800      	cmp	r0, #0
   d6f04:	db01      	blt.n	d6f0a <_ZN5Print5writeEPKhj+0x22>
         n += chunk;
   d6f06:	4404      	add	r4, r0

/* default implementation: may be overridden */
size_t Print::write(const uint8_t *buffer, size_t size)
{
  size_t n = 0;
  while (size--) {
   d6f08:	e7f3      	b.n	d6ef2 <_ZN5Print5writeEPKhj+0xa>
     int chunk = write(*buffer++);
   d6f0a:	2c00      	cmp	r4, #0
   d6f0c:	bf08      	it	eq
   d6f0e:	4604      	moveq	r4, r0
             n = chunk;
         break;
     }
  }
  return n;
}
   d6f10:	4620      	mov	r0, r4
   d6f12:	bdf8      	pop	{r3, r4, r5, r6, r7, pc}

000d6f14 <_ZN5Print5writeEPKc>:

    int getWriteError() { return write_error; }
    void clearWriteError() { setWriteError(0); }

    virtual size_t write(uint8_t) = 0;
    size_t write(const char *str) {
   d6f14:	b570      	push	{r4, r5, r6, lr}
   d6f16:	4605      	mov	r5, r0
      if (str == NULL) return 0;
   d6f18:	460c      	mov	r4, r1
      return write((const uint8_t *)str, strlen(str));
    }
   d6f1a:	4608      	mov	r0, r1
    int getWriteError() { return write_error; }
    void clearWriteError() { setWriteError(0); }

    virtual size_t write(uint8_t) = 0;
    size_t write(const char *str) {
      if (str == NULL) return 0;
   d6f1c:	b149      	cbz	r1, d6f32 <_ZN5Print5writeEPKc+0x1e>
      return write((const uint8_t *)str, strlen(str));
   d6f1e:	f001 fe6c 	bl	d8bfa <strlen>
   d6f22:	682b      	ldr	r3, [r5, #0]
   d6f24:	4602      	mov	r2, r0
   d6f26:	4621      	mov	r1, r4
   d6f28:	4628      	mov	r0, r5
   d6f2a:	68db      	ldr	r3, [r3, #12]
    }
   d6f2c:	e8bd 4070 	ldmia.w	sp!, {r4, r5, r6, lr}
    void clearWriteError() { setWriteError(0); }

    virtual size_t write(uint8_t) = 0;
    size_t write(const char *str) {
      if (str == NULL) return 0;
      return write((const uint8_t *)str, strlen(str));
   d6f30:	4718      	bx	r3
    }
   d6f32:	bd70      	pop	{r4, r5, r6, pc}

000d6f34 <_ZN5Print5printEc>:
  return write(str);
}

size_t Print::print(char c)
{
  return write(c);
   d6f34:	6803      	ldr	r3, [r0, #0]
   d6f36:	689b      	ldr	r3, [r3, #8]
   d6f38:	4718      	bx	r3

000d6f3a <_ZN5Print7printlnEv>:
{
  return print(reinterpret_cast<const char*>(str));
}

size_t Print::println(void)
{
   d6f3a:	b538      	push	{r3, r4, r5, lr}
  size_t n = print('\r');
   d6f3c:	210d      	movs	r1, #13
{
  return print(reinterpret_cast<const char*>(str));
}

size_t Print::println(void)
{
   d6f3e:	4605      	mov	r5, r0
  size_t n = print('\r');
   d6f40:	f7ff fff8 	bl	d6f34 <_ZN5Print5printEc>
  n += print('\n');
   d6f44:	210a      	movs	r1, #10
  return print(reinterpret_cast<const char*>(str));
}

size_t Print::println(void)
{
  size_t n = print('\r');
   d6f46:	4604      	mov	r4, r0
  n += print('\n');
   d6f48:	4628      	mov	r0, r5
   d6f4a:	f7ff fff3 	bl	d6f34 <_ZN5Print5printEc>
  return n;
}
   d6f4e:	4420      	add	r0, r4
   d6f50:	bd38      	pop	{r3, r4, r5, pc}

000d6f52 <_ZN5Print7printlnEPKc>:

size_t Print::println(const char c[])
{
   d6f52:	b538      	push	{r3, r4, r5, lr}
   d6f54:	4605      	mov	r5, r0
  return n;
}

size_t Print::print(const char str[])
{
  return write(str);
   d6f56:	f7ff ffdd 	bl	d6f14 <_ZN5Print5writeEPKc>
   d6f5a:	4604      	mov	r4, r0
}

size_t Print::println(const char c[])
{
  size_t n = print(c);
  n += println();
   d6f5c:	4628      	mov	r0, r5
   d6f5e:	f7ff ffec 	bl	d6f3a <_ZN5Print7printlnEv>
  return n;
}
   d6f62:	4420      	add	r0, r4
   d6f64:	bd38      	pop	{r3, r4, r5, pc}

000d6f66 <_ZN5Print11printNumberEmh>:
  return println(reinterpret_cast<const char*>(str));
}

// Private Methods /////////////////////////////////////////////////////////////

size_t Print::printNumber(unsigned long n, uint8_t base) {
   d6f66:	b530      	push	{r4, r5, lr}
   d6f68:	b08b      	sub	sp, #44	; 0x2c
   d6f6a:	460b      	mov	r3, r1
  char buf[8 * sizeof(n) + 1]; // Assumes 8-bit chars plus zero byte.
  char *str = &buf[sizeof(buf) - 1];

  *str = '\0';
   d6f6c:	2100      	movs	r1, #0
   d6f6e:	f88d 1024 	strb.w	r1, [sp, #36]	; 0x24

  // prevent crash if called with base == 1
  if (base < 2) base = 10;
   d6f72:	2a01      	cmp	r2, #1
   d6f74:	bf98      	it	ls
   d6f76:	220a      	movls	r2, #10
   d6f78:	f10d 0423 	add.w	r4, sp, #35	; 0x23

  do {
   decltype(n) m = n;
   n /= base;
   d6f7c:	fbb3 f5f2 	udiv	r5, r3, r2
   char c = m - base * n;
   d6f80:	fb05 3312 	mls	r3, r5, r2, r3
   d6f84:	f003 03ff 	and.w	r3, r3, #255	; 0xff
   *--str = c < 10 ? c + '0' : c + 'A' - 10;
   d6f88:	2b09      	cmp	r3, #9
   d6f8a:	bf94      	ite	ls
   d6f8c:	3330      	addls	r3, #48	; 0x30
   d6f8e:	3337      	addhi	r3, #55	; 0x37
   d6f90:	b2db      	uxtb	r3, r3
   d6f92:	4621      	mov	r1, r4
   d6f94:	f804 3901 	strb.w	r3, [r4], #-1
   d6f98:	462b      	mov	r3, r5
  *str = '\0';

  // prevent crash if called with base == 1
  if (base < 2) base = 10;

  do {
   d6f9a:	2d00      	cmp	r5, #0
   d6f9c:	d1ee      	bne.n	d6f7c <_ZN5Print11printNumberEmh+0x16>
   n /= base;
   char c = m - base * n;
   *--str = c < 10 ? c + '0' : c + 'A' - 10;
  } while(n);

  return write(str);
   d6f9e:	f7ff ffb9 	bl	d6f14 <_ZN5Print5writeEPKc>
}
   d6fa2:	b00b      	add	sp, #44	; 0x2c
   d6fa4:	bd30      	pop	{r4, r5, pc}

000d6fa6 <_ZN8RGBClassD1Ev>:
#include "rgbled.h"

typedef void (raw_rgb_change_handler_t)(uint8_t, uint8_t, uint8_t);
typedef std::function<raw_rgb_change_handler_t> wiring_rgb_change_handler_t;

class RGBClass {
   d6fa6:	b510      	push	{r4, lr}
   d6fa8:	4604      	mov	r4, r0
   *  @ingroup functors
   *
   *  Polymorphic function wrapper.
   */
  template<typename _Res, typename... _ArgTypes>
    class function<_Res(_ArgTypes...)>
   d6faa:	f7ff fa04 	bl	d63b6 <_ZNSt14_Function_baseD1Ev>
   d6fae:	4620      	mov	r0, r4
   d6fb0:	bd10      	pop	{r4, pc}
	...

000d6fb4 <_GLOBAL__sub_I_RGB>:
	{
	  _Base::_M_init_functor(__functor, std::__addressof(__f.get()));
	}
      };

    _Function_base() : _M_manager(nullptr) { }
   d6fb4:	4803      	ldr	r0, [pc, #12]	; (d6fc4 <_GLOBAL__sub_I_RGB+0x10>)
#include "spark_wiring_rgb.h"
#include "spark_wiring_interrupts.h"

#include "core_hal.h"

RGBClass RGB;
   d6fb6:	4a04      	ldr	r2, [pc, #16]	; (d6fc8 <_GLOBAL__sub_I_RGB+0x14>)
   d6fb8:	4904      	ldr	r1, [pc, #16]	; (d6fcc <_GLOBAL__sub_I_RGB+0x18>)
   d6fba:	2300      	movs	r3, #0
   d6fbc:	6083      	str	r3, [r0, #8]
   d6fbe:	f000 bc87 	b.w	d78d0 <__aeabi_atexit>
   d6fc2:	bf00      	nop
   d6fc4:	2003e56c 	.word	0x2003e56c
   d6fc8:	2003e130 	.word	0x2003e130
   d6fcc:	000d6fa7 	.word	0x000d6fa7

000d6fd0 <_ZN8SPIClassD1Ev>:
  RecursiveMutex _mutex;
#endif

public:
  SPIClass(HAL_SPI_Interface spi);
  virtual ~SPIClass() {};
   d6fd0:	4770      	bx	lr

000d6fd2 <_ZN8SPIClassD0Ev>:
   d6fd2:	b510      	push	{r4, lr}
   d6fd4:	210c      	movs	r1, #12
   d6fd6:	4604      	mov	r4, r0
   d6fd8:	f000 fc7f 	bl	d78da <_ZdlPvj>
   d6fdc:	4620      	mov	r0, r4
   d6fde:	bd10      	pop	{r4, pc}

000d6fe0 <_ZN8SPIClass4lockEv.isra.0>:
  }

  int lock()
  {
#if HAL_PLATFORM_SPI_HAL_THREAD_SAFETY
    return HAL_SPI_Acquire(_spi, nullptr);
   d6fe0:	2100      	movs	r1, #0
   d6fe2:	f7fe bfa7 	b.w	d5f34 <HAL_SPI_Acquire>

000d6fe6 <_ZN8SPIClass6unlockEv.isra.1>:
  }

  void unlock()
  {
#if HAL_PLATFORM_SPI_HAL_THREAD_SAFETY
    HAL_SPI_Release(_spi, nullptr);
   d6fe6:	2100      	movs	r1, #0
   d6fe8:	f7fe bfac 	b.w	d5f44 <HAL_SPI_Release>

000d6fec <_ZN8SPIClassC1E17HAL_SPI_Interface>:
    }
    return particle::__SPISettings(info->clock, info->bit_order, info->data_mode);
}
} // namespace

SPIClass::SPIClass(HAL_SPI_Interface spi)
   d6fec:	b510      	push	{r4, lr}
   d6fee:	4b05      	ldr	r3, [pc, #20]	; (d7004 <_ZN8SPIClassC1E17HAL_SPI_Interface+0x18>)
   d6ff0:	6003      	str	r3, [r0, #0]
   d6ff2:	4604      	mov	r4, r0
{
    _spi = spi;
   d6ff4:	7101      	strb	r1, [r0, #4]
    HAL_SPI_Init(_spi);
   d6ff6:	4608      	mov	r0, r1
   d6ff8:	f7fe ff84 	bl	d5f04 <HAL_SPI_Init>
    _dividerReference = SPI_CLK_SYSTEM; // 0 indicates the system clock
   d6ffc:	2300      	movs	r3, #0
   d6ffe:	60a3      	str	r3, [r4, #8]
}
   d7000:	4620      	mov	r0, r4
   d7002:	bd10      	pop	{r4, pc}
   d7004:	000db558 	.word	0x000db558

000d7008 <_ZN8SPIClass5beginEv>:

void SPIClass::begin()
{
   d7008:	b510      	push	{r4, lr}
   d700a:	4604      	mov	r4, r0
    // TODO: Fetch default pin from HAL
    if (!lock())
   d700c:	7900      	ldrb	r0, [r0, #4]
   d700e:	f7ff ffe7 	bl	d6fe0 <_ZN8SPIClass4lockEv.isra.0>
   d7012:	b948      	cbnz	r0, d7028 <_ZN8SPIClass5beginEv+0x20>
    {
        HAL_SPI_Begin(_spi, SPI_DEFAULT_SS);
   d7014:	7920      	ldrb	r0, [r4, #4]
   d7016:	f64f 71ff 	movw	r1, #65535	; 0xffff
   d701a:	f7fe ff4b 	bl	d5eb4 <HAL_SPI_Begin>
        unlock();
   d701e:	7920      	ldrb	r0, [r4, #4]
    }
}
   d7020:	e8bd 4010 	ldmia.w	sp!, {r4, lr}
{
    // TODO: Fetch default pin from HAL
    if (!lock())
    {
        HAL_SPI_Begin(_spi, SPI_DEFAULT_SS);
        unlock();
   d7024:	f7ff bfdf 	b.w	d6fe6 <_ZN8SPIClass6unlockEv.isra.1>
   d7028:	bd10      	pop	{r4, pc}

000d702a <_ZN8SPIClass11setBitOrderEh>:
        unlock();
    }
}

void SPIClass::setBitOrder(uint8_t bitOrder)
{
   d702a:	b538      	push	{r3, r4, r5, lr}
   d702c:	4604      	mov	r4, r0
    if (!lock())
   d702e:	7900      	ldrb	r0, [r0, #4]
        unlock();
    }
}

void SPIClass::setBitOrder(uint8_t bitOrder)
{
   d7030:	460d      	mov	r5, r1
    if (!lock())
   d7032:	f7ff ffd5 	bl	d6fe0 <_ZN8SPIClass4lockEv.isra.0>
   d7036:	b940      	cbnz	r0, d704a <_ZN8SPIClass11setBitOrderEh+0x20>
    {
        HAL_SPI_Set_Bit_Order(_spi, bitOrder);
   d7038:	7920      	ldrb	r0, [r4, #4]
   d703a:	4629      	mov	r1, r5
   d703c:	f7fe ff42 	bl	d5ec4 <HAL_SPI_Set_Bit_Order>
        unlock();
   d7040:	7920      	ldrb	r0, [r4, #4]
    }
}
   d7042:	e8bd 4038 	ldmia.w	sp!, {r3, r4, r5, lr}
void SPIClass::setBitOrder(uint8_t bitOrder)
{
    if (!lock())
    {
        HAL_SPI_Set_Bit_Order(_spi, bitOrder);
        unlock();
   d7046:	f7ff bfce 	b.w	d6fe6 <_ZN8SPIClass6unlockEv.isra.1>
   d704a:	bd38      	pop	{r3, r4, r5, pc}

000d704c <_ZN8SPIClass11setDataModeEh>:
    }
}

void SPIClass::setDataMode(uint8_t mode)
{
   d704c:	b538      	push	{r3, r4, r5, lr}
   d704e:	4604      	mov	r4, r0
    if (!lock())
   d7050:	7900      	ldrb	r0, [r0, #4]
        unlock();
    }
}

void SPIClass::setDataMode(uint8_t mode)
{
   d7052:	460d      	mov	r5, r1
    if (!lock())
   d7054:	f7ff ffc4 	bl	d6fe0 <_ZN8SPIClass4lockEv.isra.0>
   d7058:	b940      	cbnz	r0, d706c <_ZN8SPIClass11setDataModeEh+0x20>
    {
        HAL_SPI_Set_Data_Mode(_spi, mode);
   d705a:	7920      	ldrb	r0, [r4, #4]
   d705c:	4629      	mov	r1, r5
   d705e:	f7fe ff39 	bl	d5ed4 <HAL_SPI_Set_Data_Mode>
        unlock();
   d7062:	7920      	ldrb	r0, [r4, #4]
    }
}
   d7064:	e8bd 4038 	ldmia.w	sp!, {r3, r4, r5, lr}
void SPIClass::setDataMode(uint8_t mode)
{
    if (!lock())
    {
        HAL_SPI_Set_Data_Mode(_spi, mode);
        unlock();
   d7068:	f7ff bfbd 	b.w	d6fe6 <_ZN8SPIClass6unlockEv.isra.1>
   d706c:	bd38      	pop	{r3, r4, r5, pc}

000d706e <_ZN8SPIClass14endTransactionEv>:
}

void SPIClass::endTransaction()
{
    // Release peripheral
    unlock();
   d706e:	7900      	ldrb	r0, [r0, #4]
   d7070:	f7ff bfb9 	b.w	d6fe6 <_ZN8SPIClass6unlockEv.isra.1>

000d7074 <_ZN8SPIClass19computeClockDividerEjjRhRj>:
void SPIClass::computeClockDivider(unsigned reference, unsigned targetSpeed, uint8_t& divider,
                                   unsigned& clock)
{
    clock = reference;
    uint8_t scale = 0;
    clock >>= 1; // div2 is the first
   d7074:	0840      	lsrs	r0, r0, #1
    }
}

void SPIClass::computeClockDivider(unsigned reference, unsigned targetSpeed, uint8_t& divider,
                                   unsigned& clock)
{
   d7076:	b530      	push	{r4, r5, lr}
    clock = reference;
    uint8_t scale = 0;
    clock >>= 1; // div2 is the first
   d7078:	6018      	str	r0, [r3, #0]
   d707a:	2400      	movs	r4, #0
    while (clock > targetSpeed && scale < 7)
   d707c:	6818      	ldr	r0, [r3, #0]
   d707e:	4288      	cmp	r0, r1
   d7080:	b2e5      	uxtb	r5, r4
   d7082:	d906      	bls.n	d7092 <_ZN8SPIClass19computeClockDividerEjjRhRj+0x1e>
   d7084:	3401      	adds	r4, #1
   d7086:	2c08      	cmp	r4, #8
   d7088:	d002      	beq.n	d7090 <_ZN8SPIClass19computeClockDividerEjjRhRj+0x1c>
    {
        clock >>= 1;
   d708a:	0840      	lsrs	r0, r0, #1
   d708c:	6018      	str	r0, [r3, #0]
                                   unsigned& clock)
{
    clock = reference;
    uint8_t scale = 0;
    clock >>= 1; // div2 is the first
    while (clock > targetSpeed && scale < 7)
   d708e:	e7f5      	b.n	d707c <_ZN8SPIClass19computeClockDividerEjjRhRj+0x8>
   d7090:	2507      	movs	r5, #7
    {
        clock >>= 1;
        scale++;
    }
    divider = clock_divisors[scale];
   d7092:	4b02      	ldr	r3, [pc, #8]	; (d709c <_ZN8SPIClass19computeClockDividerEjjRhRj+0x28>)
   d7094:	5d5b      	ldrb	r3, [r3, r5]
   d7096:	7013      	strb	r3, [r2, #0]
   d7098:	bd30      	pop	{r4, r5, pc}
   d709a:	bf00      	nop
   d709c:	000db560 	.word	0x000db560

000d70a0 <_ZN8SPIClass13setClockSpeedEjj>:
}

unsigned SPIClass::setClockSpeed(unsigned value, unsigned value_scale)
{
   d70a0:	e92d 41f0 	stmdb	sp!, {r4, r5, r6, r7, r8, lr}
   d70a4:	b088      	sub	sp, #32
    unsigned clock = 0;
   d70a6:	2300      	movs	r3, #0
    }
    divider = clock_divisors[scale];
}

unsigned SPIClass::setClockSpeed(unsigned value, unsigned value_scale)
{
   d70a8:	4604      	mov	r4, r0
    unsigned clock = 0;

    // actual speed is the system clock divided by some scalar
    unsigned targetSpeed = value * value_scale;

    if (!lock())
   d70aa:	7900      	ldrb	r0, [r0, #4]
    divider = clock_divisors[scale];
}

unsigned SPIClass::setClockSpeed(unsigned value, unsigned value_scale)
{
    unsigned clock = 0;
   d70ac:	9302      	str	r3, [sp, #8]
    }
    divider = clock_divisors[scale];
}

unsigned SPIClass::setClockSpeed(unsigned value, unsigned value_scale)
{
   d70ae:	460e      	mov	r6, r1
   d70b0:	4617      	mov	r7, r2
    unsigned clock = 0;

    // actual speed is the system clock divided by some scalar
    unsigned targetSpeed = value * value_scale;

    if (!lock())
   d70b2:	f7ff ff95 	bl	d6fe0 <_ZN8SPIClass4lockEv.isra.0>
   d70b6:	4605      	mov	r5, r0
   d70b8:	bb00      	cbnz	r0, d70fc <_ZN8SPIClass13setClockSpeedEjj+0x5c>
    {
        // Query SPI info
        hal_spi_info_t info;
        querySpiInfo(_spi, &info);
   d70ba:	f894 8004 	ldrb.w	r8, [r4, #4]
 * \warning This method is NOT THREADSAFE and callers will need to utilize
 *          HAL synchronization primatives.
 */
static void querySpiInfo(HAL_SPI_Interface spi, hal_spi_info_t* info)
{
    memset(info, 0, sizeof(hal_spi_info_t));
   d70be:	4601      	mov	r1, r0
   d70c0:	2214      	movs	r2, #20
   d70c2:	a803      	add	r0, sp, #12
   d70c4:	f001 fd3b 	bl	d8b3e <memset>
    info->version = HAL_SPI_INFO_VERSION_1;
   d70c8:	230b      	movs	r3, #11
    HAL_SPI_Info(spi, info, nullptr);
   d70ca:	462a      	mov	r2, r5
   d70cc:	a903      	add	r1, sp, #12
   d70ce:	4640      	mov	r0, r8
 *          HAL synchronization primatives.
 */
static void querySpiInfo(HAL_SPI_Interface spi, hal_spi_info_t* info)
{
    memset(info, 0, sizeof(hal_spi_info_t));
    info->version = HAL_SPI_INFO_VERSION_1;
   d70d0:	f8ad 300c 	strh.w	r3, [sp, #12]
    HAL_SPI_Info(spi, info, nullptr);
   d70d4:	f7fe ff26 	bl	d5f24 <HAL_SPI_Info>
        hal_spi_info_t info;
        querySpiInfo(_spi, &info);

        // Calculate clock divider
        uint8_t divisor = 0;
        computeClockDivider(info.system_clock, targetSpeed, divisor, clock);
   d70d8:	ab02      	add	r3, sp, #8
   d70da:	f10d 0207 	add.w	r2, sp, #7
   d70de:	fb07 f106 	mul.w	r1, r7, r6
   d70e2:	9804      	ldr	r0, [sp, #16]
        // Query SPI info
        hal_spi_info_t info;
        querySpiInfo(_spi, &info);

        // Calculate clock divider
        uint8_t divisor = 0;
   d70e4:	f88d 5007 	strb.w	r5, [sp, #7]
        computeClockDivider(info.system_clock, targetSpeed, divisor, clock);
   d70e8:	f7ff ffc4 	bl	d7074 <_ZN8SPIClass19computeClockDividerEjjRhRj>

        // Update SPI peripheral
        HAL_SPI_Set_Clock_Divider(_spi, divisor);
   d70ec:	7920      	ldrb	r0, [r4, #4]
   d70ee:	f89d 1007 	ldrb.w	r1, [sp, #7]
   d70f2:	f7fe fef7 	bl	d5ee4 <HAL_SPI_Set_Clock_Divider>
        unlock();
   d70f6:	7920      	ldrb	r0, [r4, #4]
   d70f8:	f7ff ff75 	bl	d6fe6 <_ZN8SPIClass6unlockEv.isra.1>
    }

    return clock;
}
   d70fc:	9802      	ldr	r0, [sp, #8]
   d70fe:	b008      	add	sp, #32
   d7100:	e8bd 81f0 	ldmia.w	sp!, {r4, r5, r6, r7, r8, pc}

000d7104 <_ZN8SPIClass15setClockDividerEh>:
        unlock();
    }
}

void SPIClass::setClockDivider(uint8_t rate)
{
   d7104:	b538      	push	{r3, r4, r5, lr}
   d7106:	4604      	mov	r4, r0
    if (!lock())
   d7108:	7900      	ldrb	r0, [r0, #4]
        unlock();
    }
}

void SPIClass::setClockDivider(uint8_t rate)
{
   d710a:	460d      	mov	r5, r1
    if (!lock())
   d710c:	f7ff ff68 	bl	d6fe0 <_ZN8SPIClass4lockEv.isra.0>
   d7110:	b9c8      	cbnz	r0, d7146 <_ZN8SPIClass15setClockDividerEh+0x42>
    {
        if (_dividerReference)
   d7112:	68a1      	ldr	r1, [r4, #8]
   d7114:	b171      	cbz	r1, d7134 <_ZN8SPIClass15setClockDividerEh+0x30>
uint8_t divisorShiftScale(uint8_t divider)
{
    unsigned result = 0;
    for (; result < arraySize(clock_divisors); result++)
    {
        if (clock_divisors[result] == divider)
   d7116:	4b0c      	ldr	r3, [pc, #48]	; (d7148 <_ZN8SPIClass15setClockDividerEh+0x44>)
   d7118:	5cc2      	ldrb	r2, [r0, r3]
   d711a:	42aa      	cmp	r2, r5
   d711c:	d002      	beq.n	d7124 <_ZN8SPIClass15setClockDividerEh+0x20>
 * Calculates how far a clock value should be right-shifted
 */
uint8_t divisorShiftScale(uint8_t divider)
{
    unsigned result = 0;
    for (; result < arraySize(clock_divisors); result++)
   d711e:	3001      	adds	r0, #1
   d7120:	2808      	cmp	r0, #8
   d7122:	d1f9      	bne.n	d7118 <_ZN8SPIClass15setClockDividerEh+0x14>
        if (_dividerReference)
        {
            // determine the clock speed
            uint8_t scale = divisorShiftScale(rate);
            unsigned targetSpeed = _dividerReference >> scale;
            setClockSpeed(targetSpeed);
   d7124:	3001      	adds	r0, #1
   d7126:	b2c0      	uxtb	r0, r0
   d7128:	40c1      	lsrs	r1, r0
   d712a:	2201      	movs	r2, #1
   d712c:	4620      	mov	r0, r4
   d712e:	f7ff ffb7 	bl	d70a0 <_ZN8SPIClass13setClockSpeedEjj>
   d7132:	e003      	b.n	d713c <_ZN8SPIClass15setClockDividerEh+0x38>
        }
        else
        {
            HAL_SPI_Set_Clock_Divider(_spi, rate);
   d7134:	4629      	mov	r1, r5
   d7136:	7920      	ldrb	r0, [r4, #4]
   d7138:	f7fe fed4 	bl	d5ee4 <HAL_SPI_Set_Clock_Divider>
        }
        unlock();
   d713c:	7920      	ldrb	r0, [r4, #4]
    }
}
   d713e:	e8bd 4038 	ldmia.w	sp!, {r3, r4, r5, lr}
        }
        else
        {
            HAL_SPI_Set_Clock_Divider(_spi, rate);
        }
        unlock();
   d7142:	f7ff bf50 	b.w	d6fe6 <_ZN8SPIClass6unlockEv.isra.1>
   d7146:	bd38      	pop	{r3, r4, r5, pc}
   d7148:	000db560 	.word	0x000db560

000d714c <_ZN8SPIClass8transferEh>:

    return clock;
}

byte SPIClass::transfer(byte _data)
{
   d714c:	b538      	push	{r3, r4, r5, lr}
   d714e:	4604      	mov	r4, r0
    uint16_t result = 0;
    if (!lock())
   d7150:	7900      	ldrb	r0, [r0, #4]

    return clock;
}

byte SPIClass::transfer(byte _data)
{
   d7152:	460d      	mov	r5, r1
    uint16_t result = 0;
    if (!lock())
   d7154:	f7ff ff44 	bl	d6fe0 <_ZN8SPIClass4lockEv.isra.0>
   d7158:	b940      	cbnz	r0, d716c <_ZN8SPIClass8transferEh+0x20>
    {
        result = HAL_SPI_Send_Receive_Data(_spi, _data);
   d715a:	4629      	mov	r1, r5
   d715c:	7920      	ldrb	r0, [r4, #4]
   d715e:	f7fe fec9 	bl	d5ef4 <HAL_SPI_Send_Receive_Data>
   d7162:	4605      	mov	r5, r0
        unlock();
   d7164:	7920      	ldrb	r0, [r4, #4]
   d7166:	f7ff ff3e 	bl	d6fe6 <_ZN8SPIClass6unlockEv.isra.1>
   d716a:	e000      	b.n	d716e <_ZN8SPIClass8transferEh+0x22>
    return clock;
}

byte SPIClass::transfer(byte _data)
{
    uint16_t result = 0;
   d716c:	2500      	movs	r5, #0
    {
        result = HAL_SPI_Send_Receive_Data(_spi, _data);
        unlock();
    }
    return static_cast<byte>(result);
}
   d716e:	b2e8      	uxtb	r0, r5
   d7170:	bd38      	pop	{r3, r4, r5, pc}

000d7172 <_ZN8SPIClass9isEnabledEv>:
bool SPIClass::isEnabled()
{
    // XXX: pinAvailable() will call this method potentially even from
    // interrupt context. `enabled` flag in HAL is usually just a volatile
    // variable, so it's fine not to acquire the lock here.
    return HAL_SPI_Is_Enabled(_spi);
   d7172:	7900      	ldrb	r0, [r0, #4]
   d7174:	f7fe bece 	b.w	d5f14 <HAL_SPI_Is_Enabled>

000d7178 <_ZN6StringD1Ev>:
	init();
	char buf[33];
	dtoa(value, decimalPlaces, buf);
        *this = buf;
}
String::~String()
   d7178:	b510      	push	{r4, lr}
   d717a:	4604      	mov	r4, r0
{
	free(buffer);
   d717c:	6800      	ldr	r0, [r0, #0]
   d717e:	f7ff f855 	bl	d622c <free>
}
   d7182:	4620      	mov	r0, r4
   d7184:	bd10      	pop	{r4, pc}

000d7186 <_ZN6String10invalidateEv>:
	len = 0;
	flags = 0;
}

void String::invalidate(void)
{
   d7186:	b510      	push	{r4, lr}
   d7188:	4604      	mov	r4, r0
	if (buffer) free(buffer);
   d718a:	6800      	ldr	r0, [r0, #0]
   d718c:	b108      	cbz	r0, d7192 <_ZN6String10invalidateEv+0xc>
   d718e:	f7ff f84d 	bl	d622c <free>
	buffer = NULL;
   d7192:	2300      	movs	r3, #0
   d7194:	6023      	str	r3, [r4, #0]
	capacity = len = 0;
   d7196:	60a3      	str	r3, [r4, #8]
   d7198:	6063      	str	r3, [r4, #4]
   d719a:	bd10      	pop	{r4, pc}

000d719c <_ZN6String12changeBufferEj>:
	}
	return 0;
}

unsigned char String::changeBuffer(unsigned int maxStrLen)
{
   d719c:	b538      	push	{r3, r4, r5, lr}
   d719e:	4604      	mov	r4, r0
   d71a0:	460d      	mov	r5, r1
	char *newbuffer = (char *)realloc(buffer, maxStrLen + 1);
   d71a2:	6800      	ldr	r0, [r0, #0]
   d71a4:	3101      	adds	r1, #1
   d71a6:	f7ff f849 	bl	d623c <realloc>
	if (newbuffer) {
   d71aa:	b110      	cbz	r0, d71b2 <_ZN6String12changeBufferEj+0x16>
		buffer = newbuffer;
		capacity = maxStrLen;
   d71ac:	e884 0021 	stmia.w	r4, {r0, r5}
		return 1;
   d71b0:	2001      	movs	r0, #1
	}
	return 0;
}
   d71b2:	bd38      	pop	{r3, r4, r5, pc}

000d71b4 <_ZN6String7reserveEj>:
	buffer = NULL;
	capacity = len = 0;
}

unsigned char String::reserve(unsigned int size)
{
   d71b4:	b510      	push	{r4, lr}
	if (buffer && capacity >= size) return 1;
   d71b6:	6803      	ldr	r3, [r0, #0]
	buffer = NULL;
	capacity = len = 0;
}

unsigned char String::reserve(unsigned int size)
{
   d71b8:	4604      	mov	r4, r0
	if (buffer && capacity >= size) return 1;
   d71ba:	b113      	cbz	r3, d71c2 <_ZN6String7reserveEj+0xe>
   d71bc:	6843      	ldr	r3, [r0, #4]
   d71be:	428b      	cmp	r3, r1
   d71c0:	d207      	bcs.n	d71d2 <_ZN6String7reserveEj+0x1e>
	if (changeBuffer(size)) {
   d71c2:	4620      	mov	r0, r4
   d71c4:	f7ff ffea 	bl	d719c <_ZN6String12changeBufferEj>
   d71c8:	b120      	cbz	r0, d71d4 <_ZN6String7reserveEj+0x20>
		if (len == 0) buffer[0] = 0;
   d71ca:	68a3      	ldr	r3, [r4, #8]
   d71cc:	b90b      	cbnz	r3, d71d2 <_ZN6String7reserveEj+0x1e>
   d71ce:	6822      	ldr	r2, [r4, #0]
   d71d0:	7013      	strb	r3, [r2, #0]
   d71d2:	2001      	movs	r0, #1
		return 1;
	}
	return 0;
}
   d71d4:	bd10      	pop	{r4, pc}

000d71d6 <_ZN6String4copyEPKcj>:
/*********************************************/
/*  Copy and Move                            */
/*********************************************/

String & String::copy(const char *cstr, unsigned int length)
{
   d71d6:	b570      	push	{r4, r5, r6, lr}
   d71d8:	460e      	mov	r6, r1
	if (!reserve(length)) {
   d71da:	4611      	mov	r1, r2
/*********************************************/
/*  Copy and Move                            */
/*********************************************/

String & String::copy(const char *cstr, unsigned int length)
{
   d71dc:	4604      	mov	r4, r0
   d71de:	4615      	mov	r5, r2
	if (!reserve(length)) {
   d71e0:	f7ff ffe8 	bl	d71b4 <_ZN6String7reserveEj>
   d71e4:	b918      	cbnz	r0, d71ee <_ZN6String4copyEPKcj+0x18>
		invalidate();
   d71e6:	4620      	mov	r0, r4
   d71e8:	f7ff ffcd 	bl	d7186 <_ZN6String10invalidateEv>
		return *this;
   d71ec:	e009      	b.n	d7202 <_ZN6String4copyEPKcj+0x2c>
	}
	len = length;
	memcpy(buffer, cstr, length);
   d71ee:	462a      	mov	r2, r5
   d71f0:	4631      	mov	r1, r6
{
	if (!reserve(length)) {
		invalidate();
		return *this;
	}
	len = length;
   d71f2:	60a5      	str	r5, [r4, #8]
	memcpy(buffer, cstr, length);
   d71f4:	6820      	ldr	r0, [r4, #0]
   d71f6:	f001 fc97 	bl	d8b28 <memcpy>
	buffer[len] = 0;
   d71fa:	6822      	ldr	r2, [r4, #0]
   d71fc:	68a3      	ldr	r3, [r4, #8]
   d71fe:	2100      	movs	r1, #0
   d7200:	54d1      	strb	r1, [r2, r3]
	return *this;
}
   d7202:	4620      	mov	r0, r4
   d7204:	bd70      	pop	{r4, r5, r6, pc}

000d7206 <_ZN6StringC1EPK19__FlashStringHelper>:
{
	init();
	*this = value;
}

String::String(const __FlashStringHelper *pstr)
   d7206:	b538      	push	{r3, r4, r5, lr}
/*  Memory Management                        */
/*********************************************/

inline void String::init(void)
{
	buffer = NULL;
   d7208:	2300      	movs	r3, #0
{
	init();
	*this = value;
}

String::String(const __FlashStringHelper *pstr)
   d720a:	4604      	mov	r4, r0
/*  Memory Management                        */
/*********************************************/

inline void String::init(void)
{
	buffer = NULL;
   d720c:	6003      	str	r3, [r0, #0]
	capacity = 0;
   d720e:	6043      	str	r3, [r0, #4]
	len = 0;
   d7210:	6083      	str	r3, [r0, #8]
	flags = 0;
   d7212:	7303      	strb	r3, [r0, #12]

String::String(const __FlashStringHelper *pstr)
{
	init();
	const char* cstr = reinterpret_cast<const char*>(pstr);
	if (cstr) copy(cstr, strlen(cstr));
   d7214:	460d      	mov	r5, r1
   d7216:	b139      	cbz	r1, d7228 <_ZN6StringC1EPK19__FlashStringHelper+0x22>
   d7218:	4608      	mov	r0, r1
   d721a:	f001 fcee 	bl	d8bfa <strlen>
   d721e:	4629      	mov	r1, r5
   d7220:	4602      	mov	r2, r0
   d7222:	4620      	mov	r0, r4
   d7224:	f7ff ffd7 	bl	d71d6 <_ZN6String4copyEPKcj>
}
   d7228:	4620      	mov	r0, r4
   d722a:	bd38      	pop	{r3, r4, r5, pc}

000d722c <_ZN6StringaSERKS_>:
}
#endif

String & String::operator = (const String &rhs)
{
	if (this == &rhs) return *this;
   d722c:	4288      	cmp	r0, r1
	rhs.len = 0;
}
#endif

String & String::operator = (const String &rhs)
{
   d722e:	b510      	push	{r4, lr}
   d7230:	460b      	mov	r3, r1
   d7232:	4604      	mov	r4, r0
	if (this == &rhs) return *this;
   d7234:	d007      	beq.n	d7246 <_ZN6StringaSERKS_+0x1a>

	if (rhs.buffer) copy(rhs.buffer, rhs.len);
   d7236:	6809      	ldr	r1, [r1, #0]
   d7238:	b119      	cbz	r1, d7242 <_ZN6StringaSERKS_+0x16>
   d723a:	689a      	ldr	r2, [r3, #8]
   d723c:	f7ff ffcb 	bl	d71d6 <_ZN6String4copyEPKcj>
   d7240:	e001      	b.n	d7246 <_ZN6StringaSERKS_+0x1a>
	else invalidate();
   d7242:	f7ff ffa0 	bl	d7186 <_ZN6String10invalidateEv>

	return *this;
}
   d7246:	4620      	mov	r0, r4
   d7248:	bd10      	pop	{r4, pc}

000d724a <_ZN6StringC1ERKS_>:
{
	init();
	if (cstr) copy(cstr, length);
}

String::String(const String &value)
   d724a:	b510      	push	{r4, lr}
/*  Memory Management                        */
/*********************************************/

inline void String::init(void)
{
	buffer = NULL;
   d724c:	2300      	movs	r3, #0
{
	init();
	if (cstr) copy(cstr, length);
}

String::String(const String &value)
   d724e:	4604      	mov	r4, r0
/*  Memory Management                        */
/*********************************************/

inline void String::init(void)
{
	buffer = NULL;
   d7250:	6003      	str	r3, [r0, #0]
	capacity = 0;
   d7252:	6043      	str	r3, [r0, #4]
	len = 0;
   d7254:	6083      	str	r3, [r0, #8]
	flags = 0;
   d7256:	7303      	strb	r3, [r0, #12]
}

String::String(const String &value)
{
	init();
	*this = value;
   d7258:	f7ff ffe8 	bl	d722c <_ZN6StringaSERKS_>
}
   d725c:	4620      	mov	r0, r4
   d725e:	bd10      	pop	{r4, pc}

000d7260 <_ZNK6String6equalsEPKc>:
{
	return (len == s2.len && compareTo(s2) == 0);
}

unsigned char String::equals(const char *cstr) const
{
   d7260:	b508      	push	{r3, lr}
	if (len == 0) return (cstr == NULL || *cstr == 0);
   d7262:	6882      	ldr	r2, [r0, #8]
{
	return (len == s2.len && compareTo(s2) == 0);
}

unsigned char String::equals(const char *cstr) const
{
   d7264:	460b      	mov	r3, r1
	if (len == 0) return (cstr == NULL || *cstr == 0);
   d7266:	b912      	cbnz	r2, d726e <_ZNK6String6equalsEPKc+0xe>
   d7268:	b919      	cbnz	r1, d7272 <_ZNK6String6equalsEPKc+0x12>
   d726a:	2001      	movs	r0, #1
   d726c:	bd08      	pop	{r3, pc}
	if (cstr == NULL) return buffer[0] == 0;
   d726e:	b911      	cbnz	r1, d7276 <_ZNK6String6equalsEPKc+0x16>
   d7270:	6803      	ldr	r3, [r0, #0]
   d7272:	7818      	ldrb	r0, [r3, #0]
   d7274:	e002      	b.n	d727c <_ZNK6String6equalsEPKc+0x1c>
	return strcmp(buffer, cstr) == 0;
   d7276:	6800      	ldr	r0, [r0, #0]
   d7278:	f001 fc92 	bl	d8ba0 <strcmp>
   d727c:	fab0 f080 	clz	r0, r0
   d7280:	0940      	lsrs	r0, r0, #5
}
   d7282:	bd08      	pop	{r3, pc}

000d7284 <_ZNK6String8getBytesEPhjj>:
	if (index >= len || !buffer) return 0;
	return buffer[index];
}

void String::getBytes(unsigned char *buf, unsigned int bufsize, unsigned int index) const
{
   d7284:	b570      	push	{r4, r5, r6, lr}
   d7286:	460e      	mov	r6, r1
	if (!bufsize || !buf) return;
   d7288:	b19a      	cbz	r2, d72b2 <_ZNK6String8getBytesEPhjj+0x2e>
   d728a:	b191      	cbz	r1, d72b2 <_ZNK6String8getBytesEPhjj+0x2e>
	if (index >= len) {
   d728c:	6885      	ldr	r5, [r0, #8]
   d728e:	429d      	cmp	r5, r3
   d7290:	d802      	bhi.n	d7298 <_ZNK6String8getBytesEPhjj+0x14>
		buf[0] = 0;
   d7292:	2300      	movs	r3, #0
   d7294:	700b      	strb	r3, [r1, #0]
		return;
   d7296:	bd70      	pop	{r4, r5, r6, pc}
	}
	unsigned int n = bufsize - 1;
   d7298:	1e54      	subs	r4, r2, #1
	if (n > len - index) n = len - index;
   d729a:	1aed      	subs	r5, r5, r3
	strncpy((char *)buf, buffer + index, n);
   d729c:	6801      	ldr	r1, [r0, #0]
   d729e:	42ac      	cmp	r4, r5
   d72a0:	bf28      	it	cs
   d72a2:	462c      	movcs	r4, r5
   d72a4:	4419      	add	r1, r3
   d72a6:	4622      	mov	r2, r4
   d72a8:	4630      	mov	r0, r6
   d72aa:	f001 fcc3 	bl	d8c34 <strncpy>
	buf[n] = 0;
   d72ae:	2300      	movs	r3, #0
   d72b0:	5533      	strb	r3, [r6, r4]
   d72b2:	bd70      	pop	{r4, r5, r6, pc}

000d72b4 <_ZNK6String7toFloatEv>:
	return 0;
}


float String::toFloat(void) const
{
   d72b4:	b508      	push	{r3, lr}
	if (buffer) return float(atof(buffer));
   d72b6:	6800      	ldr	r0, [r0, #0]
   d72b8:	b130      	cbz	r0, d72c8 <_ZNK6String7toFloatEv+0x14>
   d72ba:	f001 fb23 	bl	d8904 <atof>
   d72be:	ec51 0b10 	vmov	r0, r1, d0
   d72c2:	f001 f90b 	bl	d84dc <__aeabi_d2f>
   d72c6:	e000      	b.n	d72ca <_ZNK6String7toFloatEv+0x16>
	return 0;
   d72c8:	2000      	movs	r0, #0
}
   d72ca:	ee00 0a10 	vmov	s0, r0
   d72ce:	bd08      	pop	{r3, pc}

000d72d0 <_ZN11SystemClass5resetEm>:
    reset(0);
}

void SystemClass::reset(uint32_t data)
{
    HAL_Core_System_Reset_Ex(RESET_REASON_USER, data, nullptr);
   d72d0:	4601      	mov	r1, r0
   d72d2:	2200      	movs	r2, #0
   d72d4:	208c      	movs	r0, #140	; 0x8c
   d72d6:	f7fe bd25 	b.w	d5d24 <HAL_Core_System_Reset_Ex>

000d72da <_ZN11SystemClass5resetEv>:
    HAL_Core_Enter_Bootloader(persist);
}

void SystemClass::reset(void)
{
    reset(0);
   d72da:	2000      	movs	r0, #0
   d72dc:	f7ff bff8 	b.w	d72d0 <_ZN11SystemClass5resetEm>

000d72e0 <_GLOBAL__sub_I_System>:
    return wokenUpByRtc();
}

system_error_t SleepResult::error() const {
    return err_;
   d72e0:	b510      	push	{r4, lr}

class SystemSleepResult {
public:
    SystemSleepResult()
            : wakeupSource_(nullptr),
              error_(SYSTEM_ERROR_NONE) {
   d72e2:	4c09      	ldr	r4, [pc, #36]	; (d7308 <_GLOBAL__sub_I_System+0x28>)
   d72e4:	2000      	movs	r0, #0
    WAKEUP_REASON_PIN_OR_RTC = 3,
    WAKEUP_REASON_UNKNOWN = 4
};

struct SleepResult {
    SleepResult() {}
   d72e6:	f64f 73ff 	movw	r3, #65535	; 0xffff

class SystemSleepResult {
public:
    SystemSleepResult()
            : wakeupSource_(nullptr),
              error_(SYSTEM_ERROR_NONE) {
   d72ea:	6020      	str	r0, [r4, #0]
   d72ec:	80a0      	strh	r0, [r4, #4]
    WAKEUP_REASON_PIN_OR_RTC = 3,
    WAKEUP_REASON_UNKNOWN = 4
};

struct SleepResult {
    SleepResult() {}
   d72ee:	71a0      	strb	r0, [r4, #6]
   d72f0:	8120      	strh	r0, [r4, #8]
   d72f2:	8163      	strh	r3, [r4, #10]

class SystemClass {
public:

    SystemClass(System_Mode_TypeDef mode = DEFAULT) {
        set_system_mode(mode);
   d72f4:	f7fe fea6 	bl	d6044 <set_system_mode>

#if Wiring_LogConfig
extern void(*log_process_ctrl_request_callback)(ctrl_request* req);
#endif

SystemClass System;
   d72f8:	4620      	mov	r0, r4
   d72fa:	4a04      	ldr	r2, [pc, #16]	; (d730c <_GLOBAL__sub_I_System+0x2c>)
   d72fc:	4904      	ldr	r1, [pc, #16]	; (d7310 <_GLOBAL__sub_I_System+0x30>)
    return wokenUpByRtc();
}

system_error_t SleepResult::error() const {
    return err_;
   d72fe:	e8bd 4010 	ldmia.w	sp!, {r4, lr}

#if Wiring_LogConfig
extern void(*log_process_ctrl_request_callback)(ctrl_request* req);
#endif

SystemClass System;
   d7302:	f000 bae5 	b.w	d78d0 <__aeabi_atexit>
   d7306:	bf00      	nop
   d7308:	2003e57c 	.word	0x2003e57c
   d730c:	2003e130 	.word	0x2003e130
   d7310:	000d4b81 	.word	0x000d4b81

000d7314 <_ZL22Refresh_UnixTime_Cachel>:
}
*/

/* Refresh Unix/RTC time cache */
static void Refresh_UnixTime_Cache(time_t unix_time)
{
   d7314:	b5f0      	push	{r4, r5, r6, r7, lr}
    unix_time += time_zone_cache;
   d7316:	4b14      	ldr	r3, [pc, #80]	; (d7368 <_ZL22Refresh_UnixTime_Cachel+0x54>)
    unix_time += dst_current_cache;
    if(unix_time != unix_time_cache)
   d7318:	4f14      	ldr	r7, [pc, #80]	; (d736c <_ZL22Refresh_UnixTime_Cachel+0x58>)
*/

/* Refresh Unix/RTC time cache */
static void Refresh_UnixTime_Cache(time_t unix_time)
{
    unix_time += time_zone_cache;
   d731a:	681e      	ldr	r6, [r3, #0]
    unix_time += dst_current_cache;
   d731c:	4b14      	ldr	r3, [pc, #80]	; (d7370 <_ZL22Refresh_UnixTime_Cachel+0x5c>)
*/

/* Refresh Unix/RTC time cache */
static void Refresh_UnixTime_Cache(time_t unix_time)
{
    unix_time += time_zone_cache;
   d731e:	4406      	add	r6, r0
    unix_time += dst_current_cache;
   d7320:	6818      	ldr	r0, [r3, #0]
    if(unix_time != unix_time_cache)
   d7322:	683b      	ldr	r3, [r7, #0]

/* Refresh Unix/RTC time cache */
static void Refresh_UnixTime_Cache(time_t unix_time)
{
    unix_time += time_zone_cache;
    unix_time += dst_current_cache;
   d7324:	4406      	add	r6, r0
    if(unix_time != unix_time_cache)
   d7326:	429e      	cmp	r6, r3
}
*/

/* Refresh Unix/RTC time cache */
static void Refresh_UnixTime_Cache(time_t unix_time)
{
   d7328:	b08b      	sub	sp, #44	; 0x2c
    unix_time += time_zone_cache;
    unix_time += dst_current_cache;
    if(unix_time != unix_time_cache)
   d732a:	d01b      	beq.n	d7364 <_ZL22Refresh_UnixTime_Cachel+0x50>
   d732c:	a80a      	add	r0, sp, #40	; 0x28
static struct tm Convert_UnixTime_To_CalendarTime(time_t unix_time)
{
	struct tm *calendar_time;
	calendar_time = localtime(&unix_time);
	calendar_time->tm_year += 1900;
	return *calendar_time;
   d732e:	ad01      	add	r5, sp, #4
   d7330:	f840 6d28 	str.w	r6, [r0, #-40]!

/* Convert Unix/RTC time to Calendar time */
static struct tm Convert_UnixTime_To_CalendarTime(time_t unix_time)
{
	struct tm *calendar_time;
	calendar_time = localtime(&unix_time);
   d7334:	f001 fafc 	bl	d8930 <localtime>
	calendar_time->tm_year += 1900;
   d7338:	6943      	ldr	r3, [r0, #20]
   d733a:	f203 736c 	addw	r3, r3, #1900	; 0x76c
   d733e:	6143      	str	r3, [r0, #20]
	return *calendar_time;
   d7340:	4604      	mov	r4, r0
   d7342:	cc0f      	ldmia	r4!, {r0, r1, r2, r3}
   d7344:	c50f      	stmia	r5!, {r0, r1, r2, r3}
   d7346:	cc0f      	ldmia	r4!, {r0, r1, r2, r3}
   d7348:	c50f      	stmia	r5!, {r0, r1, r2, r3}
   d734a:	f8d4 e000 	ldr.w	lr, [r4]
   d734e:	f8c5 e000 	str.w	lr, [r5]
{
    unix_time += time_zone_cache;
    unix_time += dst_current_cache;
    if(unix_time != unix_time_cache)
    {
            calendar_time_cache = Convert_UnixTime_To_CalendarTime(unix_time);
   d7352:	ad01      	add	r5, sp, #4
   d7354:	cd0f      	ldmia	r5!, {r0, r1, r2, r3}
   d7356:	4c07      	ldr	r4, [pc, #28]	; (d7374 <_ZL22Refresh_UnixTime_Cachel+0x60>)
   d7358:	c40f      	stmia	r4!, {r0, r1, r2, r3}
   d735a:	cd0f      	ldmia	r5!, {r0, r1, r2, r3}
   d735c:	c40f      	stmia	r4!, {r0, r1, r2, r3}
            unix_time_cache = unix_time;
   d735e:	603e      	str	r6, [r7, #0]
{
    unix_time += time_zone_cache;
    unix_time += dst_current_cache;
    if(unix_time != unix_time_cache)
    {
            calendar_time_cache = Convert_UnixTime_To_CalendarTime(unix_time);
   d7360:	f8c4 e000 	str.w	lr, [r4]
            unix_time_cache = unix_time;
    }
}
   d7364:	b00b      	add	sp, #44	; 0x2c
   d7366:	bdf0      	pop	{r4, r5, r6, r7, pc}
   d7368:	2003e5b8 	.word	0x2003e5b8
   d736c:	2003e5b4 	.word	0x2003e5b4
   d7370:	2003e5b0 	.word	0x2003e5b0
   d7374:	2003e588 	.word	0x2003e588

000d7378 <_ZN10CloudClass12syncTimeDoneEv.isra.1>:
    bool syncTimePending(void)
    {
        return connected() && spark_sync_time_pending(nullptr);
    }

    bool syncTimeDone(void)
   d7378:	b508      	push	{r3, lr}
    {
        return !spark_sync_time_pending(nullptr) || disconnected();
   d737a:	2000      	movs	r0, #0
   d737c:	f7fe feee 	bl	d615c <spark_sync_time_pending>
   d7380:	b128      	cbz	r0, d738e <_ZN10CloudClass12syncTimeDoneEv.isra.1+0x16>
    static void sleep(Spark_Sleep_TypeDef sleepMode, long seconds=0) __attribute__ ((deprecated("Please use System.sleep() instead.")))
    { SystemClass::sleep(sleepMode, seconds); }
    static void sleep(uint16_t wakeUpPin, InterruptMode edgeTriggerMode, long seconds=0) __attribute__ ((deprecated("Please use System.sleep() instead.")))
    { SystemClass::sleep(wakeUpPin, edgeTriggerMode, seconds); }

    static bool connected(void) { return spark_cloud_flag_connected(); }
   d7382:	f7fe fec3 	bl	d610c <spark_cloud_flag_connected>
        return connected() && spark_sync_time_pending(nullptr);
    }

    bool syncTimeDone(void)
    {
        return !spark_sync_time_pending(nullptr) || disconnected();
   d7386:	f080 0001 	eor.w	r0, r0, #1
   d738a:	b2c0      	uxtb	r0, r0
   d738c:	bd08      	pop	{r3, pc}
   d738e:	2001      	movs	r0, #1
    }
   d7390:	bd08      	pop	{r3, pc}

000d7392 <_ZN9TimeClass7isValidEv>:
    strftime(buf, 50, format_str, calendar_time);
    return String(buf);
}

bool TimeClass::isValid()
{
   d7392:	b510      	push	{r4, lr}
    bool rtcstate = HAL_RTC_Time_Is_Valid(nullptr);
   d7394:	2000      	movs	r0, #0
   d7396:	f7fe fce5 	bl	d5d64 <HAL_RTC_Time_Is_Valid>
    if (rtcstate)
   d739a:	4604      	mov	r4, r0
   d739c:	b968      	cbnz	r0, d73ba <_ZN9TimeClass7isValidEv+0x28>
    }

    static System_Mode_TypeDef mode(void) {
        return system_mode();
   d739e:	f7fe fe49 	bl	d6034 <system_mode>
        return rtcstate;
    if (System.mode() == AUTOMATIC && system_thread_get_state(nullptr) == spark::feature::DISABLED)
   d73a2:	2801      	cmp	r0, #1
   d73a4:	d10b      	bne.n	d73be <_ZN9TimeClass7isValidEv+0x2c>
   d73a6:	4620      	mov	r0, r4
   d73a8:	f7fe fe74 	bl	d6094 <system_thread_get_state>
   d73ac:	b938      	cbnz	r0, d73be <_ZN9TimeClass7isValidEv+0x2c>
    {
        waitUntil(Particle.syncTimeDone);
   d73ae:	f7ff ffe3 	bl	d7378 <_ZN10CloudClass12syncTimeDoneEv.isra.1>


    static uint32_t freeMemory();

    template<typename Condition, typename While> static bool waitConditionWhile(Condition _condition, While _while) {
        while (_while() && !_condition()) {
   d73b2:	b930      	cbnz	r0, d73c2 <_ZN9TimeClass7isValidEv+0x30>
            spark_process();
   d73b4:	f7fe fe9a 	bl	d60ec <spark_process>
   d73b8:	e7f9      	b.n	d73ae <_ZN9TimeClass7isValidEv+0x1c>

bool TimeClass::isValid()
{
    bool rtcstate = HAL_RTC_Time_Is_Valid(nullptr);
    if (rtcstate)
        return rtcstate;
   d73ba:	2001      	movs	r0, #1
   d73bc:	bd10      	pop	{r4, pc}
    if (System.mode() == AUTOMATIC && system_thread_get_state(nullptr) == spark::feature::DISABLED)
    {
        waitUntil(Particle.syncTimeDone);
        return HAL_RTC_Time_Is_Valid(nullptr);
    }
    return rtcstate;
   d73be:	2000      	movs	r0, #0
   d73c0:	bd10      	pop	{r4, pc}
    bool rtcstate = HAL_RTC_Time_Is_Valid(nullptr);
    if (rtcstate)
        return rtcstate;
    if (System.mode() == AUTOMATIC && system_thread_get_state(nullptr) == spark::feature::DISABLED)
    {
        waitUntil(Particle.syncTimeDone);
   d73c2:	f7ff ffd9 	bl	d7378 <_ZN10CloudClass12syncTimeDoneEv.isra.1>
        return HAL_RTC_Time_Is_Valid(nullptr);
   d73c6:	2000      	movs	r0, #0
   d73c8:	f7fe fccc 	bl	d5d64 <HAL_RTC_Time_Is_Valid>
   d73cc:	3000      	adds	r0, #0
   d73ce:	bf18      	it	ne
   d73d0:	2001      	movne	r0, #1
    }
    return rtcstate;
}
   d73d2:	bd10      	pop	{r4, pc}

000d73d4 <_ZN9TimeClass3nowEv>:
	return calendar_time_cache.tm_year;
}

/* return the current time as seconds since Jan 1 1970 */
time_t TimeClass::now()
{
   d73d4:	b508      	push	{r3, lr}
    (void)isValid();
   d73d6:	f7ff ffdc 	bl	d7392 <_ZN9TimeClass7isValidEv>
	return HAL_RTC_Get_UnixTime();
}
   d73da:	e8bd 4008 	ldmia.w	sp!, {r3, lr}

/* return the current time as seconds since Jan 1 1970 */
time_t TimeClass::now()
{
    (void)isValid();
	return HAL_RTC_Get_UnixTime();
   d73de:	f7fe bcb9 	b.w	d5d54 <HAL_RTC_Get_UnixTime>
	...

000d73e4 <_ZN9TimeClass4hourEv>:

const char* TimeClass::format_spec = TIME_FORMAT_DEFAULT;

/* current hour */
int TimeClass::hour()
{
   d73e4:	b508      	push	{r3, lr}
	return hour(now());
   d73e6:	f7ff fff5 	bl	d73d4 <_ZN9TimeClass3nowEv>
}

/* the hour for the given time */
int TimeClass::hour(time_t t)
{
	Refresh_UnixTime_Cache(t);
   d73ea:	f7ff ff93 	bl	d7314 <_ZL22Refresh_UnixTime_Cachel>

/* current hour */
int TimeClass::hour()
{
	return hour(now());
}
   d73ee:	4b01      	ldr	r3, [pc, #4]	; (d73f4 <_ZN9TimeClass4hourEv+0x10>)
   d73f0:	6898      	ldr	r0, [r3, #8]
   d73f2:	bd08      	pop	{r3, pc}
   d73f4:	2003e588 	.word	0x2003e588

000d73f8 <_ZN9TimeClass6minuteEv>:
	return (hour(t) >= 12);
}

/* current minute */
int TimeClass::minute()
{
   d73f8:	b508      	push	{r3, lr}
	return minute(now());
   d73fa:	f7ff ffeb 	bl	d73d4 <_ZN9TimeClass3nowEv>
}

/* the minute for the given time */
int TimeClass::minute(time_t t)
{
	Refresh_UnixTime_Cache(t);
   d73fe:	f7ff ff89 	bl	d7314 <_ZL22Refresh_UnixTime_Cachel>

/* current minute */
int TimeClass::minute()
{
	return minute(now());
}
   d7402:	4b01      	ldr	r3, [pc, #4]	; (d7408 <_ZN9TimeClass6minuteEv+0x10>)
   d7404:	6858      	ldr	r0, [r3, #4]
   d7406:	bd08      	pop	{r3, pc}
   d7408:	2003e588 	.word	0x2003e588

000d740c <_ZN9TimeClass3dayEv>:
	return calendar_time_cache.tm_sec;
}

/* current day */
int TimeClass::day()
{
   d740c:	b508      	push	{r3, lr}
	return day(now());
   d740e:	f7ff ffe1 	bl	d73d4 <_ZN9TimeClass3nowEv>
}

/* the day for the given time */
int TimeClass::day(time_t t)
{
	Refresh_UnixTime_Cache(t);
   d7412:	f7ff ff7f 	bl	d7314 <_ZL22Refresh_UnixTime_Cachel>

/* current day */
int TimeClass::day()
{
	return day(now());
}
   d7416:	4b01      	ldr	r3, [pc, #4]	; (d741c <_ZN9TimeClass3dayEv+0x10>)
   d7418:	68d8      	ldr	r0, [r3, #12]
   d741a:	bd08      	pop	{r3, pc}
   d741c:	2003e588 	.word	0x2003e588

000d7420 <_GLOBAL__sub_I_TIME_FORMAT_DEFAULT>:
            calendar_time_cache = Convert_UnixTime_To_CalendarTime(unix_time);
            unix_time_cache = unix_time;
    }
}

const char* TimeClass::format_spec = TIME_FORMAT_DEFAULT;
   d7420:	4b02      	ldr	r3, [pc, #8]	; (d742c <_GLOBAL__sub_I_TIME_FORMAT_DEFAULT+0xc>)
   d7422:	681a      	ldr	r2, [r3, #0]
   d7424:	4b02      	ldr	r3, [pc, #8]	; (d7430 <_GLOBAL__sub_I_TIME_FORMAT_DEFAULT+0x10>)
   d7426:	601a      	str	r2, [r3, #0]
   d7428:	4770      	bx	lr
   d742a:	bf00      	nop
   d742c:	2003e03c 	.word	0x2003e03c
   d7430:	2003e5ac 	.word	0x2003e5ac

000d7434 <_ZN11USARTSerialD1Ev>:
private:
  HAL_USART_Serial _serial;
  bool _blocking;
public:
  USARTSerial(HAL_USART_Serial serial, Ring_Buffer *rx_buffer, Ring_Buffer *tx_buffer);
  virtual ~USARTSerial() {};
   d7434:	4770      	bx	lr

000d7436 <_ZN11USARTSerial14blockOnOverrunEb>:
    HAL_USART_Half_Duplex(_serial, Enable);
}

void USARTSerial::blockOnOverrun(bool block)
{
  _blocking = block;
   d7436:	7441      	strb	r1, [r0, #17]
   d7438:	4770      	bx	lr

000d743a <_ZN11USARTSerial17availableForWriteEv>:
}


int USARTSerial::availableForWrite(void)
{
   d743a:	b508      	push	{r3, lr}
  return std::max(0, (int)HAL_USART_Available_Data_For_Write(_serial));
   d743c:	7c00      	ldrb	r0, [r0, #16]
   d743e:	f7fe fdc1 	bl	d5fc4 <HAL_USART_Available_Data_For_Write>
}
   d7442:	ea20 70e0 	bic.w	r0, r0, r0, asr #31
   d7446:	bd08      	pop	{r3, pc}

000d7448 <_ZN11USARTSerial9availableEv>:

int USARTSerial::available(void)
{
   d7448:	b508      	push	{r3, lr}
  return std::max(0, (int)HAL_USART_Available_Data(_serial));
   d744a:	7c00      	ldrb	r0, [r0, #16]
   d744c:	f7fe fd92 	bl	d5f74 <HAL_USART_Available_Data>
}
   d7450:	ea20 70e0 	bic.w	r0, r0, r0, asr #31
   d7454:	bd08      	pop	{r3, pc}

000d7456 <_ZN11USARTSerial4peekEv>:

int USARTSerial::peek(void)
{
   d7456:	b508      	push	{r3, lr}
  return std::max(-1, (int)HAL_USART_Peek_Data(_serial));
   d7458:	7c00      	ldrb	r0, [r0, #16]
   d745a:	f7fe fd9b 	bl	d5f94 <HAL_USART_Peek_Data>
}
   d745e:	ea30 0020 	bics.w	r0, r0, r0, asr #32
   d7462:	bf28      	it	cs
   d7464:	f04f 30ff 	movcs.w	r0, #4294967295	; 0xffffffff
   d7468:	bd08      	pop	{r3, pc}

000d746a <_ZN11USARTSerial4readEv>:

int USARTSerial::read(void)
{
   d746a:	b508      	push	{r3, lr}
  return std::max(-1, (int)HAL_USART_Read_Data(_serial));
   d746c:	7c00      	ldrb	r0, [r0, #16]
   d746e:	f7fe fd89 	bl	d5f84 <HAL_USART_Read_Data>
}
   d7472:	ea30 0020 	bics.w	r0, r0, r0, asr #32
   d7476:	bf28      	it	cs
   d7478:	f04f 30ff 	movcs.w	r0, #4294967295	; 0xffffffff
   d747c:	bd08      	pop	{r3, pc}

000d747e <_ZN11USARTSerial5flushEv>:

void USARTSerial::flush()
{
  HAL_USART_Flush_Data(_serial);
   d747e:	7c00      	ldrb	r0, [r0, #16]
   d7480:	f7fe bd90 	b.w	d5fa4 <HAL_USART_Flush_Data>

000d7484 <_ZN11USARTSerialD0Ev>:
   d7484:	b510      	push	{r4, lr}
   d7486:	2114      	movs	r1, #20
   d7488:	4604      	mov	r4, r0
   d748a:	f000 fa26 	bl	d78da <_ZdlPvj>
   d748e:	4620      	mov	r0, r4
   d7490:	bd10      	pop	{r4, pc}

000d7492 <_ZN11USARTSerial5writeEh>:
}

size_t USARTSerial::write(uint8_t c)
{
   d7492:	b570      	push	{r4, r5, r6, lr}
  // attempt a write if blocking, or for non-blocking if there is room.
  if (_blocking || HAL_USART_Available_Data_For_Write(_serial) > 0) {
   d7494:	7c45      	ldrb	r5, [r0, #17]
{
  HAL_USART_Flush_Data(_serial);
}

size_t USARTSerial::write(uint8_t c)
{
   d7496:	4604      	mov	r4, r0
   d7498:	460e      	mov	r6, r1
  // attempt a write if blocking, or for non-blocking if there is room.
  if (_blocking || HAL_USART_Available_Data_For_Write(_serial) > 0) {
   d749a:	b925      	cbnz	r5, d74a6 <_ZN11USARTSerial5writeEh+0x14>
   d749c:	7c00      	ldrb	r0, [r0, #16]
   d749e:	f7fe fd91 	bl	d5fc4 <HAL_USART_Available_Data_For_Write>
   d74a2:	2800      	cmp	r0, #0
   d74a4:	dd05      	ble.n	d74b2 <_ZN11USARTSerial5writeEh+0x20>
    // the HAL always blocks.
	  return HAL_USART_Write_Data(_serial, c);
   d74a6:	4631      	mov	r1, r6
   d74a8:	7c20      	ldrb	r0, [r4, #16]
  }
  return 0;
}
   d74aa:	e8bd 4070 	ldmia.w	sp!, {r4, r5, r6, lr}
size_t USARTSerial::write(uint8_t c)
{
  // attempt a write if blocking, or for non-blocking if there is room.
  if (_blocking || HAL_USART_Available_Data_For_Write(_serial) > 0) {
    // the HAL always blocks.
	  return HAL_USART_Write_Data(_serial, c);
   d74ae:	f7fe bd59 	b.w	d5f64 <HAL_USART_Write_Data>
  }
  return 0;
}
   d74b2:	4628      	mov	r0, r5
   d74b4:	bd70      	pop	{r4, r5, r6, pc}
	...

000d74b8 <_ZN11USARTSerialC1E16HAL_USART_SerialP11Ring_BufferS2_>:
#include "spark_wiring_constants.h"
#include "module_info.h"

// Constructors ////////////////////////////////////////////////////////////////

USARTSerial::USARTSerial(HAL_USART_Serial serial, Ring_Buffer *rx_buffer, Ring_Buffer *tx_buffer)
   d74b8:	b510      	push	{r4, lr}
   d74ba:	4604      	mov	r4, r0
   d74bc:	4608      	mov	r0, r1
   d74be:	4611      	mov	r1, r2
  protected:
    void setWriteError(int err = 1) { write_error = err; }
    size_t printf_impl(bool newline, const char* format, ...);

  public:
    Print() : write_error(0) {}
   d74c0:	2200      	movs	r2, #0
   d74c2:	6062      	str	r2, [r4, #4]
   d74c4:	f44f 727a 	mov.w	r2, #1000	; 0x3e8
   d74c8:	60a2      	str	r2, [r4, #8]
   d74ca:	4a05      	ldr	r2, [pc, #20]	; (d74e0 <_ZN11USARTSerialC1E16HAL_USART_SerialP11Ring_BufferS2_+0x28>)
   d74cc:	6022      	str	r2, [r4, #0]
{
  _serial = serial;
  // Default is blocking mode
  _blocking = true;
   d74ce:	2201      	movs	r2, #1

// Constructors ////////////////////////////////////////////////////////////////

USARTSerial::USARTSerial(HAL_USART_Serial serial, Ring_Buffer *rx_buffer, Ring_Buffer *tx_buffer)
{
  _serial = serial;
   d74d0:	7420      	strb	r0, [r4, #16]
  // Default is blocking mode
  _blocking = true;
   d74d2:	7462      	strb	r2, [r4, #17]
  HAL_USART_Init(serial, rx_buffer, tx_buffer);
   d74d4:	461a      	mov	r2, r3
   d74d6:	f7fe fd3d 	bl	d5f54 <HAL_USART_Init>
}
   d74da:	4620      	mov	r0, r4
   d74dc:	bd10      	pop	{r4, pc}
   d74de:	bf00      	nop
   d74e0:	000db598 	.word	0x000db598

000d74e4 <_ZN11USARTSerial9isEnabledEv>:
USARTSerial::operator bool() {
  return true;
}

bool USARTSerial::isEnabled() {
  return HAL_USART_Is_Enabled(_serial);
   d74e4:	7c00      	ldrb	r0, [r0, #16]
   d74e6:	f7fe bd65 	b.w	d5fb4 <HAL_USART_Is_Enabled>
	...

000d74ec <_Z22__fetch_global_Serial1v>:
static Ring_Buffer* serial1_rx_buffer = NULL;
static Ring_Buffer* serial1_tx_buffer = NULL;
#endif

USARTSerial& __fetch_global_Serial1()
{
   d74ec:	b538      	push	{r3, r4, r5, lr}
#if ((MODULE_FUNCTION == MOD_FUNC_USER_PART) || (MODULE_FUNCTION == MOD_FUNC_MONO_FIRMWARE))
	static USARTSerial serial1(HAL_USART_SERIAL1, &serial1_rx_buffer, &serial1_tx_buffer);
   d74ee:	4d0c      	ldr	r5, [pc, #48]	; (d7520 <_Z22__fetch_global_Serial1v+0x34>)
   d74f0:	6829      	ldr	r1, [r5, #0]
   d74f2:	f011 0401 	ands.w	r4, r1, #1
   d74f6:	d111      	bne.n	d751c <_Z22__fetch_global_Serial1v+0x30>
   d74f8:	4628      	mov	r0, r5
   d74fa:	f7fc fdd4 	bl	d40a6 <__cxa_guard_acquire>
   d74fe:	b168      	cbz	r0, d751c <_Z22__fetch_global_Serial1v+0x30>
   d7500:	4a08      	ldr	r2, [pc, #32]	; (d7524 <_Z22__fetch_global_Serial1v+0x38>)
   d7502:	4b09      	ldr	r3, [pc, #36]	; (d7528 <_Z22__fetch_global_Serial1v+0x3c>)
   d7504:	4809      	ldr	r0, [pc, #36]	; (d752c <_Z22__fetch_global_Serial1v+0x40>)
   d7506:	4621      	mov	r1, r4
   d7508:	f7ff ffd6 	bl	d74b8 <_ZN11USARTSerialC1E16HAL_USART_SerialP11Ring_BufferS2_>
   d750c:	4628      	mov	r0, r5
   d750e:	f7fc fdcf 	bl	d40b0 <__cxa_guard_release>
   d7512:	4a07      	ldr	r2, [pc, #28]	; (d7530 <_Z22__fetch_global_Serial1v+0x44>)
   d7514:	4907      	ldr	r1, [pc, #28]	; (d7534 <_Z22__fetch_global_Serial1v+0x48>)
   d7516:	4805      	ldr	r0, [pc, #20]	; (d752c <_Z22__fetch_global_Serial1v+0x40>)
   d7518:	f000 f9da 	bl	d78d0 <__aeabi_atexit>
    serial1_tx_buffer = new Ring_Buffer();
  }
  static USARTSerial serial1(HAL_USART_SERIAL1, serial1_rx_buffer, serial1_tx_buffer);
#endif
	return serial1;
}
   d751c:	4803      	ldr	r0, [pc, #12]	; (d752c <_Z22__fetch_global_Serial1v+0x40>)
   d751e:	bd38      	pop	{r3, r4, r5, pc}
   d7520:	2003e654 	.word	0x2003e654
   d7524:	2003e658 	.word	0x2003e658
   d7528:	2003e5d0 	.word	0x2003e5d0
   d752c:	2003e5bc 	.word	0x2003e5bc
   d7530:	2003e130 	.word	0x2003e130
   d7534:	000d7435 	.word	0x000d7435

000d7538 <_ZN9USBSerial14blockOnOverrunEb>:
  HAL_USB_USART_Flush_Data(_serial);
}

void USBSerial::blockOnOverrun(bool block)
{
  _blocking = block;
   d7538:	7441      	strb	r1, [r0, #17]
   d753a:	4770      	bx	lr

000d753c <_ZN9USBSerialD1Ev>:
#include "usb_hal.h"
#include "system_task.h"
#include "spark_wiring_startup.h"
#include "concurrent_hal.h"

class USBSerial : public Stream
   d753c:	4770      	bx	lr

000d753e <_ZN9USBSerial4readEv>:
}


// Read data from buffer
int USBSerial::read()
{
   d753e:	b508      	push	{r3, lr}
	return std::max(-1, (int)HAL_USB_USART_Receive_Data(_serial, false));
   d7540:	2100      	movs	r1, #0
   d7542:	7c00      	ldrb	r0, [r0, #16]
   d7544:	f7fe fd5e 	bl	d6004 <HAL_USB_USART_Receive_Data>
}
   d7548:	ea30 0020 	bics.w	r0, r0, r0, asr #32
   d754c:	bf28      	it	cs
   d754e:	f04f 30ff 	movcs.w	r0, #4294967295	; 0xffffffff
   d7552:	bd08      	pop	{r3, pc}

000d7554 <_ZN9USBSerial4peekEv>:
{
  _blocking = block;
}

int USBSerial::peek()
{
   d7554:	b508      	push	{r3, lr}
	return std::max(-1, (int)HAL_USB_USART_Receive_Data(_serial, true));
   d7556:	2101      	movs	r1, #1
   d7558:	7c00      	ldrb	r0, [r0, #16]
   d755a:	f7fe fd53 	bl	d6004 <HAL_USB_USART_Receive_Data>
}
   d755e:	ea30 0020 	bics.w	r0, r0, r0, asr #32
   d7562:	bf28      	it	cs
   d7564:	f04f 30ff 	movcs.w	r0, #4294967295	; 0xffffffff
   d7568:	bd08      	pop	{r3, pc}

000d756a <_ZN9USBSerial17availableForWriteEv>:
{
	return std::max(-1, (int)HAL_USB_USART_Receive_Data(_serial, false));
}

int USBSerial::availableForWrite()
{
   d756a:	b508      	push	{r3, lr}
  return std::max(0, (int)HAL_USB_USART_Available_Data_For_Write(_serial));
   d756c:	7c00      	ldrb	r0, [r0, #16]
   d756e:	f7fe fd41 	bl	d5ff4 <HAL_USB_USART_Available_Data_For_Write>
}
   d7572:	ea20 70e0 	bic.w	r0, r0, r0, asr #31
   d7576:	bd08      	pop	{r3, pc}

000d7578 <_ZN9USBSerial9availableEv>:

int USBSerial::available()
{
   d7578:	b508      	push	{r3, lr}
	return std::max(0, (int)HAL_USB_USART_Available_Data(_serial));
   d757a:	7c00      	ldrb	r0, [r0, #16]
   d757c:	f7fe fd32 	bl	d5fe4 <HAL_USB_USART_Available_Data>
}
   d7580:	ea20 70e0 	bic.w	r0, r0, r0, asr #31
   d7584:	bd08      	pop	{r3, pc}

000d7586 <_ZN9USBSerial5flushEv>:
  return 0;
}

void USBSerial::flush()
{
  HAL_USB_USART_Flush_Data(_serial);
   d7586:	7c00      	ldrb	r0, [r0, #16]
   d7588:	f7fe bd4c 	b.w	d6024 <HAL_USB_USART_Flush_Data>

000d758c <_ZN9USBSerialD0Ev>:
   d758c:	b510      	push	{r4, lr}
   d758e:	2114      	movs	r1, #20
   d7590:	4604      	mov	r4, r0
   d7592:	f000 f9a2 	bl	d78da <_ZdlPvj>
   d7596:	4620      	mov	r0, r4
   d7598:	bd10      	pop	{r4, pc}

000d759a <_ZN9USBSerial5writeEh>:
{
	return std::max(0, (int)HAL_USB_USART_Available_Data(_serial));
}

size_t USBSerial::write(uint8_t byte)
{
   d759a:	b538      	push	{r3, r4, r5, lr}
   d759c:	4604      	mov	r4, r0
  if (HAL_USB_USART_Available_Data_For_Write(_serial) > 0 || _blocking) {
   d759e:	7c00      	ldrb	r0, [r0, #16]
{
	return std::max(0, (int)HAL_USB_USART_Available_Data(_serial));
}

size_t USBSerial::write(uint8_t byte)
{
   d75a0:	460d      	mov	r5, r1
  if (HAL_USB_USART_Available_Data_For_Write(_serial) > 0 || _blocking) {
   d75a2:	f7fe fd27 	bl	d5ff4 <HAL_USB_USART_Available_Data_For_Write>
   d75a6:	2800      	cmp	r0, #0
   d75a8:	dc01      	bgt.n	d75ae <_ZN9USBSerial5writeEh+0x14>
   d75aa:	7c60      	ldrb	r0, [r4, #17]
   d75ac:	b128      	cbz	r0, d75ba <_ZN9USBSerial5writeEh+0x20>
    return std::max(0, (int)HAL_USB_USART_Send_Data(_serial, byte));
   d75ae:	4629      	mov	r1, r5
   d75b0:	7c20      	ldrb	r0, [r4, #16]
   d75b2:	f7fe fd2f 	bl	d6014 <HAL_USB_USART_Send_Data>
   d75b6:	ea20 70e0 	bic.w	r0, r0, r0, asr #31
  }
  return 0;
}
   d75ba:	bd38      	pop	{r3, r4, r5, pc}

000d75bc <_ZN9USBSerialC1E20HAL_USB_USART_SerialRK20HAL_USB_USART_Config>:

  HAL_USB_USART_Config conf = acquireSerialBuffer();
  HAL_USB_USART_Init(_serial, &conf);
}

USBSerial::USBSerial(HAL_USB_USART_Serial serial, const HAL_USB_USART_Config& conf)
   d75bc:	b510      	push	{r4, lr}
   d75be:	4604      	mov	r4, r0
   d75c0:	2300      	movs	r3, #0
   d75c2:	6063      	str	r3, [r4, #4]
   d75c4:	f44f 737a 	mov.w	r3, #1000	; 0x3e8
   d75c8:	60a3      	str	r3, [r4, #8]
   d75ca:	4b05      	ldr	r3, [pc, #20]	; (d75e0 <_ZN9USBSerialC1E20HAL_USB_USART_SerialRK20HAL_USB_USART_Config+0x24>)
   d75cc:	6023      	str	r3, [r4, #0]
{
  _serial = serial;
  _blocking = true;
   d75ce:	2301      	movs	r3, #1

  HAL_USB_USART_Config conf = acquireSerialBuffer();
  HAL_USB_USART_Init(_serial, &conf);
}

USBSerial::USBSerial(HAL_USB_USART_Serial serial, const HAL_USB_USART_Config& conf)
   d75d0:	4608      	mov	r0, r1
{
  _serial = serial;
   d75d2:	7421      	strb	r1, [r4, #16]
  _blocking = true;
   d75d4:	7463      	strb	r3, [r4, #17]

  HAL_USB_USART_Init(_serial, &conf);
   d75d6:	4611      	mov	r1, r2
   d75d8:	f7fe fcfc 	bl	d5fd4 <HAL_USB_USART_Init>
}
   d75dc:	4620      	mov	r0, r4
   d75de:	bd10      	pop	{r4, pc}
   d75e0:	000db5c8 	.word	0x000db5c8

000d75e4 <_Z19acquireSerialBufferv>:

// Preinstantiate Objects //////////////////////////////////////////////////////
#ifdef SPARK_USB_SERIAL

HAL_USB_USART_Config __attribute__((weak)) acquireSerialBuffer()
{
   d75e4:	b510      	push	{r4, lr}
  HAL_USB_USART_Config conf = {0};
   d75e6:	2214      	movs	r2, #20

// Preinstantiate Objects //////////////////////////////////////////////////////
#ifdef SPARK_USB_SERIAL

HAL_USB_USART_Config __attribute__((weak)) acquireSerialBuffer()
{
   d75e8:	4604      	mov	r4, r0
  HAL_USB_USART_Config conf = {0};
   d75ea:	2100      	movs	r1, #0
   d75ec:	f001 faa7 	bl	d8b3e <memset>
  conf.rx_buffer_size = USB_RX_BUFFER_SIZE;
  conf.tx_buffer_size = USB_TX_BUFFER_SIZE;
#endif

  return conf;
}
   d75f0:	4620      	mov	r0, r4
   d75f2:	bd10      	pop	{r4, pc}

000d75f4 <_Z16_fetch_usbserialv>:

USBSerial& _fetch_usbserial()
{
   d75f4:	b530      	push	{r4, r5, lr}
  HAL_USB_USART_Config conf = acquireSerialBuffer();
	static USBSerial _usbserial(HAL_USB_USART_SERIAL, conf);
   d75f6:	4d0e      	ldr	r5, [pc, #56]	; (d7630 <_Z16_fetch_usbserialv+0x3c>)

  return conf;
}

USBSerial& _fetch_usbserial()
{
   d75f8:	b087      	sub	sp, #28
  HAL_USB_USART_Config conf = acquireSerialBuffer();
   d75fa:	a801      	add	r0, sp, #4
   d75fc:	f7ff fff2 	bl	d75e4 <_Z19acquireSerialBufferv>
	static USBSerial _usbserial(HAL_USB_USART_SERIAL, conf);
   d7600:	6829      	ldr	r1, [r5, #0]
   d7602:	f011 0401 	ands.w	r4, r1, #1
   d7606:	d110      	bne.n	d762a <_Z16_fetch_usbserialv+0x36>
   d7608:	4628      	mov	r0, r5
   d760a:	f7fc fd4c 	bl	d40a6 <__cxa_guard_acquire>
   d760e:	b160      	cbz	r0, d762a <_Z16_fetch_usbserialv+0x36>
   d7610:	aa01      	add	r2, sp, #4
   d7612:	4621      	mov	r1, r4
   d7614:	4807      	ldr	r0, [pc, #28]	; (d7634 <_Z16_fetch_usbserialv+0x40>)
   d7616:	f7ff ffd1 	bl	d75bc <_ZN9USBSerialC1E20HAL_USB_USART_SerialRK20HAL_USB_USART_Config>
   d761a:	4628      	mov	r0, r5
   d761c:	f7fc fd48 	bl	d40b0 <__cxa_guard_release>
   d7620:	4a05      	ldr	r2, [pc, #20]	; (d7638 <_Z16_fetch_usbserialv+0x44>)
   d7622:	4906      	ldr	r1, [pc, #24]	; (d763c <_Z16_fetch_usbserialv+0x48>)
   d7624:	4803      	ldr	r0, [pc, #12]	; (d7634 <_Z16_fetch_usbserialv+0x40>)
   d7626:	f000 f953 	bl	d78d0 <__aeabi_atexit>
	return _usbserial;
}
   d762a:	4802      	ldr	r0, [pc, #8]	; (d7634 <_Z16_fetch_usbserialv+0x40>)
   d762c:	b007      	add	sp, #28
   d762e:	bd30      	pop	{r4, r5, pc}
   d7630:	2003e6dc 	.word	0x2003e6dc
   d7634:	2003e6e0 	.word	0x2003e6e0
   d7638:	2003e130 	.word	0x2003e130
   d763c:	000d753d 	.word	0x000d753d

000d7640 <serialEventRun>:

/**
 * Provides background processing of serial data.
 */
void serialEventRun()
{
   d7640:	b508      	push	{r3, lr}
    if (serialEvent && Serial.available()>0)
   d7642:	4b0c      	ldr	r3, [pc, #48]	; (d7674 <serialEventRun+0x34>)
   d7644:	b133      	cbz	r3, d7654 <serialEventRun+0x14>
   d7646:	f7ff ffd5 	bl	d75f4 <_Z16_fetch_usbserialv>
   d764a:	6803      	ldr	r3, [r0, #0]
   d764c:	691b      	ldr	r3, [r3, #16]
   d764e:	4798      	blx	r3
   d7650:	2800      	cmp	r0, #0
   d7652:	dc09      	bgt.n	d7668 <serialEventRun+0x28>
        serialEvent();

    if (serialEvent1 && Serial1.available()>0)
   d7654:	4b08      	ldr	r3, [pc, #32]	; (d7678 <serialEventRun+0x38>)
   d7656:	b163      	cbz	r3, d7672 <serialEventRun+0x32>
   d7658:	f7ff ff48 	bl	d74ec <_Z22__fetch_global_Serial1v>
   d765c:	6803      	ldr	r3, [r0, #0]
   d765e:	691b      	ldr	r3, [r3, #16]
   d7660:	4798      	blx	r3
   d7662:	2800      	cmp	r0, #0
   d7664:	dc03      	bgt.n	d766e <serialEventRun+0x2e>
   d7666:	bd08      	pop	{r3, pc}
 * Provides background processing of serial data.
 */
void serialEventRun()
{
    if (serialEvent && Serial.available()>0)
        serialEvent();
   d7668:	f3af 8000 	nop.w
   d766c:	e7f2      	b.n	d7654 <serialEventRun+0x14>

    if (serialEvent1 && Serial1.available()>0)
        serialEvent1();
   d766e:	f3af 8000 	nop.w
   d7672:	bd08      	pop	{r3, pc}
	...

000d767c <_post_loop>:
#if Wiring_Serial5
void serialEvent5() __attribute__((weak));
#endif

void _post_loop()
{
   d767c:	b508      	push	{r3, lr}
	serialEventRun();
   d767e:	f7ff ffdf 	bl	d7640 <serialEventRun>
		return !timeout_fn;
	}

	static inline system_tick_t current_time()
	{
		return HAL_Timer_Get_Milli_Seconds();
   d7682:	f7fe fb5f 	bl	d5d44 <HAL_Timer_Get_Milli_Seconds>
	/**
	 * Lifesign that the application is still working normally.
	 */
	static void checkin()
	{
		last_checkin = current_time();
   d7686:	4b01      	ldr	r3, [pc, #4]	; (d768c <_post_loop+0x10>)
   d7688:	6018      	str	r0, [r3, #0]
   d768a:	bd08      	pop	{r3, pc}
   d768c:	2003e6fc 	.word	0x2003e6fc

000d7690 <_Z33system_initialize_user_backup_ramv>:
 * the dynamically linked application module.
 */
void system_initialize_user_backup_ram()
{
    size_t len = &link_global_retained_end-&link_global_retained_start;
    memcpy(&link_global_retained_start, &link_global_retained_initial_values, len);
   d7690:	4802      	ldr	r0, [pc, #8]	; (d769c <_Z33system_initialize_user_backup_ramv+0xc>)
   d7692:	4a03      	ldr	r2, [pc, #12]	; (d76a0 <_Z33system_initialize_user_backup_ramv+0x10>)
   d7694:	4903      	ldr	r1, [pc, #12]	; (d76a4 <_Z33system_initialize_user_backup_ramv+0x14>)
   d7696:	1a12      	subs	r2, r2, r0
   d7698:	f001 ba46 	b.w	d8b28 <memcpy>
   d769c:	2003f400 	.word	0x2003f400
   d76a0:	2003f404 	.word	0x2003f404
   d76a4:	000db998 	.word	0x000db998

000d76a8 <_Z27ctrl_request_custom_handlerP12ctrl_request>:
bool __backup_ram_was_valid() { return false; }

#endif

// Default handler for CTRL_REQUEST_APP_CUSTOM requests
void __attribute((weak)) ctrl_request_custom_handler(ctrl_request* req) {
   d76a8:	b507      	push	{r0, r1, r2, lr}
    system_ctrl_set_result(req, SYSTEM_ERROR_NOT_SUPPORTED, nullptr, nullptr, nullptr);
   d76aa:	2300      	movs	r3, #0
   d76ac:	9300      	str	r3, [sp, #0]
   d76ae:	461a      	mov	r2, r3
   d76b0:	f06f 0177 	mvn.w	r1, #119	; 0x77
   d76b4:	f7fe fd00 	bl	d60b8 <system_ctrl_set_result>
}
   d76b8:	b003      	add	sp, #12
   d76ba:	f85d fb04 	ldr.w	pc, [sp], #4
	...

000d76c0 <_ZL20ctrl_request_handlerP12ctrl_request>:
// Callback invoked to process a logging configuration request
void(*log_process_ctrl_request_callback)(ctrl_request* req) = nullptr;
#endif

// Application handler for control requests
static void ctrl_request_handler(ctrl_request* req) {
   d76c0:	b507      	push	{r0, r1, r2, lr}
    switch (req->type) {
   d76c2:	8843      	ldrh	r3, [r0, #2]
   d76c4:	2b0a      	cmp	r3, #10
   d76c6:	d008      	beq.n	d76da <_ZL20ctrl_request_handlerP12ctrl_request+0x1a>
   d76c8:	2b50      	cmp	r3, #80	; 0x50
   d76ca:	d109      	bne.n	d76e0 <_ZL20ctrl_request_handlerP12ctrl_request+0x20>
#if Wiring_LogConfig
    case CTRL_REQUEST_LOG_CONFIG: {
        if (log_process_ctrl_request_callback) {
   d76cc:	4b09      	ldr	r3, [pc, #36]	; (d76f4 <_ZL20ctrl_request_handlerP12ctrl_request+0x34>)
   d76ce:	681b      	ldr	r3, [r3, #0]
   d76d0:	b13b      	cbz	r3, d76e2 <_ZL20ctrl_request_handlerP12ctrl_request+0x22>
    }
    default:
        system_ctrl_set_result(req, SYSTEM_ERROR_NOT_SUPPORTED, nullptr, nullptr, nullptr);
        break;
    }
}
   d76d2:	b003      	add	sp, #12
   d76d4:	f85d eb04 	ldr.w	lr, [sp], #4
static void ctrl_request_handler(ctrl_request* req) {
    switch (req->type) {
#if Wiring_LogConfig
    case CTRL_REQUEST_LOG_CONFIG: {
        if (log_process_ctrl_request_callback) {
            log_process_ctrl_request_callback(req);
   d76d8:	4718      	bx	r3
        }
        break;
    }
#endif
    case CTRL_REQUEST_APP_CUSTOM: {
        ctrl_request_custom_handler(req);
   d76da:	f7ff ffe5 	bl	d76a8 <_Z27ctrl_request_custom_handlerP12ctrl_request>
        break;
   d76de:	e006      	b.n	d76ee <_ZL20ctrl_request_handlerP12ctrl_request+0x2e>
    }
    default:
        system_ctrl_set_result(req, SYSTEM_ERROR_NOT_SUPPORTED, nullptr, nullptr, nullptr);
   d76e0:	2300      	movs	r3, #0
   d76e2:	9300      	str	r3, [sp, #0]
   d76e4:	461a      	mov	r2, r3
   d76e6:	f06f 0177 	mvn.w	r1, #119	; 0x77
   d76ea:	f7fe fce5 	bl	d60b8 <system_ctrl_set_result>
        break;
    }
}
   d76ee:	b003      	add	sp, #12
   d76f0:	f85d fb04 	ldr.w	pc, [sp], #4
   d76f4:	2003e6f4 	.word	0x2003e6f4

000d76f8 <module_user_init_hook>:

void module_user_init_hook()
{
   d76f8:	b538      	push	{r3, r4, r5, lr}
#if HAL_PLATFORM_BACKUP_RAM
    backup_ram_was_valid_ =  __backup_sram_signature==signature;
   d76fa:	4c10      	ldr	r4, [pc, #64]	; (d773c <module_user_init_hook+0x44>)
   d76fc:	4d10      	ldr	r5, [pc, #64]	; (d7740 <module_user_init_hook+0x48>)
   d76fe:	6823      	ldr	r3, [r4, #0]
   d7700:	42ab      	cmp	r3, r5
   d7702:	4b10      	ldr	r3, [pc, #64]	; (d7744 <module_user_init_hook+0x4c>)
   d7704:	bf0c      	ite	eq
   d7706:	2201      	moveq	r2, #1
   d7708:	2200      	movne	r2, #0
   d770a:	701a      	strb	r2, [r3, #0]
    if (!backup_ram_was_valid_) {
   d770c:	d002      	beq.n	d7714 <module_user_init_hook+0x1c>
        system_initialize_user_backup_ram();
   d770e:	f7ff ffbf 	bl	d7690 <_Z33system_initialize_user_backup_ramv>
        __backup_sram_signature = signature;
   d7712:	6025      	str	r5, [r4, #0]
    }
#endif

#if HAL_PLATFORM_RNG
    // Initialize the default stdlib PRNG using hardware RNG as a seed
    const uint32_t seed = HAL_RNG_GetRandomNumber();
   d7714:	f7fe fb0e 	bl	d5d34 <HAL_RNG_GetRandomNumber>
   d7718:	4604      	mov	r4, r0
    srand(seed);
   d771a:	f001 fa19 	bl	d8b50 <srand>

    // If the user defines random_seed_from_cloud, call it with a seed value
    // generated by a hardware RNG as well.
    if (random_seed_from_cloud) {
   d771e:	4b0a      	ldr	r3, [pc, #40]	; (d7748 <module_user_init_hook+0x50>)
   d7720:	b113      	cbz	r3, d7728 <module_user_init_hook+0x30>
        random_seed_from_cloud(seed);
   d7722:	4620      	mov	r0, r4
   d7724:	f3af 8000 	nop.w
    }
#endif
    // Register the random_seed_from_cloud handler
    spark_set_random_seed_from_cloud_handler(&random_seed_from_cloud, nullptr);
   d7728:	2100      	movs	r1, #0
   d772a:	4807      	ldr	r0, [pc, #28]	; (d7748 <module_user_init_hook+0x50>)
   d772c:	f7fe fd1e 	bl	d616c <spark_set_random_seed_from_cloud_handler>

    // Register application handler for the control requests
    system_ctrl_set_app_request_handler(ctrl_request_handler, nullptr);
   d7730:	2100      	movs	r1, #0
   d7732:	4806      	ldr	r0, [pc, #24]	; (d774c <module_user_init_hook+0x54>)
}
   d7734:	e8bd 4038 	ldmia.w	sp!, {r3, r4, r5, lr}
#endif
    // Register the random_seed_from_cloud handler
    spark_set_random_seed_from_cloud_handler(&random_seed_from_cloud, nullptr);

    // Register application handler for the control requests
    system_ctrl_set_app_request_handler(ctrl_request_handler, nullptr);
   d7738:	f7fe bcb4 	b.w	d60a4 <system_ctrl_set_app_request_handler>
   d773c:	2003f400 	.word	0x2003f400
   d7740:	9a271c1e 	.word	0x9a271c1e
   d7744:	2003e6f8 	.word	0x2003e6f8
   d7748:	00000000 	.word	0x00000000
   d774c:	000d76c1 	.word	0x000d76c1

000d7750 <pinAvailable>:

/*
 * @brief Perform safety check on desired pin to see if it's already
 * being used.  Return 0 if used, otherwise return 1 if available.
 */
bool pinAvailable(uint16_t pin) {
   d7750:	b510      	push	{r4, lr}
   d7752:	4604      	mov	r4, r0

  // SPI safety check
#ifndef SPARK_WIRING_NO_SPI
  if(SPI.isEnabled() == true && (pin == SCK || pin == MOSI || pin == MISO))
   d7754:	f000 f89c 	bl	d7890 <_ZN8particle7globals11instanceSpiEv>
   d7758:	f7ff fd0b 	bl	d7172 <_ZN8SPIClass9isEnabledEv>
   d775c:	b128      	cbz	r0, d776a <pinAvailable+0x1a>
   d775e:	f1a4 030b 	sub.w	r3, r4, #11
   d7762:	2b02      	cmp	r3, #2
   d7764:	d801      	bhi.n	d776a <pinAvailable+0x1a>
  {
    return 0; // 'pin' is used
   d7766:	2000      	movs	r0, #0
   d7768:	bd10      	pop	{r4, pc}
  }
#endif
  // I2C safety check
#ifndef SPARK_WIRING_NO_I2C
  if(Wire.isEnabled() == true && (pin == SCL || pin == SDA))
   d776a:	f000 f86b 	bl	d7844 <_Z19__fetch_global_Wirev>
   d776e:	f7ff f9db 	bl	d6b28 <_ZN7TwoWire9isEnabledEv>
   d7772:	b108      	cbz	r0, d7778 <pinAvailable+0x28>
   d7774:	2c01      	cmp	r4, #1
   d7776:	d9f6      	bls.n	d7766 <pinAvailable+0x16>
    return 0; // 'pin' is used
  }
#endif
#ifndef SPARK_WIRING_NO_USART_SERIAL
  // Serial1 safety check
  if(Serial1.isEnabled() == true && (pin == RX || pin == TX))
   d7778:	f7ff feb8 	bl	d74ec <_Z22__fetch_global_Serial1v>
   d777c:	f7ff feb2 	bl	d74e4 <_ZN11USARTSerial9isEnabledEv>
   d7780:	b118      	cbz	r0, d778a <pinAvailable+0x3a>
   d7782:	f1a4 0309 	sub.w	r3, r4, #9
   d7786:	2b01      	cmp	r3, #1
   d7788:	d9ed      	bls.n	d7766 <pinAvailable+0x16>
  {
    return 0; // 'pin' is used
  }
#endif

  if (pin >= TOTAL_PINS)
   d778a:	2c23      	cmp	r4, #35	; 0x23
   d778c:	bf8c      	ite	hi
   d778e:	2000      	movhi	r0, #0
   d7790:	2001      	movls	r0, #1
    return 0;
  else
    return 1; // 'pin' is available
}
   d7792:	bd10      	pop	{r4, pc}

000d7794 <pinMode>:
 * or INPUT_PULLDOWN
 */
void pinMode(uint16_t pin, PinMode setMode)
{

  if(pin >= TOTAL_PINS || setMode == PIN_MODE_NONE )
   d7794:	2823      	cmp	r0, #35	; 0x23
/*
 * @brief Set the mode of the pin to OUTPUT, INPUT, INPUT_PULLUP,
 * or INPUT_PULLDOWN
 */
void pinMode(uint16_t pin, PinMode setMode)
{
   d7796:	b538      	push	{r3, r4, r5, lr}
   d7798:	4604      	mov	r4, r0
   d779a:	460d      	mov	r5, r1

  if(pin >= TOTAL_PINS || setMode == PIN_MODE_NONE )
   d779c:	d80a      	bhi.n	d77b4 <pinMode+0x20>
   d779e:	29ff      	cmp	r1, #255	; 0xff
   d77a0:	d008      	beq.n	d77b4 <pinMode+0x20>
  {
    return;
  }

  // Safety check
  if( !pinAvailable(pin) ) {
   d77a2:	f7ff ffd5 	bl	d7750 <pinAvailable>
   d77a6:	b128      	cbz	r0, d77b4 <pinMode+0x20>
    return;
  }

  HAL_Pin_Mode(pin, setMode);
   d77a8:	4629      	mov	r1, r5
   d77aa:	4620      	mov	r0, r4
}
   d77ac:	e8bd 4038 	ldmia.w	sp!, {r3, r4, r5, lr}
  // Safety check
  if( !pinAvailable(pin) ) {
    return;
  }

  HAL_Pin_Mode(pin, setMode);
   d77b0:	f7fe baf0 	b.w	d5d94 <HAL_Pin_Mode>
   d77b4:	bd38      	pop	{r3, r4, r5, pc}

000d77b6 <digitalWrite>:

/*
 * @brief Sets a GPIO pin to HIGH or LOW.
 */
void digitalWrite(pin_t pin, uint8_t value)
{
   d77b6:	b538      	push	{r3, r4, r5, lr}
   d77b8:	4604      	mov	r4, r0
   d77ba:	460d      	mov	r5, r1
    PinMode mode = HAL_Get_Pin_Mode(pin);
   d77bc:	f7fe faf2 	bl	d5da4 <HAL_Get_Pin_Mode>
    if (mode==PIN_MODE_NONE || is_input_mode(mode))
   d77c0:	28ff      	cmp	r0, #255	; 0xff
   d77c2:	d010      	beq.n	d77e6 <digitalWrite+0x30>
}

inline bool is_input_mode(PinMode mode) {
    return  mode == INPUT ||
            mode == INPUT_PULLUP ||
            mode == INPUT_PULLDOWN ||
   d77c4:	2806      	cmp	r0, #6
   d77c6:	d804      	bhi.n	d77d2 <digitalWrite+0x1c>
   d77c8:	234d      	movs	r3, #77	; 0x4d
   d77ca:	fa23 f000 	lsr.w	r0, r3, r0
   d77ce:	07c3      	lsls	r3, r0, #31
   d77d0:	d409      	bmi.n	d77e6 <digitalWrite+0x30>
{
    PinMode mode = HAL_Get_Pin_Mode(pin);
    if (mode==PIN_MODE_NONE || is_input_mode(mode))
        return;
  // Safety check
  if( !pinAvailable(pin) ) {
   d77d2:	4620      	mov	r0, r4
   d77d4:	f7ff ffbc 	bl	d7750 <pinAvailable>
   d77d8:	b128      	cbz	r0, d77e6 <digitalWrite+0x30>
    return;
  }

  HAL_GPIO_Write(pin, value);
   d77da:	4629      	mov	r1, r5
   d77dc:	4620      	mov	r0, r4
}
   d77de:	e8bd 4038 	ldmia.w	sp!, {r3, r4, r5, lr}
  // Safety check
  if( !pinAvailable(pin) ) {
    return;
  }

  HAL_GPIO_Write(pin, value);
   d77e2:	f7fe bae7 	b.w	d5db4 <HAL_GPIO_Write>
   d77e6:	bd38      	pop	{r3, r4, r5, pc}

000d77e8 <digitalRead>:

/*
 * @brief Reads the value of a GPIO pin. Should return either 1 (HIGH) or 0 (LOW).
 */
int32_t digitalRead(pin_t pin)
{
   d77e8:	b510      	push	{r4, lr}
   d77ea:	4604      	mov	r4, r0
    PinMode mode = HAL_Get_Pin_Mode(pin);
   d77ec:	f7fe fada 	bl	d5da4 <HAL_Get_Pin_Mode>
    if (is_af_output_mode(mode))
   d77f0:	3804      	subs	r0, #4
   d77f2:	b2c0      	uxtb	r0, r0
   d77f4:	2801      	cmp	r0, #1
   d77f6:	d908      	bls.n	d780a <digitalRead+0x22>
        return LOW;

    // Safety check
    if( !pinAvailable(pin) ) {
   d77f8:	4620      	mov	r0, r4
   d77fa:	f7ff ffa9 	bl	d7750 <pinAvailable>
   d77fe:	b120      	cbz	r0, d780a <digitalRead+0x22>
      return LOW;
    }

    return HAL_GPIO_Read(pin);
   d7800:	4620      	mov	r0, r4
}
   d7802:	e8bd 4010 	ldmia.w	sp!, {r4, lr}
    // Safety check
    if( !pinAvailable(pin) ) {
      return LOW;
    }

    return HAL_GPIO_Read(pin);
   d7806:	f7fe badd 	b.w	d5dc4 <HAL_GPIO_Read>
}
   d780a:	2000      	movs	r0, #0
   d780c:	bd10      	pop	{r4, pc}
	...

000d7810 <_Z17acquireWireBufferv>:
   d7810:	b570      	push	{r4, r5, r6, lr}
   d7812:	4604      	mov	r4, r0
   d7814:	2514      	movs	r5, #20
   d7816:	462a      	mov	r2, r5
   d7818:	4e09      	ldr	r6, [pc, #36]	; (d7840 <_Z17acquireWireBufferv+0x30>)
   d781a:	2100      	movs	r1, #0
   d781c:	f001 f98f 	bl	d8b3e <memset>
   d7820:	8025      	strh	r5, [r4, #0]
   d7822:	2520      	movs	r5, #32
   d7824:	4631      	mov	r1, r6
   d7826:	60a5      	str	r5, [r4, #8]
   d7828:	6125      	str	r5, [r4, #16]
   d782a:	4628      	mov	r0, r5
   d782c:	f000 f86f 	bl	d790e <_ZnajRKSt9nothrow_t>
   d7830:	4631      	mov	r1, r6
   d7832:	6060      	str	r0, [r4, #4]
   d7834:	4628      	mov	r0, r5
   d7836:	f000 f86a 	bl	d790e <_ZnajRKSt9nothrow_t>
   d783a:	60e0      	str	r0, [r4, #12]
   d783c:	4620      	mov	r0, r4
   d783e:	bd70      	pop	{r4, r5, r6, pc}
   d7840:	000db5f0 	.word	0x000db5f0

000d7844 <_Z19__fetch_global_Wirev>:
	return defaultWireConfig();
}
#endif

TwoWire& __fetch_global_Wire()
{
   d7844:	b530      	push	{r4, r5, lr}
	static TwoWire wire(HAL_I2C_INTERFACE1, acquireWireBuffer());
   d7846:	4d0e      	ldr	r5, [pc, #56]	; (d7880 <_Z19__fetch_global_Wirev+0x3c>)
   d7848:	6829      	ldr	r1, [r5, #0]
   d784a:	f011 0401 	ands.w	r4, r1, #1
	return defaultWireConfig();
}
#endif

TwoWire& __fetch_global_Wire()
{
   d784e:	b087      	sub	sp, #28
	static TwoWire wire(HAL_I2C_INTERFACE1, acquireWireBuffer());
   d7850:	d113      	bne.n	d787a <_Z19__fetch_global_Wirev+0x36>
   d7852:	4628      	mov	r0, r5
   d7854:	f7fc fc27 	bl	d40a6 <__cxa_guard_acquire>
   d7858:	b178      	cbz	r0, d787a <_Z19__fetch_global_Wirev+0x36>
   d785a:	a801      	add	r0, sp, #4
   d785c:	f7ff ffd8 	bl	d7810 <_Z17acquireWireBufferv>
   d7860:	aa01      	add	r2, sp, #4
   d7862:	4621      	mov	r1, r4
   d7864:	4807      	ldr	r0, [pc, #28]	; (d7884 <_Z19__fetch_global_Wirev+0x40>)
   d7866:	f7ff f90b 	bl	d6a80 <_ZN7TwoWireC1E17HAL_I2C_InterfaceRK14HAL_I2C_Config>
   d786a:	4628      	mov	r0, r5
   d786c:	f7fc fc20 	bl	d40b0 <__cxa_guard_release>
   d7870:	4a05      	ldr	r2, [pc, #20]	; (d7888 <_Z19__fetch_global_Wirev+0x44>)
   d7872:	4906      	ldr	r1, [pc, #24]	; (d788c <_Z19__fetch_global_Wirev+0x48>)
   d7874:	4803      	ldr	r0, [pc, #12]	; (d7884 <_Z19__fetch_global_Wirev+0x40>)
   d7876:	f000 f82b 	bl	d78d0 <__aeabi_atexit>
	return wire;
}
   d787a:	4802      	ldr	r0, [pc, #8]	; (d7884 <_Z19__fetch_global_Wirev+0x40>)
   d787c:	b007      	add	sp, #28
   d787e:	bd30      	pop	{r4, r5, pc}
   d7880:	2003e700 	.word	0x2003e700
   d7884:	2003e704 	.word	0x2003e704
   d7888:	2003e130 	.word	0x2003e130
   d788c:	000d6a29 	.word	0x000d6a29

000d7890 <_ZN8particle7globals11instanceSpiEv>:
#ifndef SPARK_WIRING_NO_SPI

namespace particle {
namespace globals {

SPIClass& instanceSpi() {
   d7890:	b538      	push	{r3, r4, r5, lr}
    static SPIClass instance(HAL_SPI_INTERFACE1);
   d7892:	4d0b      	ldr	r5, [pc, #44]	; (d78c0 <_ZN8particle7globals11instanceSpiEv+0x30>)
   d7894:	6829      	ldr	r1, [r5, #0]
   d7896:	f011 0401 	ands.w	r4, r1, #1
   d789a:	d10f      	bne.n	d78bc <_ZN8particle7globals11instanceSpiEv+0x2c>
   d789c:	4628      	mov	r0, r5
   d789e:	f7fc fc02 	bl	d40a6 <__cxa_guard_acquire>
   d78a2:	b158      	cbz	r0, d78bc <_ZN8particle7globals11instanceSpiEv+0x2c>
   d78a4:	4621      	mov	r1, r4
   d78a6:	4807      	ldr	r0, [pc, #28]	; (d78c4 <_ZN8particle7globals11instanceSpiEv+0x34>)
   d78a8:	f7ff fba0 	bl	d6fec <_ZN8SPIClassC1E17HAL_SPI_Interface>
   d78ac:	4628      	mov	r0, r5
   d78ae:	f7fc fbff 	bl	d40b0 <__cxa_guard_release>
   d78b2:	4a05      	ldr	r2, [pc, #20]	; (d78c8 <_ZN8particle7globals11instanceSpiEv+0x38>)
   d78b4:	4905      	ldr	r1, [pc, #20]	; (d78cc <_ZN8particle7globals11instanceSpiEv+0x3c>)
   d78b6:	4803      	ldr	r0, [pc, #12]	; (d78c4 <_ZN8particle7globals11instanceSpiEv+0x34>)
   d78b8:	f000 f80a 	bl	d78d0 <__aeabi_atexit>
    return instance;
}
   d78bc:	4801      	ldr	r0, [pc, #4]	; (d78c4 <_ZN8particle7globals11instanceSpiEv+0x34>)
   d78be:	bd38      	pop	{r3, r4, r5, pc}
   d78c0:	2003e724 	.word	0x2003e724
   d78c4:	2003e718 	.word	0x2003e718
   d78c8:	2003e130 	.word	0x2003e130
   d78cc:	000d6fd1 	.word	0x000d6fd1

000d78d0 <__aeabi_atexit>:
   d78d0:	460b      	mov	r3, r1
   d78d2:	4601      	mov	r1, r0
   d78d4:	4618      	mov	r0, r3
   d78d6:	f001 b81d 	b.w	d8914 <__cxa_atexit>

000d78da <_ZdlPvj>:
   d78da:	f7fc bbe0 	b.w	d409e <_ZdlPv>
	...

000d78e0 <_ZSt15get_new_handlerv>:
   d78e0:	4b02      	ldr	r3, [pc, #8]	; (d78ec <_ZSt15get_new_handlerv+0xc>)
   d78e2:	6818      	ldr	r0, [r3, #0]
   d78e4:	f3bf 8f5f 	dmb	sy
   d78e8:	4770      	bx	lr
   d78ea:	bf00      	nop
   d78ec:	2003e728 	.word	0x2003e728

000d78f0 <_ZnwjRKSt9nothrow_t>:
   d78f0:	b510      	push	{r4, lr}
   d78f2:	2800      	cmp	r0, #0
   d78f4:	bf14      	ite	ne
   d78f6:	4604      	movne	r4, r0
   d78f8:	2401      	moveq	r4, #1
   d78fa:	4620      	mov	r0, r4
   d78fc:	f7fe fc8e 	bl	d621c <malloc>
   d7900:	b920      	cbnz	r0, d790c <_ZnwjRKSt9nothrow_t+0x1c>
   d7902:	f7ff ffed 	bl	d78e0 <_ZSt15get_new_handlerv>
   d7906:	b108      	cbz	r0, d790c <_ZnwjRKSt9nothrow_t+0x1c>
   d7908:	4780      	blx	r0
   d790a:	e7f6      	b.n	d78fa <_ZnwjRKSt9nothrow_t+0xa>
   d790c:	bd10      	pop	{r4, pc}

000d790e <_ZnajRKSt9nothrow_t>:
   d790e:	f7ff bfef 	b.w	d78f0 <_ZnwjRKSt9nothrow_t>

000d7912 <_ZSt25__throw_bad_function_callv>:
   d7912:	b508      	push	{r3, lr}
   d7914:	f7fe fcaa 	bl	d626c <abort>

000d7918 <_GLOBAL__sub_I__ZNSt12ctype_bynameIwEC2ERKSsj>:
   d7918:	4b24      	ldr	r3, [pc, #144]	; (d79ac <_GLOBAL__sub_I__ZNSt12ctype_bynameIwEC2ERKSsj+0x94>)
   d791a:	681a      	ldr	r2, [r3, #0]
   d791c:	07d0      	lsls	r0, r2, #31
   d791e:	bf5c      	itt	pl
   d7920:	2201      	movpl	r2, #1
   d7922:	601a      	strpl	r2, [r3, #0]
   d7924:	4b22      	ldr	r3, [pc, #136]	; (d79b0 <_GLOBAL__sub_I__ZNSt12ctype_bynameIwEC2ERKSsj+0x98>)
   d7926:	681a      	ldr	r2, [r3, #0]
   d7928:	07d1      	lsls	r1, r2, #31
   d792a:	bf5c      	itt	pl
   d792c:	2201      	movpl	r2, #1
   d792e:	601a      	strpl	r2, [r3, #0]
   d7930:	4b20      	ldr	r3, [pc, #128]	; (d79b4 <_GLOBAL__sub_I__ZNSt12ctype_bynameIwEC2ERKSsj+0x9c>)
   d7932:	681a      	ldr	r2, [r3, #0]
   d7934:	07d2      	lsls	r2, r2, #31
   d7936:	bf5c      	itt	pl
   d7938:	2201      	movpl	r2, #1
   d793a:	601a      	strpl	r2, [r3, #0]
   d793c:	4b1e      	ldr	r3, [pc, #120]	; (d79b8 <_GLOBAL__sub_I__ZNSt12ctype_bynameIwEC2ERKSsj+0xa0>)
   d793e:	681a      	ldr	r2, [r3, #0]
   d7940:	07d0      	lsls	r0, r2, #31
   d7942:	bf5c      	itt	pl
   d7944:	2201      	movpl	r2, #1
   d7946:	601a      	strpl	r2, [r3, #0]
   d7948:	4b1c      	ldr	r3, [pc, #112]	; (d79bc <_GLOBAL__sub_I__ZNSt12ctype_bynameIwEC2ERKSsj+0xa4>)
   d794a:	681a      	ldr	r2, [r3, #0]
   d794c:	07d1      	lsls	r1, r2, #31
   d794e:	bf5c      	itt	pl
   d7950:	2201      	movpl	r2, #1
   d7952:	601a      	strpl	r2, [r3, #0]
   d7954:	4b1a      	ldr	r3, [pc, #104]	; (d79c0 <_GLOBAL__sub_I__ZNSt12ctype_bynameIwEC2ERKSsj+0xa8>)
   d7956:	681a      	ldr	r2, [r3, #0]
   d7958:	07d2      	lsls	r2, r2, #31
   d795a:	bf5c      	itt	pl
   d795c:	2201      	movpl	r2, #1
   d795e:	601a      	strpl	r2, [r3, #0]
   d7960:	4b18      	ldr	r3, [pc, #96]	; (d79c4 <_GLOBAL__sub_I__ZNSt12ctype_bynameIwEC2ERKSsj+0xac>)
   d7962:	681a      	ldr	r2, [r3, #0]
   d7964:	07d0      	lsls	r0, r2, #31
   d7966:	bf5c      	itt	pl
   d7968:	2201      	movpl	r2, #1
   d796a:	601a      	strpl	r2, [r3, #0]
   d796c:	4b16      	ldr	r3, [pc, #88]	; (d79c8 <_GLOBAL__sub_I__ZNSt12ctype_bynameIwEC2ERKSsj+0xb0>)
   d796e:	681a      	ldr	r2, [r3, #0]
   d7970:	07d1      	lsls	r1, r2, #31
   d7972:	bf5c      	itt	pl
   d7974:	2201      	movpl	r2, #1
   d7976:	601a      	strpl	r2, [r3, #0]
   d7978:	4b14      	ldr	r3, [pc, #80]	; (d79cc <_GLOBAL__sub_I__ZNSt12ctype_bynameIwEC2ERKSsj+0xb4>)
   d797a:	681a      	ldr	r2, [r3, #0]
   d797c:	07d2      	lsls	r2, r2, #31
   d797e:	bf5c      	itt	pl
   d7980:	2201      	movpl	r2, #1
   d7982:	601a      	strpl	r2, [r3, #0]
   d7984:	4b12      	ldr	r3, [pc, #72]	; (d79d0 <_GLOBAL__sub_I__ZNSt12ctype_bynameIwEC2ERKSsj+0xb8>)
   d7986:	681a      	ldr	r2, [r3, #0]
   d7988:	07d0      	lsls	r0, r2, #31
   d798a:	bf5c      	itt	pl
   d798c:	2201      	movpl	r2, #1
   d798e:	601a      	strpl	r2, [r3, #0]
   d7990:	4b10      	ldr	r3, [pc, #64]	; (d79d4 <_GLOBAL__sub_I__ZNSt12ctype_bynameIwEC2ERKSsj+0xbc>)
   d7992:	681a      	ldr	r2, [r3, #0]
   d7994:	07d1      	lsls	r1, r2, #31
   d7996:	bf5c      	itt	pl
   d7998:	2201      	movpl	r2, #1
   d799a:	601a      	strpl	r2, [r3, #0]
   d799c:	4b0e      	ldr	r3, [pc, #56]	; (d79d8 <_GLOBAL__sub_I__ZNSt12ctype_bynameIwEC2ERKSsj+0xc0>)
   d799e:	681a      	ldr	r2, [r3, #0]
   d79a0:	07d2      	lsls	r2, r2, #31
   d79a2:	bf5c      	itt	pl
   d79a4:	2201      	movpl	r2, #1
   d79a6:	601a      	strpl	r2, [r3, #0]
   d79a8:	4770      	bx	lr
   d79aa:	bf00      	nop
   d79ac:	2003e758 	.word	0x2003e758
   d79b0:	2003e754 	.word	0x2003e754
   d79b4:	2003e750 	.word	0x2003e750
   d79b8:	2003e74c 	.word	0x2003e74c
   d79bc:	2003e748 	.word	0x2003e748
   d79c0:	2003e744 	.word	0x2003e744
   d79c4:	2003e740 	.word	0x2003e740
   d79c8:	2003e73c 	.word	0x2003e73c
   d79cc:	2003e738 	.word	0x2003e738
   d79d0:	2003e734 	.word	0x2003e734
   d79d4:	2003e730 	.word	0x2003e730
   d79d8:	2003e72c 	.word	0x2003e72c

000d79dc <_GLOBAL__sub_I__ZNSt12ctype_bynameIcEC2ERKNSt7__cxx1112basic_stringIcSt11char_traitsIcESaIcEEEj>:
   d79dc:	4b18      	ldr	r3, [pc, #96]	; (d7a40 <_GLOBAL__sub_I__ZNSt12ctype_bynameIcEC2ERKNSt7__cxx1112basic_stringIcSt11char_traitsIcESaIcEEEj+0x64>)
   d79de:	681a      	ldr	r2, [r3, #0]
   d79e0:	07d1      	lsls	r1, r2, #31
   d79e2:	bf5c      	itt	pl
   d79e4:	2201      	movpl	r2, #1
   d79e6:	601a      	strpl	r2, [r3, #0]
   d79e8:	4b16      	ldr	r3, [pc, #88]	; (d7a44 <_GLOBAL__sub_I__ZNSt12ctype_bynameIcEC2ERKNSt7__cxx1112basic_stringIcSt11char_traitsIcESaIcEEEj+0x68>)
   d79ea:	681a      	ldr	r2, [r3, #0]
   d79ec:	07d2      	lsls	r2, r2, #31
   d79ee:	bf5c      	itt	pl
   d79f0:	2201      	movpl	r2, #1
   d79f2:	601a      	strpl	r2, [r3, #0]
   d79f4:	4b14      	ldr	r3, [pc, #80]	; (d7a48 <_GLOBAL__sub_I__ZNSt12ctype_bynameIcEC2ERKNSt7__cxx1112basic_stringIcSt11char_traitsIcESaIcEEEj+0x6c>)
   d79f6:	681a      	ldr	r2, [r3, #0]
   d79f8:	07d0      	lsls	r0, r2, #31
   d79fa:	bf5c      	itt	pl
   d79fc:	2201      	movpl	r2, #1
   d79fe:	601a      	strpl	r2, [r3, #0]
   d7a00:	4b12      	ldr	r3, [pc, #72]	; (d7a4c <_GLOBAL__sub_I__ZNSt12ctype_bynameIcEC2ERKNSt7__cxx1112basic_stringIcSt11char_traitsIcESaIcEEEj+0x70>)
   d7a02:	681a      	ldr	r2, [r3, #0]
   d7a04:	07d1      	lsls	r1, r2, #31
   d7a06:	bf5c      	itt	pl
   d7a08:	2201      	movpl	r2, #1
   d7a0a:	601a      	strpl	r2, [r3, #0]
   d7a0c:	4b10      	ldr	r3, [pc, #64]	; (d7a50 <_GLOBAL__sub_I__ZNSt12ctype_bynameIcEC2ERKNSt7__cxx1112basic_stringIcSt11char_traitsIcESaIcEEEj+0x74>)
   d7a0e:	681a      	ldr	r2, [r3, #0]
   d7a10:	07d2      	lsls	r2, r2, #31
   d7a12:	bf5c      	itt	pl
   d7a14:	2201      	movpl	r2, #1
   d7a16:	601a      	strpl	r2, [r3, #0]
   d7a18:	4b0e      	ldr	r3, [pc, #56]	; (d7a54 <_GLOBAL__sub_I__ZNSt12ctype_bynameIcEC2ERKNSt7__cxx1112basic_stringIcSt11char_traitsIcESaIcEEEj+0x78>)
   d7a1a:	681a      	ldr	r2, [r3, #0]
   d7a1c:	07d0      	lsls	r0, r2, #31
   d7a1e:	bf5c      	itt	pl
   d7a20:	2201      	movpl	r2, #1
   d7a22:	601a      	strpl	r2, [r3, #0]
   d7a24:	4b0c      	ldr	r3, [pc, #48]	; (d7a58 <_GLOBAL__sub_I__ZNSt12ctype_bynameIcEC2ERKNSt7__cxx1112basic_stringIcSt11char_traitsIcESaIcEEEj+0x7c>)
   d7a26:	681a      	ldr	r2, [r3, #0]
   d7a28:	07d1      	lsls	r1, r2, #31
   d7a2a:	bf5c      	itt	pl
   d7a2c:	2201      	movpl	r2, #1
   d7a2e:	601a      	strpl	r2, [r3, #0]
   d7a30:	4b0a      	ldr	r3, [pc, #40]	; (d7a5c <_GLOBAL__sub_I__ZNSt12ctype_bynameIcEC2ERKNSt7__cxx1112basic_stringIcSt11char_traitsIcESaIcEEEj+0x80>)
   d7a32:	681a      	ldr	r2, [r3, #0]
   d7a34:	07d2      	lsls	r2, r2, #31
   d7a36:	bf5c      	itt	pl
   d7a38:	2201      	movpl	r2, #1
   d7a3a:	601a      	strpl	r2, [r3, #0]
   d7a3c:	4770      	bx	lr
   d7a3e:	bf00      	nop
   d7a40:	2003e778 	.word	0x2003e778
   d7a44:	2003e774 	.word	0x2003e774
   d7a48:	2003e770 	.word	0x2003e770
   d7a4c:	2003e76c 	.word	0x2003e76c
   d7a50:	2003e768 	.word	0x2003e768
   d7a54:	2003e764 	.word	0x2003e764
   d7a58:	2003e760 	.word	0x2003e760
   d7a5c:	2003e75c 	.word	0x2003e75c

000d7a60 <_GLOBAL__sub_I__ZNSt12ctype_bynameIwEC2ERKNSt7__cxx1112basic_stringIcSt11char_traitsIcESaIcEEEj>:
   d7a60:	4b18      	ldr	r3, [pc, #96]	; (d7ac4 <_GLOBAL__sub_I__ZNSt12ctype_bynameIwEC2ERKNSt7__cxx1112basic_stringIcSt11char_traitsIcESaIcEEEj+0x64>)
   d7a62:	681a      	ldr	r2, [r3, #0]
   d7a64:	07d1      	lsls	r1, r2, #31
   d7a66:	bf5c      	itt	pl
   d7a68:	2201      	movpl	r2, #1
   d7a6a:	601a      	strpl	r2, [r3, #0]
   d7a6c:	4b16      	ldr	r3, [pc, #88]	; (d7ac8 <_GLOBAL__sub_I__ZNSt12ctype_bynameIwEC2ERKNSt7__cxx1112basic_stringIcSt11char_traitsIcESaIcEEEj+0x68>)
   d7a6e:	681a      	ldr	r2, [r3, #0]
   d7a70:	07d2      	lsls	r2, r2, #31
   d7a72:	bf5c      	itt	pl
   d7a74:	2201      	movpl	r2, #1
   d7a76:	601a      	strpl	r2, [r3, #0]
   d7a78:	4b14      	ldr	r3, [pc, #80]	; (d7acc <_GLOBAL__sub_I__ZNSt12ctype_bynameIwEC2ERKNSt7__cxx1112basic_stringIcSt11char_traitsIcESaIcEEEj+0x6c>)
   d7a7a:	681a      	ldr	r2, [r3, #0]
   d7a7c:	07d0      	lsls	r0, r2, #31
   d7a7e:	bf5c      	itt	pl
   d7a80:	2201      	movpl	r2, #1
   d7a82:	601a      	strpl	r2, [r3, #0]
   d7a84:	4b12      	ldr	r3, [pc, #72]	; (d7ad0 <_GLOBAL__sub_I__ZNSt12ctype_bynameIwEC2ERKNSt7__cxx1112basic_stringIcSt11char_traitsIcESaIcEEEj+0x70>)
   d7a86:	681a      	ldr	r2, [r3, #0]
   d7a88:	07d1      	lsls	r1, r2, #31
   d7a8a:	bf5c      	itt	pl
   d7a8c:	2201      	movpl	r2, #1
   d7a8e:	601a      	strpl	r2, [r3, #0]
   d7a90:	4b10      	ldr	r3, [pc, #64]	; (d7ad4 <_GLOBAL__sub_I__ZNSt12ctype_bynameIwEC2ERKNSt7__cxx1112basic_stringIcSt11char_traitsIcESaIcEEEj+0x74>)
   d7a92:	681a      	ldr	r2, [r3, #0]
   d7a94:	07d2      	lsls	r2, r2, #31
   d7a96:	bf5c      	itt	pl
   d7a98:	2201      	movpl	r2, #1
   d7a9a:	601a      	strpl	r2, [r3, #0]
   d7a9c:	4b0e      	ldr	r3, [pc, #56]	; (d7ad8 <_GLOBAL__sub_I__ZNSt12ctype_bynameIwEC2ERKNSt7__cxx1112basic_stringIcSt11char_traitsIcESaIcEEEj+0x78>)
   d7a9e:	681a      	ldr	r2, [r3, #0]
   d7aa0:	07d0      	lsls	r0, r2, #31
   d7aa2:	bf5c      	itt	pl
   d7aa4:	2201      	movpl	r2, #1
   d7aa6:	601a      	strpl	r2, [r3, #0]
   d7aa8:	4b0c      	ldr	r3, [pc, #48]	; (d7adc <_GLOBAL__sub_I__ZNSt12ctype_bynameIwEC2ERKNSt7__cxx1112basic_stringIcSt11char_traitsIcESaIcEEEj+0x7c>)
   d7aaa:	681a      	ldr	r2, [r3, #0]
   d7aac:	07d1      	lsls	r1, r2, #31
   d7aae:	bf5c      	itt	pl
   d7ab0:	2201      	movpl	r2, #1
   d7ab2:	601a      	strpl	r2, [r3, #0]
   d7ab4:	4b0a      	ldr	r3, [pc, #40]	; (d7ae0 <_GLOBAL__sub_I__ZNSt12ctype_bynameIwEC2ERKNSt7__cxx1112basic_stringIcSt11char_traitsIcESaIcEEEj+0x80>)
   d7ab6:	681a      	ldr	r2, [r3, #0]
   d7ab8:	07d2      	lsls	r2, r2, #31
   d7aba:	bf5c      	itt	pl
   d7abc:	2201      	movpl	r2, #1
   d7abe:	601a      	strpl	r2, [r3, #0]
   d7ac0:	4770      	bx	lr
   d7ac2:	bf00      	nop
   d7ac4:	2003e798 	.word	0x2003e798
   d7ac8:	2003e794 	.word	0x2003e794
   d7acc:	2003e790 	.word	0x2003e790
   d7ad0:	2003e78c 	.word	0x2003e78c
   d7ad4:	2003e788 	.word	0x2003e788
   d7ad8:	2003e784 	.word	0x2003e784
   d7adc:	2003e780 	.word	0x2003e780
   d7ae0:	2003e77c 	.word	0x2003e77c

000d7ae4 <_GLOBAL__sub_I__ZNSt12ctype_bynameIcEC2ERKSsj>:
   d7ae4:	4b24      	ldr	r3, [pc, #144]	; (d7b78 <_GLOBAL__sub_I__ZNSt12ctype_bynameIcEC2ERKSsj+0x94>)
   d7ae6:	681a      	ldr	r2, [r3, #0]
   d7ae8:	07d0      	lsls	r0, r2, #31
   d7aea:	bf5c      	itt	pl
   d7aec:	2201      	movpl	r2, #1
   d7aee:	601a      	strpl	r2, [r3, #0]
   d7af0:	4b22      	ldr	r3, [pc, #136]	; (d7b7c <_GLOBAL__sub_I__ZNSt12ctype_bynameIcEC2ERKSsj+0x98>)
   d7af2:	681a      	ldr	r2, [r3, #0]
   d7af4:	07d1      	lsls	r1, r2, #31
   d7af6:	bf5c      	itt	pl
   d7af8:	2201      	movpl	r2, #1
   d7afa:	601a      	strpl	r2, [r3, #0]
   d7afc:	4b20      	ldr	r3, [pc, #128]	; (d7b80 <_GLOBAL__sub_I__ZNSt12ctype_bynameIcEC2ERKSsj+0x9c>)
   d7afe:	681a      	ldr	r2, [r3, #0]
   d7b00:	07d2      	lsls	r2, r2, #31
   d7b02:	bf5c      	itt	pl
   d7b04:	2201      	movpl	r2, #1
   d7b06:	601a      	strpl	r2, [r3, #0]
   d7b08:	4b1e      	ldr	r3, [pc, #120]	; (d7b84 <_GLOBAL__sub_I__ZNSt12ctype_bynameIcEC2ERKSsj+0xa0>)
   d7b0a:	681a      	ldr	r2, [r3, #0]
   d7b0c:	07d0      	lsls	r0, r2, #31
   d7b0e:	bf5c      	itt	pl
   d7b10:	2201      	movpl	r2, #1
   d7b12:	601a      	strpl	r2, [r3, #0]
   d7b14:	4b1c      	ldr	r3, [pc, #112]	; (d7b88 <_GLOBAL__sub_I__ZNSt12ctype_bynameIcEC2ERKSsj+0xa4>)
   d7b16:	681a      	ldr	r2, [r3, #0]
   d7b18:	07d1      	lsls	r1, r2, #31
   d7b1a:	bf5c      	itt	pl
   d7b1c:	2201      	movpl	r2, #1
   d7b1e:	601a      	strpl	r2, [r3, #0]
   d7b20:	4b1a      	ldr	r3, [pc, #104]	; (d7b8c <_GLOBAL__sub_I__ZNSt12ctype_bynameIcEC2ERKSsj+0xa8>)
   d7b22:	681a      	ldr	r2, [r3, #0]
   d7b24:	07d2      	lsls	r2, r2, #31
   d7b26:	bf5c      	itt	pl
   d7b28:	2201      	movpl	r2, #1
   d7b2a:	601a      	strpl	r2, [r3, #0]
   d7b2c:	4b18      	ldr	r3, [pc, #96]	; (d7b90 <_GLOBAL__sub_I__ZNSt12ctype_bynameIcEC2ERKSsj+0xac>)
   d7b2e:	681a      	ldr	r2, [r3, #0]
   d7b30:	07d0      	lsls	r0, r2, #31
   d7b32:	bf5c      	itt	pl
   d7b34:	2201      	movpl	r2, #1
   d7b36:	601a      	strpl	r2, [r3, #0]
   d7b38:	4b16      	ldr	r3, [pc, #88]	; (d7b94 <_GLOBAL__sub_I__ZNSt12ctype_bynameIcEC2ERKSsj+0xb0>)
   d7b3a:	681a      	ldr	r2, [r3, #0]
   d7b3c:	07d1      	lsls	r1, r2, #31
   d7b3e:	bf5c      	itt	pl
   d7b40:	2201      	movpl	r2, #1
   d7b42:	601a      	strpl	r2, [r3, #0]
   d7b44:	4b14      	ldr	r3, [pc, #80]	; (d7b98 <_GLOBAL__sub_I__ZNSt12ctype_bynameIcEC2ERKSsj+0xb4>)
   d7b46:	681a      	ldr	r2, [r3, #0]
   d7b48:	07d2      	lsls	r2, r2, #31
   d7b4a:	bf5c      	itt	pl
   d7b4c:	2201      	movpl	r2, #1
   d7b4e:	601a      	strpl	r2, [r3, #0]
   d7b50:	4b12      	ldr	r3, [pc, #72]	; (d7b9c <_GLOBAL__sub_I__ZNSt12ctype_bynameIcEC2ERKSsj+0xb8>)
   d7b52:	681a      	ldr	r2, [r3, #0]
   d7b54:	07d0      	lsls	r0, r2, #31
   d7b56:	bf5c      	itt	pl
   d7b58:	2201      	movpl	r2, #1
   d7b5a:	601a      	strpl	r2, [r3, #0]
   d7b5c:	4b10      	ldr	r3, [pc, #64]	; (d7ba0 <_GLOBAL__sub_I__ZNSt12ctype_bynameIcEC2ERKSsj+0xbc>)
   d7b5e:	681a      	ldr	r2, [r3, #0]
   d7b60:	07d1      	lsls	r1, r2, #31
   d7b62:	bf5c      	itt	pl
   d7b64:	2201      	movpl	r2, #1
   d7b66:	601a      	strpl	r2, [r3, #0]
   d7b68:	4b0e      	ldr	r3, [pc, #56]	; (d7ba4 <_GLOBAL__sub_I__ZNSt12ctype_bynameIcEC2ERKSsj+0xc0>)
   d7b6a:	681a      	ldr	r2, [r3, #0]
   d7b6c:	07d2      	lsls	r2, r2, #31
   d7b6e:	bf5c      	itt	pl
   d7b70:	2201      	movpl	r2, #1
   d7b72:	601a      	strpl	r2, [r3, #0]
   d7b74:	4770      	bx	lr
   d7b76:	bf00      	nop
   d7b78:	2003e7c8 	.word	0x2003e7c8
   d7b7c:	2003e7c4 	.word	0x2003e7c4
   d7b80:	2003e7c0 	.word	0x2003e7c0
   d7b84:	2003e7bc 	.word	0x2003e7bc
   d7b88:	2003e7b8 	.word	0x2003e7b8
   d7b8c:	2003e7b4 	.word	0x2003e7b4
   d7b90:	2003e7b0 	.word	0x2003e7b0
   d7b94:	2003e7ac 	.word	0x2003e7ac
   d7b98:	2003e7a8 	.word	0x2003e7a8
   d7b9c:	2003e7a4 	.word	0x2003e7a4
   d7ba0:	2003e7a0 	.word	0x2003e7a0
   d7ba4:	2003e79c 	.word	0x2003e79c

000d7ba8 <__aeabi_drsub>:
   d7ba8:	f081 4100 	eor.w	r1, r1, #2147483648	; 0x80000000
   d7bac:	e002      	b.n	d7bb4 <__adddf3>
   d7bae:	bf00      	nop

000d7bb0 <__aeabi_dsub>:
   d7bb0:	f083 4300 	eor.w	r3, r3, #2147483648	; 0x80000000

000d7bb4 <__adddf3>:
   d7bb4:	b530      	push	{r4, r5, lr}
   d7bb6:	ea4f 0441 	mov.w	r4, r1, lsl #1
   d7bba:	ea4f 0543 	mov.w	r5, r3, lsl #1
   d7bbe:	ea94 0f05 	teq	r4, r5
   d7bc2:	bf08      	it	eq
   d7bc4:	ea90 0f02 	teqeq	r0, r2
   d7bc8:	bf1f      	itttt	ne
   d7bca:	ea54 0c00 	orrsne.w	ip, r4, r0
   d7bce:	ea55 0c02 	orrsne.w	ip, r5, r2
   d7bd2:	ea7f 5c64 	mvnsne.w	ip, r4, asr #21
   d7bd6:	ea7f 5c65 	mvnsne.w	ip, r5, asr #21
   d7bda:	f000 80e2 	beq.w	d7da2 <__adddf3+0x1ee>
   d7bde:	ea4f 5454 	mov.w	r4, r4, lsr #21
   d7be2:	ebd4 5555 	rsbs	r5, r4, r5, lsr #21
   d7be6:	bfb8      	it	lt
   d7be8:	426d      	neglt	r5, r5
   d7bea:	dd0c      	ble.n	d7c06 <__adddf3+0x52>
   d7bec:	442c      	add	r4, r5
   d7bee:	ea80 0202 	eor.w	r2, r0, r2
   d7bf2:	ea81 0303 	eor.w	r3, r1, r3
   d7bf6:	ea82 0000 	eor.w	r0, r2, r0
   d7bfa:	ea83 0101 	eor.w	r1, r3, r1
   d7bfe:	ea80 0202 	eor.w	r2, r0, r2
   d7c02:	ea81 0303 	eor.w	r3, r1, r3
   d7c06:	2d36      	cmp	r5, #54	; 0x36
   d7c08:	bf88      	it	hi
   d7c0a:	bd30      	pophi	{r4, r5, pc}
   d7c0c:	f011 4f00 	tst.w	r1, #2147483648	; 0x80000000
   d7c10:	ea4f 3101 	mov.w	r1, r1, lsl #12
   d7c14:	f44f 1c80 	mov.w	ip, #1048576	; 0x100000
   d7c18:	ea4c 3111 	orr.w	r1, ip, r1, lsr #12
   d7c1c:	d002      	beq.n	d7c24 <__adddf3+0x70>
   d7c1e:	4240      	negs	r0, r0
   d7c20:	eb61 0141 	sbc.w	r1, r1, r1, lsl #1
   d7c24:	f013 4f00 	tst.w	r3, #2147483648	; 0x80000000
   d7c28:	ea4f 3303 	mov.w	r3, r3, lsl #12
   d7c2c:	ea4c 3313 	orr.w	r3, ip, r3, lsr #12
   d7c30:	d002      	beq.n	d7c38 <__adddf3+0x84>
   d7c32:	4252      	negs	r2, r2
   d7c34:	eb63 0343 	sbc.w	r3, r3, r3, lsl #1
   d7c38:	ea94 0f05 	teq	r4, r5
   d7c3c:	f000 80a7 	beq.w	d7d8e <__adddf3+0x1da>
   d7c40:	f1a4 0401 	sub.w	r4, r4, #1
   d7c44:	f1d5 0e20 	rsbs	lr, r5, #32
   d7c48:	db0d      	blt.n	d7c66 <__adddf3+0xb2>
   d7c4a:	fa02 fc0e 	lsl.w	ip, r2, lr
   d7c4e:	fa22 f205 	lsr.w	r2, r2, r5
   d7c52:	1880      	adds	r0, r0, r2
   d7c54:	f141 0100 	adc.w	r1, r1, #0
   d7c58:	fa03 f20e 	lsl.w	r2, r3, lr
   d7c5c:	1880      	adds	r0, r0, r2
   d7c5e:	fa43 f305 	asr.w	r3, r3, r5
   d7c62:	4159      	adcs	r1, r3
   d7c64:	e00e      	b.n	d7c84 <__adddf3+0xd0>
   d7c66:	f1a5 0520 	sub.w	r5, r5, #32
   d7c6a:	f10e 0e20 	add.w	lr, lr, #32
   d7c6e:	2a01      	cmp	r2, #1
   d7c70:	fa03 fc0e 	lsl.w	ip, r3, lr
   d7c74:	bf28      	it	cs
   d7c76:	f04c 0c02 	orrcs.w	ip, ip, #2
   d7c7a:	fa43 f305 	asr.w	r3, r3, r5
   d7c7e:	18c0      	adds	r0, r0, r3
   d7c80:	eb51 71e3 	adcs.w	r1, r1, r3, asr #31
   d7c84:	f001 4500 	and.w	r5, r1, #2147483648	; 0x80000000
   d7c88:	d507      	bpl.n	d7c9a <__adddf3+0xe6>
   d7c8a:	f04f 0e00 	mov.w	lr, #0
   d7c8e:	f1dc 0c00 	rsbs	ip, ip, #0
   d7c92:	eb7e 0000 	sbcs.w	r0, lr, r0
   d7c96:	eb6e 0101 	sbc.w	r1, lr, r1
   d7c9a:	f5b1 1f80 	cmp.w	r1, #1048576	; 0x100000
   d7c9e:	d31b      	bcc.n	d7cd8 <__adddf3+0x124>
   d7ca0:	f5b1 1f00 	cmp.w	r1, #2097152	; 0x200000
   d7ca4:	d30c      	bcc.n	d7cc0 <__adddf3+0x10c>
   d7ca6:	0849      	lsrs	r1, r1, #1
   d7ca8:	ea5f 0030 	movs.w	r0, r0, rrx
   d7cac:	ea4f 0c3c 	mov.w	ip, ip, rrx
   d7cb0:	f104 0401 	add.w	r4, r4, #1
   d7cb4:	ea4f 5244 	mov.w	r2, r4, lsl #21
   d7cb8:	f512 0f80 	cmn.w	r2, #4194304	; 0x400000
   d7cbc:	f080 809a 	bcs.w	d7df4 <__adddf3+0x240>
   d7cc0:	f1bc 4f00 	cmp.w	ip, #2147483648	; 0x80000000
   d7cc4:	bf08      	it	eq
   d7cc6:	ea5f 0c50 	movseq.w	ip, r0, lsr #1
   d7cca:	f150 0000 	adcs.w	r0, r0, #0
   d7cce:	eb41 5104 	adc.w	r1, r1, r4, lsl #20
   d7cd2:	ea41 0105 	orr.w	r1, r1, r5
   d7cd6:	bd30      	pop	{r4, r5, pc}
   d7cd8:	ea5f 0c4c 	movs.w	ip, ip, lsl #1
   d7cdc:	4140      	adcs	r0, r0
   d7cde:	eb41 0101 	adc.w	r1, r1, r1
   d7ce2:	f411 1f80 	tst.w	r1, #1048576	; 0x100000
   d7ce6:	f1a4 0401 	sub.w	r4, r4, #1
   d7cea:	d1e9      	bne.n	d7cc0 <__adddf3+0x10c>
   d7cec:	f091 0f00 	teq	r1, #0
   d7cf0:	bf04      	itt	eq
   d7cf2:	4601      	moveq	r1, r0
   d7cf4:	2000      	moveq	r0, #0
   d7cf6:	fab1 f381 	clz	r3, r1
   d7cfa:	bf08      	it	eq
   d7cfc:	3320      	addeq	r3, #32
   d7cfe:	f1a3 030b 	sub.w	r3, r3, #11
   d7d02:	f1b3 0220 	subs.w	r2, r3, #32
   d7d06:	da0c      	bge.n	d7d22 <__adddf3+0x16e>
   d7d08:	320c      	adds	r2, #12
   d7d0a:	dd08      	ble.n	d7d1e <__adddf3+0x16a>
   d7d0c:	f102 0c14 	add.w	ip, r2, #20
   d7d10:	f1c2 020c 	rsb	r2, r2, #12
   d7d14:	fa01 f00c 	lsl.w	r0, r1, ip
   d7d18:	fa21 f102 	lsr.w	r1, r1, r2
   d7d1c:	e00c      	b.n	d7d38 <__adddf3+0x184>
   d7d1e:	f102 0214 	add.w	r2, r2, #20
   d7d22:	bfd8      	it	le
   d7d24:	f1c2 0c20 	rsble	ip, r2, #32
   d7d28:	fa01 f102 	lsl.w	r1, r1, r2
   d7d2c:	fa20 fc0c 	lsr.w	ip, r0, ip
   d7d30:	bfdc      	itt	le
   d7d32:	ea41 010c 	orrle.w	r1, r1, ip
   d7d36:	4090      	lslle	r0, r2
   d7d38:	1ae4      	subs	r4, r4, r3
   d7d3a:	bfa2      	ittt	ge
   d7d3c:	eb01 5104 	addge.w	r1, r1, r4, lsl #20
   d7d40:	4329      	orrge	r1, r5
   d7d42:	bd30      	popge	{r4, r5, pc}
   d7d44:	ea6f 0404 	mvn.w	r4, r4
   d7d48:	3c1f      	subs	r4, #31
   d7d4a:	da1c      	bge.n	d7d86 <__adddf3+0x1d2>
   d7d4c:	340c      	adds	r4, #12
   d7d4e:	dc0e      	bgt.n	d7d6e <__adddf3+0x1ba>
   d7d50:	f104 0414 	add.w	r4, r4, #20
   d7d54:	f1c4 0220 	rsb	r2, r4, #32
   d7d58:	fa20 f004 	lsr.w	r0, r0, r4
   d7d5c:	fa01 f302 	lsl.w	r3, r1, r2
   d7d60:	ea40 0003 	orr.w	r0, r0, r3
   d7d64:	fa21 f304 	lsr.w	r3, r1, r4
   d7d68:	ea45 0103 	orr.w	r1, r5, r3
   d7d6c:	bd30      	pop	{r4, r5, pc}
   d7d6e:	f1c4 040c 	rsb	r4, r4, #12
   d7d72:	f1c4 0220 	rsb	r2, r4, #32
   d7d76:	fa20 f002 	lsr.w	r0, r0, r2
   d7d7a:	fa01 f304 	lsl.w	r3, r1, r4
   d7d7e:	ea40 0003 	orr.w	r0, r0, r3
   d7d82:	4629      	mov	r1, r5
   d7d84:	bd30      	pop	{r4, r5, pc}
   d7d86:	fa21 f004 	lsr.w	r0, r1, r4
   d7d8a:	4629      	mov	r1, r5
   d7d8c:	bd30      	pop	{r4, r5, pc}
   d7d8e:	f094 0f00 	teq	r4, #0
   d7d92:	f483 1380 	eor.w	r3, r3, #1048576	; 0x100000
   d7d96:	bf06      	itte	eq
   d7d98:	f481 1180 	eoreq.w	r1, r1, #1048576	; 0x100000
   d7d9c:	3401      	addeq	r4, #1
   d7d9e:	3d01      	subne	r5, #1
   d7da0:	e74e      	b.n	d7c40 <__adddf3+0x8c>
   d7da2:	ea7f 5c64 	mvns.w	ip, r4, asr #21
   d7da6:	bf18      	it	ne
   d7da8:	ea7f 5c65 	mvnsne.w	ip, r5, asr #21
   d7dac:	d029      	beq.n	d7e02 <__adddf3+0x24e>
   d7dae:	ea94 0f05 	teq	r4, r5
   d7db2:	bf08      	it	eq
   d7db4:	ea90 0f02 	teqeq	r0, r2
   d7db8:	d005      	beq.n	d7dc6 <__adddf3+0x212>
   d7dba:	ea54 0c00 	orrs.w	ip, r4, r0
   d7dbe:	bf04      	itt	eq
   d7dc0:	4619      	moveq	r1, r3
   d7dc2:	4610      	moveq	r0, r2
   d7dc4:	bd30      	pop	{r4, r5, pc}
   d7dc6:	ea91 0f03 	teq	r1, r3
   d7dca:	bf1e      	ittt	ne
   d7dcc:	2100      	movne	r1, #0
   d7dce:	2000      	movne	r0, #0
   d7dd0:	bd30      	popne	{r4, r5, pc}
   d7dd2:	ea5f 5c54 	movs.w	ip, r4, lsr #21
   d7dd6:	d105      	bne.n	d7de4 <__adddf3+0x230>
   d7dd8:	0040      	lsls	r0, r0, #1
   d7dda:	4149      	adcs	r1, r1
   d7ddc:	bf28      	it	cs
   d7dde:	f041 4100 	orrcs.w	r1, r1, #2147483648	; 0x80000000
   d7de2:	bd30      	pop	{r4, r5, pc}
   d7de4:	f514 0480 	adds.w	r4, r4, #4194304	; 0x400000
   d7de8:	bf3c      	itt	cc
   d7dea:	f501 1180 	addcc.w	r1, r1, #1048576	; 0x100000
   d7dee:	bd30      	popcc	{r4, r5, pc}
   d7df0:	f001 4500 	and.w	r5, r1, #2147483648	; 0x80000000
   d7df4:	f045 41fe 	orr.w	r1, r5, #2130706432	; 0x7f000000
   d7df8:	f441 0170 	orr.w	r1, r1, #15728640	; 0xf00000
   d7dfc:	f04f 0000 	mov.w	r0, #0
   d7e00:	bd30      	pop	{r4, r5, pc}
   d7e02:	ea7f 5c64 	mvns.w	ip, r4, asr #21
   d7e06:	bf1a      	itte	ne
   d7e08:	4619      	movne	r1, r3
   d7e0a:	4610      	movne	r0, r2
   d7e0c:	ea7f 5c65 	mvnseq.w	ip, r5, asr #21
   d7e10:	bf1c      	itt	ne
   d7e12:	460b      	movne	r3, r1
   d7e14:	4602      	movne	r2, r0
   d7e16:	ea50 3401 	orrs.w	r4, r0, r1, lsl #12
   d7e1a:	bf06      	itte	eq
   d7e1c:	ea52 3503 	orrseq.w	r5, r2, r3, lsl #12
   d7e20:	ea91 0f03 	teqeq	r1, r3
   d7e24:	f441 2100 	orrne.w	r1, r1, #524288	; 0x80000
   d7e28:	bd30      	pop	{r4, r5, pc}
   d7e2a:	bf00      	nop

000d7e2c <__aeabi_ui2d>:
   d7e2c:	f090 0f00 	teq	r0, #0
   d7e30:	bf04      	itt	eq
   d7e32:	2100      	moveq	r1, #0
   d7e34:	4770      	bxeq	lr
   d7e36:	b530      	push	{r4, r5, lr}
   d7e38:	f44f 6480 	mov.w	r4, #1024	; 0x400
   d7e3c:	f104 0432 	add.w	r4, r4, #50	; 0x32
   d7e40:	f04f 0500 	mov.w	r5, #0
   d7e44:	f04f 0100 	mov.w	r1, #0
   d7e48:	e750      	b.n	d7cec <__adddf3+0x138>
   d7e4a:	bf00      	nop

000d7e4c <__aeabi_i2d>:
   d7e4c:	f090 0f00 	teq	r0, #0
   d7e50:	bf04      	itt	eq
   d7e52:	2100      	moveq	r1, #0
   d7e54:	4770      	bxeq	lr
   d7e56:	b530      	push	{r4, r5, lr}
   d7e58:	f44f 6480 	mov.w	r4, #1024	; 0x400
   d7e5c:	f104 0432 	add.w	r4, r4, #50	; 0x32
   d7e60:	f010 4500 	ands.w	r5, r0, #2147483648	; 0x80000000
   d7e64:	bf48      	it	mi
   d7e66:	4240      	negmi	r0, r0
   d7e68:	f04f 0100 	mov.w	r1, #0
   d7e6c:	e73e      	b.n	d7cec <__adddf3+0x138>
   d7e6e:	bf00      	nop

000d7e70 <__aeabi_f2d>:
   d7e70:	0042      	lsls	r2, r0, #1
   d7e72:	ea4f 01e2 	mov.w	r1, r2, asr #3
   d7e76:	ea4f 0131 	mov.w	r1, r1, rrx
   d7e7a:	ea4f 7002 	mov.w	r0, r2, lsl #28
   d7e7e:	bf1f      	itttt	ne
   d7e80:	f012 437f 	andsne.w	r3, r2, #4278190080	; 0xff000000
   d7e84:	f093 4f7f 	teqne	r3, #4278190080	; 0xff000000
   d7e88:	f081 5160 	eorne.w	r1, r1, #939524096	; 0x38000000
   d7e8c:	4770      	bxne	lr
   d7e8e:	f092 0f00 	teq	r2, #0
   d7e92:	bf14      	ite	ne
   d7e94:	f093 4f7f 	teqne	r3, #4278190080	; 0xff000000
   d7e98:	4770      	bxeq	lr
   d7e9a:	b530      	push	{r4, r5, lr}
   d7e9c:	f44f 7460 	mov.w	r4, #896	; 0x380
   d7ea0:	f001 4500 	and.w	r5, r1, #2147483648	; 0x80000000
   d7ea4:	f021 4100 	bic.w	r1, r1, #2147483648	; 0x80000000
   d7ea8:	e720      	b.n	d7cec <__adddf3+0x138>
   d7eaa:	bf00      	nop

000d7eac <__aeabi_ul2d>:
   d7eac:	ea50 0201 	orrs.w	r2, r0, r1
   d7eb0:	bf08      	it	eq
   d7eb2:	4770      	bxeq	lr
   d7eb4:	b530      	push	{r4, r5, lr}
   d7eb6:	f04f 0500 	mov.w	r5, #0
   d7eba:	e00a      	b.n	d7ed2 <__aeabi_l2d+0x16>

000d7ebc <__aeabi_l2d>:
   d7ebc:	ea50 0201 	orrs.w	r2, r0, r1
   d7ec0:	bf08      	it	eq
   d7ec2:	4770      	bxeq	lr
   d7ec4:	b530      	push	{r4, r5, lr}
   d7ec6:	f011 4500 	ands.w	r5, r1, #2147483648	; 0x80000000
   d7eca:	d502      	bpl.n	d7ed2 <__aeabi_l2d+0x16>
   d7ecc:	4240      	negs	r0, r0
   d7ece:	eb61 0141 	sbc.w	r1, r1, r1, lsl #1
   d7ed2:	f44f 6480 	mov.w	r4, #1024	; 0x400
   d7ed6:	f104 0432 	add.w	r4, r4, #50	; 0x32
   d7eda:	ea5f 5c91 	movs.w	ip, r1, lsr #22
   d7ede:	f43f aedc 	beq.w	d7c9a <__adddf3+0xe6>
   d7ee2:	f04f 0203 	mov.w	r2, #3
   d7ee6:	ea5f 0cdc 	movs.w	ip, ip, lsr #3
   d7eea:	bf18      	it	ne
   d7eec:	3203      	addne	r2, #3
   d7eee:	ea5f 0cdc 	movs.w	ip, ip, lsr #3
   d7ef2:	bf18      	it	ne
   d7ef4:	3203      	addne	r2, #3
   d7ef6:	eb02 02dc 	add.w	r2, r2, ip, lsr #3
   d7efa:	f1c2 0320 	rsb	r3, r2, #32
   d7efe:	fa00 fc03 	lsl.w	ip, r0, r3
   d7f02:	fa20 f002 	lsr.w	r0, r0, r2
   d7f06:	fa01 fe03 	lsl.w	lr, r1, r3
   d7f0a:	ea40 000e 	orr.w	r0, r0, lr
   d7f0e:	fa21 f102 	lsr.w	r1, r1, r2
   d7f12:	4414      	add	r4, r2
   d7f14:	e6c1      	b.n	d7c9a <__adddf3+0xe6>
   d7f16:	bf00      	nop

000d7f18 <__aeabi_dmul>:
   d7f18:	b570      	push	{r4, r5, r6, lr}
   d7f1a:	f04f 0cff 	mov.w	ip, #255	; 0xff
   d7f1e:	f44c 6ce0 	orr.w	ip, ip, #1792	; 0x700
   d7f22:	ea1c 5411 	ands.w	r4, ip, r1, lsr #20
   d7f26:	bf1d      	ittte	ne
   d7f28:	ea1c 5513 	andsne.w	r5, ip, r3, lsr #20
   d7f2c:	ea94 0f0c 	teqne	r4, ip
   d7f30:	ea95 0f0c 	teqne	r5, ip
   d7f34:	f000 f8de 	bleq	d80f4 <__aeabi_dmul+0x1dc>
   d7f38:	442c      	add	r4, r5
   d7f3a:	ea81 0603 	eor.w	r6, r1, r3
   d7f3e:	ea21 514c 	bic.w	r1, r1, ip, lsl #21
   d7f42:	ea23 534c 	bic.w	r3, r3, ip, lsl #21
   d7f46:	ea50 3501 	orrs.w	r5, r0, r1, lsl #12
   d7f4a:	bf18      	it	ne
   d7f4c:	ea52 3503 	orrsne.w	r5, r2, r3, lsl #12
   d7f50:	f441 1180 	orr.w	r1, r1, #1048576	; 0x100000
   d7f54:	f443 1380 	orr.w	r3, r3, #1048576	; 0x100000
   d7f58:	d038      	beq.n	d7fcc <__aeabi_dmul+0xb4>
   d7f5a:	fba0 ce02 	umull	ip, lr, r0, r2
   d7f5e:	f04f 0500 	mov.w	r5, #0
   d7f62:	fbe1 e502 	umlal	lr, r5, r1, r2
   d7f66:	f006 4200 	and.w	r2, r6, #2147483648	; 0x80000000
   d7f6a:	fbe0 e503 	umlal	lr, r5, r0, r3
   d7f6e:	f04f 0600 	mov.w	r6, #0
   d7f72:	fbe1 5603 	umlal	r5, r6, r1, r3
   d7f76:	f09c 0f00 	teq	ip, #0
   d7f7a:	bf18      	it	ne
   d7f7c:	f04e 0e01 	orrne.w	lr, lr, #1
   d7f80:	f1a4 04ff 	sub.w	r4, r4, #255	; 0xff
   d7f84:	f5b6 7f00 	cmp.w	r6, #512	; 0x200
   d7f88:	f564 7440 	sbc.w	r4, r4, #768	; 0x300
   d7f8c:	d204      	bcs.n	d7f98 <__aeabi_dmul+0x80>
   d7f8e:	ea5f 0e4e 	movs.w	lr, lr, lsl #1
   d7f92:	416d      	adcs	r5, r5
   d7f94:	eb46 0606 	adc.w	r6, r6, r6
   d7f98:	ea42 21c6 	orr.w	r1, r2, r6, lsl #11
   d7f9c:	ea41 5155 	orr.w	r1, r1, r5, lsr #21
   d7fa0:	ea4f 20c5 	mov.w	r0, r5, lsl #11
   d7fa4:	ea40 505e 	orr.w	r0, r0, lr, lsr #21
   d7fa8:	ea4f 2ece 	mov.w	lr, lr, lsl #11
   d7fac:	f1b4 0cfd 	subs.w	ip, r4, #253	; 0xfd
   d7fb0:	bf88      	it	hi
   d7fb2:	f5bc 6fe0 	cmphi.w	ip, #1792	; 0x700
   d7fb6:	d81e      	bhi.n	d7ff6 <__aeabi_dmul+0xde>
   d7fb8:	f1be 4f00 	cmp.w	lr, #2147483648	; 0x80000000
   d7fbc:	bf08      	it	eq
   d7fbe:	ea5f 0e50 	movseq.w	lr, r0, lsr #1
   d7fc2:	f150 0000 	adcs.w	r0, r0, #0
   d7fc6:	eb41 5104 	adc.w	r1, r1, r4, lsl #20
   d7fca:	bd70      	pop	{r4, r5, r6, pc}
   d7fcc:	f006 4600 	and.w	r6, r6, #2147483648	; 0x80000000
   d7fd0:	ea46 0101 	orr.w	r1, r6, r1
   d7fd4:	ea40 0002 	orr.w	r0, r0, r2
   d7fd8:	ea81 0103 	eor.w	r1, r1, r3
   d7fdc:	ebb4 045c 	subs.w	r4, r4, ip, lsr #1
   d7fe0:	bfc2      	ittt	gt
   d7fe2:	ebd4 050c 	rsbsgt	r5, r4, ip
   d7fe6:	ea41 5104 	orrgt.w	r1, r1, r4, lsl #20
   d7fea:	bd70      	popgt	{r4, r5, r6, pc}
   d7fec:	f441 1180 	orr.w	r1, r1, #1048576	; 0x100000
   d7ff0:	f04f 0e00 	mov.w	lr, #0
   d7ff4:	3c01      	subs	r4, #1
   d7ff6:	f300 80ab 	bgt.w	d8150 <__aeabi_dmul+0x238>
   d7ffa:	f114 0f36 	cmn.w	r4, #54	; 0x36
   d7ffe:	bfde      	ittt	le
   d8000:	2000      	movle	r0, #0
   d8002:	f001 4100 	andle.w	r1, r1, #2147483648	; 0x80000000
   d8006:	bd70      	pople	{r4, r5, r6, pc}
   d8008:	f1c4 0400 	rsb	r4, r4, #0
   d800c:	3c20      	subs	r4, #32
   d800e:	da35      	bge.n	d807c <__aeabi_dmul+0x164>
   d8010:	340c      	adds	r4, #12
   d8012:	dc1b      	bgt.n	d804c <__aeabi_dmul+0x134>
   d8014:	f104 0414 	add.w	r4, r4, #20
   d8018:	f1c4 0520 	rsb	r5, r4, #32
   d801c:	fa00 f305 	lsl.w	r3, r0, r5
   d8020:	fa20 f004 	lsr.w	r0, r0, r4
   d8024:	fa01 f205 	lsl.w	r2, r1, r5
   d8028:	ea40 0002 	orr.w	r0, r0, r2
   d802c:	f001 4200 	and.w	r2, r1, #2147483648	; 0x80000000
   d8030:	f021 4100 	bic.w	r1, r1, #2147483648	; 0x80000000
   d8034:	eb10 70d3 	adds.w	r0, r0, r3, lsr #31
   d8038:	fa21 f604 	lsr.w	r6, r1, r4
   d803c:	eb42 0106 	adc.w	r1, r2, r6
   d8040:	ea5e 0e43 	orrs.w	lr, lr, r3, lsl #1
   d8044:	bf08      	it	eq
   d8046:	ea20 70d3 	biceq.w	r0, r0, r3, lsr #31
   d804a:	bd70      	pop	{r4, r5, r6, pc}
   d804c:	f1c4 040c 	rsb	r4, r4, #12
   d8050:	f1c4 0520 	rsb	r5, r4, #32
   d8054:	fa00 f304 	lsl.w	r3, r0, r4
   d8058:	fa20 f005 	lsr.w	r0, r0, r5
   d805c:	fa01 f204 	lsl.w	r2, r1, r4
   d8060:	ea40 0002 	orr.w	r0, r0, r2
   d8064:	f001 4100 	and.w	r1, r1, #2147483648	; 0x80000000
   d8068:	eb10 70d3 	adds.w	r0, r0, r3, lsr #31
   d806c:	f141 0100 	adc.w	r1, r1, #0
   d8070:	ea5e 0e43 	orrs.w	lr, lr, r3, lsl #1
   d8074:	bf08      	it	eq
   d8076:	ea20 70d3 	biceq.w	r0, r0, r3, lsr #31
   d807a:	bd70      	pop	{r4, r5, r6, pc}
   d807c:	f1c4 0520 	rsb	r5, r4, #32
   d8080:	fa00 f205 	lsl.w	r2, r0, r5
   d8084:	ea4e 0e02 	orr.w	lr, lr, r2
   d8088:	fa20 f304 	lsr.w	r3, r0, r4
   d808c:	fa01 f205 	lsl.w	r2, r1, r5
   d8090:	ea43 0302 	orr.w	r3, r3, r2
   d8094:	fa21 f004 	lsr.w	r0, r1, r4
   d8098:	f001 4100 	and.w	r1, r1, #2147483648	; 0x80000000
   d809c:	fa21 f204 	lsr.w	r2, r1, r4
   d80a0:	ea20 0002 	bic.w	r0, r0, r2
   d80a4:	eb00 70d3 	add.w	r0, r0, r3, lsr #31
   d80a8:	ea5e 0e43 	orrs.w	lr, lr, r3, lsl #1
   d80ac:	bf08      	it	eq
   d80ae:	ea20 70d3 	biceq.w	r0, r0, r3, lsr #31
   d80b2:	bd70      	pop	{r4, r5, r6, pc}
   d80b4:	f094 0f00 	teq	r4, #0
   d80b8:	d10f      	bne.n	d80da <__aeabi_dmul+0x1c2>
   d80ba:	f001 4600 	and.w	r6, r1, #2147483648	; 0x80000000
   d80be:	0040      	lsls	r0, r0, #1
   d80c0:	eb41 0101 	adc.w	r1, r1, r1
   d80c4:	f411 1f80 	tst.w	r1, #1048576	; 0x100000
   d80c8:	bf08      	it	eq
   d80ca:	3c01      	subeq	r4, #1
   d80cc:	d0f7      	beq.n	d80be <__aeabi_dmul+0x1a6>
   d80ce:	ea41 0106 	orr.w	r1, r1, r6
   d80d2:	f095 0f00 	teq	r5, #0
   d80d6:	bf18      	it	ne
   d80d8:	4770      	bxne	lr
   d80da:	f003 4600 	and.w	r6, r3, #2147483648	; 0x80000000
   d80de:	0052      	lsls	r2, r2, #1
   d80e0:	eb43 0303 	adc.w	r3, r3, r3
   d80e4:	f413 1f80 	tst.w	r3, #1048576	; 0x100000
   d80e8:	bf08      	it	eq
   d80ea:	3d01      	subeq	r5, #1
   d80ec:	d0f7      	beq.n	d80de <__aeabi_dmul+0x1c6>
   d80ee:	ea43 0306 	orr.w	r3, r3, r6
   d80f2:	4770      	bx	lr
   d80f4:	ea94 0f0c 	teq	r4, ip
   d80f8:	ea0c 5513 	and.w	r5, ip, r3, lsr #20
   d80fc:	bf18      	it	ne
   d80fe:	ea95 0f0c 	teqne	r5, ip
   d8102:	d00c      	beq.n	d811e <__aeabi_dmul+0x206>
   d8104:	ea50 0641 	orrs.w	r6, r0, r1, lsl #1
   d8108:	bf18      	it	ne
   d810a:	ea52 0643 	orrsne.w	r6, r2, r3, lsl #1
   d810e:	d1d1      	bne.n	d80b4 <__aeabi_dmul+0x19c>
   d8110:	ea81 0103 	eor.w	r1, r1, r3
   d8114:	f001 4100 	and.w	r1, r1, #2147483648	; 0x80000000
   d8118:	f04f 0000 	mov.w	r0, #0
   d811c:	bd70      	pop	{r4, r5, r6, pc}
   d811e:	ea50 0641 	orrs.w	r6, r0, r1, lsl #1
   d8122:	bf06      	itte	eq
   d8124:	4610      	moveq	r0, r2
   d8126:	4619      	moveq	r1, r3
   d8128:	ea52 0643 	orrsne.w	r6, r2, r3, lsl #1
   d812c:	d019      	beq.n	d8162 <__aeabi_dmul+0x24a>
   d812e:	ea94 0f0c 	teq	r4, ip
   d8132:	d102      	bne.n	d813a <__aeabi_dmul+0x222>
   d8134:	ea50 3601 	orrs.w	r6, r0, r1, lsl #12
   d8138:	d113      	bne.n	d8162 <__aeabi_dmul+0x24a>
   d813a:	ea95 0f0c 	teq	r5, ip
   d813e:	d105      	bne.n	d814c <__aeabi_dmul+0x234>
   d8140:	ea52 3603 	orrs.w	r6, r2, r3, lsl #12
   d8144:	bf1c      	itt	ne
   d8146:	4610      	movne	r0, r2
   d8148:	4619      	movne	r1, r3
   d814a:	d10a      	bne.n	d8162 <__aeabi_dmul+0x24a>
   d814c:	ea81 0103 	eor.w	r1, r1, r3
   d8150:	f001 4100 	and.w	r1, r1, #2147483648	; 0x80000000
   d8154:	f041 41fe 	orr.w	r1, r1, #2130706432	; 0x7f000000
   d8158:	f441 0170 	orr.w	r1, r1, #15728640	; 0xf00000
   d815c:	f04f 0000 	mov.w	r0, #0
   d8160:	bd70      	pop	{r4, r5, r6, pc}
   d8162:	f041 41fe 	orr.w	r1, r1, #2130706432	; 0x7f000000
   d8166:	f441 0178 	orr.w	r1, r1, #16252928	; 0xf80000
   d816a:	bd70      	pop	{r4, r5, r6, pc}

000d816c <__aeabi_ddiv>:
   d816c:	b570      	push	{r4, r5, r6, lr}
   d816e:	f04f 0cff 	mov.w	ip, #255	; 0xff
   d8172:	f44c 6ce0 	orr.w	ip, ip, #1792	; 0x700
   d8176:	ea1c 5411 	ands.w	r4, ip, r1, lsr #20
   d817a:	bf1d      	ittte	ne
   d817c:	ea1c 5513 	andsne.w	r5, ip, r3, lsr #20
   d8180:	ea94 0f0c 	teqne	r4, ip
   d8184:	ea95 0f0c 	teqne	r5, ip
   d8188:	f000 f8a7 	bleq	d82da <__aeabi_ddiv+0x16e>
   d818c:	eba4 0405 	sub.w	r4, r4, r5
   d8190:	ea81 0e03 	eor.w	lr, r1, r3
   d8194:	ea52 3503 	orrs.w	r5, r2, r3, lsl #12
   d8198:	ea4f 3101 	mov.w	r1, r1, lsl #12
   d819c:	f000 8088 	beq.w	d82b0 <__aeabi_ddiv+0x144>
   d81a0:	ea4f 3303 	mov.w	r3, r3, lsl #12
   d81a4:	f04f 5580 	mov.w	r5, #268435456	; 0x10000000
   d81a8:	ea45 1313 	orr.w	r3, r5, r3, lsr #4
   d81ac:	ea43 6312 	orr.w	r3, r3, r2, lsr #24
   d81b0:	ea4f 2202 	mov.w	r2, r2, lsl #8
   d81b4:	ea45 1511 	orr.w	r5, r5, r1, lsr #4
   d81b8:	ea45 6510 	orr.w	r5, r5, r0, lsr #24
   d81bc:	ea4f 2600 	mov.w	r6, r0, lsl #8
   d81c0:	f00e 4100 	and.w	r1, lr, #2147483648	; 0x80000000
   d81c4:	429d      	cmp	r5, r3
   d81c6:	bf08      	it	eq
   d81c8:	4296      	cmpeq	r6, r2
   d81ca:	f144 04fd 	adc.w	r4, r4, #253	; 0xfd
   d81ce:	f504 7440 	add.w	r4, r4, #768	; 0x300
   d81d2:	d202      	bcs.n	d81da <__aeabi_ddiv+0x6e>
   d81d4:	085b      	lsrs	r3, r3, #1
   d81d6:	ea4f 0232 	mov.w	r2, r2, rrx
   d81da:	1ab6      	subs	r6, r6, r2
   d81dc:	eb65 0503 	sbc.w	r5, r5, r3
   d81e0:	085b      	lsrs	r3, r3, #1
   d81e2:	ea4f 0232 	mov.w	r2, r2, rrx
   d81e6:	f44f 1080 	mov.w	r0, #1048576	; 0x100000
   d81ea:	f44f 2c00 	mov.w	ip, #524288	; 0x80000
   d81ee:	ebb6 0e02 	subs.w	lr, r6, r2
   d81f2:	eb75 0e03 	sbcs.w	lr, r5, r3
   d81f6:	bf22      	ittt	cs
   d81f8:	1ab6      	subcs	r6, r6, r2
   d81fa:	4675      	movcs	r5, lr
   d81fc:	ea40 000c 	orrcs.w	r0, r0, ip
   d8200:	085b      	lsrs	r3, r3, #1
   d8202:	ea4f 0232 	mov.w	r2, r2, rrx
   d8206:	ebb6 0e02 	subs.w	lr, r6, r2
   d820a:	eb75 0e03 	sbcs.w	lr, r5, r3
   d820e:	bf22      	ittt	cs
   d8210:	1ab6      	subcs	r6, r6, r2
   d8212:	4675      	movcs	r5, lr
   d8214:	ea40 005c 	orrcs.w	r0, r0, ip, lsr #1
   d8218:	085b      	lsrs	r3, r3, #1
   d821a:	ea4f 0232 	mov.w	r2, r2, rrx
   d821e:	ebb6 0e02 	subs.w	lr, r6, r2
   d8222:	eb75 0e03 	sbcs.w	lr, r5, r3
   d8226:	bf22      	ittt	cs
   d8228:	1ab6      	subcs	r6, r6, r2
   d822a:	4675      	movcs	r5, lr
   d822c:	ea40 009c 	orrcs.w	r0, r0, ip, lsr #2
   d8230:	085b      	lsrs	r3, r3, #1
   d8232:	ea4f 0232 	mov.w	r2, r2, rrx
   d8236:	ebb6 0e02 	subs.w	lr, r6, r2
   d823a:	eb75 0e03 	sbcs.w	lr, r5, r3
   d823e:	bf22      	ittt	cs
   d8240:	1ab6      	subcs	r6, r6, r2
   d8242:	4675      	movcs	r5, lr
   d8244:	ea40 00dc 	orrcs.w	r0, r0, ip, lsr #3
   d8248:	ea55 0e06 	orrs.w	lr, r5, r6
   d824c:	d018      	beq.n	d8280 <__aeabi_ddiv+0x114>
   d824e:	ea4f 1505 	mov.w	r5, r5, lsl #4
   d8252:	ea45 7516 	orr.w	r5, r5, r6, lsr #28
   d8256:	ea4f 1606 	mov.w	r6, r6, lsl #4
   d825a:	ea4f 03c3 	mov.w	r3, r3, lsl #3
   d825e:	ea43 7352 	orr.w	r3, r3, r2, lsr #29
   d8262:	ea4f 02c2 	mov.w	r2, r2, lsl #3
   d8266:	ea5f 1c1c 	movs.w	ip, ip, lsr #4
   d826a:	d1c0      	bne.n	d81ee <__aeabi_ddiv+0x82>
   d826c:	f411 1f80 	tst.w	r1, #1048576	; 0x100000
   d8270:	d10b      	bne.n	d828a <__aeabi_ddiv+0x11e>
   d8272:	ea41 0100 	orr.w	r1, r1, r0
   d8276:	f04f 0000 	mov.w	r0, #0
   d827a:	f04f 4c00 	mov.w	ip, #2147483648	; 0x80000000
   d827e:	e7b6      	b.n	d81ee <__aeabi_ddiv+0x82>
   d8280:	f411 1f80 	tst.w	r1, #1048576	; 0x100000
   d8284:	bf04      	itt	eq
   d8286:	4301      	orreq	r1, r0
   d8288:	2000      	moveq	r0, #0
   d828a:	f1b4 0cfd 	subs.w	ip, r4, #253	; 0xfd
   d828e:	bf88      	it	hi
   d8290:	f5bc 6fe0 	cmphi.w	ip, #1792	; 0x700
   d8294:	f63f aeaf 	bhi.w	d7ff6 <__aeabi_dmul+0xde>
   d8298:	ebb5 0c03 	subs.w	ip, r5, r3
   d829c:	bf04      	itt	eq
   d829e:	ebb6 0c02 	subseq.w	ip, r6, r2
   d82a2:	ea5f 0c50 	movseq.w	ip, r0, lsr #1
   d82a6:	f150 0000 	adcs.w	r0, r0, #0
   d82aa:	eb41 5104 	adc.w	r1, r1, r4, lsl #20
   d82ae:	bd70      	pop	{r4, r5, r6, pc}
   d82b0:	f00e 4e00 	and.w	lr, lr, #2147483648	; 0x80000000
   d82b4:	ea4e 3111 	orr.w	r1, lr, r1, lsr #12
   d82b8:	eb14 045c 	adds.w	r4, r4, ip, lsr #1
   d82bc:	bfc2      	ittt	gt
   d82be:	ebd4 050c 	rsbsgt	r5, r4, ip
   d82c2:	ea41 5104 	orrgt.w	r1, r1, r4, lsl #20
   d82c6:	bd70      	popgt	{r4, r5, r6, pc}
   d82c8:	f441 1180 	orr.w	r1, r1, #1048576	; 0x100000
   d82cc:	f04f 0e00 	mov.w	lr, #0
   d82d0:	3c01      	subs	r4, #1
   d82d2:	e690      	b.n	d7ff6 <__aeabi_dmul+0xde>
   d82d4:	ea45 0e06 	orr.w	lr, r5, r6
   d82d8:	e68d      	b.n	d7ff6 <__aeabi_dmul+0xde>
   d82da:	ea0c 5513 	and.w	r5, ip, r3, lsr #20
   d82de:	ea94 0f0c 	teq	r4, ip
   d82e2:	bf08      	it	eq
   d82e4:	ea95 0f0c 	teqeq	r5, ip
   d82e8:	f43f af3b 	beq.w	d8162 <__aeabi_dmul+0x24a>
   d82ec:	ea94 0f0c 	teq	r4, ip
   d82f0:	d10a      	bne.n	d8308 <__aeabi_ddiv+0x19c>
   d82f2:	ea50 3401 	orrs.w	r4, r0, r1, lsl #12
   d82f6:	f47f af34 	bne.w	d8162 <__aeabi_dmul+0x24a>
   d82fa:	ea95 0f0c 	teq	r5, ip
   d82fe:	f47f af25 	bne.w	d814c <__aeabi_dmul+0x234>
   d8302:	4610      	mov	r0, r2
   d8304:	4619      	mov	r1, r3
   d8306:	e72c      	b.n	d8162 <__aeabi_dmul+0x24a>
   d8308:	ea95 0f0c 	teq	r5, ip
   d830c:	d106      	bne.n	d831c <__aeabi_ddiv+0x1b0>
   d830e:	ea52 3503 	orrs.w	r5, r2, r3, lsl #12
   d8312:	f43f aefd 	beq.w	d8110 <__aeabi_dmul+0x1f8>
   d8316:	4610      	mov	r0, r2
   d8318:	4619      	mov	r1, r3
   d831a:	e722      	b.n	d8162 <__aeabi_dmul+0x24a>
   d831c:	ea50 0641 	orrs.w	r6, r0, r1, lsl #1
   d8320:	bf18      	it	ne
   d8322:	ea52 0643 	orrsne.w	r6, r2, r3, lsl #1
   d8326:	f47f aec5 	bne.w	d80b4 <__aeabi_dmul+0x19c>
   d832a:	ea50 0441 	orrs.w	r4, r0, r1, lsl #1
   d832e:	f47f af0d 	bne.w	d814c <__aeabi_dmul+0x234>
   d8332:	ea52 0543 	orrs.w	r5, r2, r3, lsl #1
   d8336:	f47f aeeb 	bne.w	d8110 <__aeabi_dmul+0x1f8>
   d833a:	e712      	b.n	d8162 <__aeabi_dmul+0x24a>

000d833c <__gedf2>:
   d833c:	f04f 3cff 	mov.w	ip, #4294967295	; 0xffffffff
   d8340:	e006      	b.n	d8350 <__cmpdf2+0x4>
   d8342:	bf00      	nop

000d8344 <__ledf2>:
   d8344:	f04f 0c01 	mov.w	ip, #1
   d8348:	e002      	b.n	d8350 <__cmpdf2+0x4>
   d834a:	bf00      	nop

000d834c <__cmpdf2>:
   d834c:	f04f 0c01 	mov.w	ip, #1
   d8350:	f84d cd04 	str.w	ip, [sp, #-4]!
   d8354:	ea4f 0c41 	mov.w	ip, r1, lsl #1
   d8358:	ea7f 5c6c 	mvns.w	ip, ip, asr #21
   d835c:	ea4f 0c43 	mov.w	ip, r3, lsl #1
   d8360:	bf18      	it	ne
   d8362:	ea7f 5c6c 	mvnsne.w	ip, ip, asr #21
   d8366:	d01b      	beq.n	d83a0 <__cmpdf2+0x54>
   d8368:	b001      	add	sp, #4
   d836a:	ea50 0c41 	orrs.w	ip, r0, r1, lsl #1
   d836e:	bf0c      	ite	eq
   d8370:	ea52 0c43 	orrseq.w	ip, r2, r3, lsl #1
   d8374:	ea91 0f03 	teqne	r1, r3
   d8378:	bf02      	ittt	eq
   d837a:	ea90 0f02 	teqeq	r0, r2
   d837e:	2000      	moveq	r0, #0
   d8380:	4770      	bxeq	lr
   d8382:	f110 0f00 	cmn.w	r0, #0
   d8386:	ea91 0f03 	teq	r1, r3
   d838a:	bf58      	it	pl
   d838c:	4299      	cmppl	r1, r3
   d838e:	bf08      	it	eq
   d8390:	4290      	cmpeq	r0, r2
   d8392:	bf2c      	ite	cs
   d8394:	17d8      	asrcs	r0, r3, #31
   d8396:	ea6f 70e3 	mvncc.w	r0, r3, asr #31
   d839a:	f040 0001 	orr.w	r0, r0, #1
   d839e:	4770      	bx	lr
   d83a0:	ea4f 0c41 	mov.w	ip, r1, lsl #1
   d83a4:	ea7f 5c6c 	mvns.w	ip, ip, asr #21
   d83a8:	d102      	bne.n	d83b0 <__cmpdf2+0x64>
   d83aa:	ea50 3c01 	orrs.w	ip, r0, r1, lsl #12
   d83ae:	d107      	bne.n	d83c0 <__cmpdf2+0x74>
   d83b0:	ea4f 0c43 	mov.w	ip, r3, lsl #1
   d83b4:	ea7f 5c6c 	mvns.w	ip, ip, asr #21
   d83b8:	d1d6      	bne.n	d8368 <__cmpdf2+0x1c>
   d83ba:	ea52 3c03 	orrs.w	ip, r2, r3, lsl #12
   d83be:	d0d3      	beq.n	d8368 <__cmpdf2+0x1c>
   d83c0:	f85d 0b04 	ldr.w	r0, [sp], #4
   d83c4:	4770      	bx	lr
   d83c6:	bf00      	nop

000d83c8 <__aeabi_cdrcmple>:
   d83c8:	4684      	mov	ip, r0
   d83ca:	4610      	mov	r0, r2
   d83cc:	4662      	mov	r2, ip
   d83ce:	468c      	mov	ip, r1
   d83d0:	4619      	mov	r1, r3
   d83d2:	4663      	mov	r3, ip
   d83d4:	e000      	b.n	d83d8 <__aeabi_cdcmpeq>
   d83d6:	bf00      	nop

000d83d8 <__aeabi_cdcmpeq>:
   d83d8:	b501      	push	{r0, lr}
   d83da:	f7ff ffb7 	bl	d834c <__cmpdf2>
   d83de:	2800      	cmp	r0, #0
   d83e0:	bf48      	it	mi
   d83e2:	f110 0f00 	cmnmi.w	r0, #0
   d83e6:	bd01      	pop	{r0, pc}

000d83e8 <__aeabi_dcmpeq>:
   d83e8:	f84d ed08 	str.w	lr, [sp, #-8]!
   d83ec:	f7ff fff4 	bl	d83d8 <__aeabi_cdcmpeq>
   d83f0:	bf0c      	ite	eq
   d83f2:	2001      	moveq	r0, #1
   d83f4:	2000      	movne	r0, #0
   d83f6:	f85d fb08 	ldr.w	pc, [sp], #8
   d83fa:	bf00      	nop

000d83fc <__aeabi_dcmplt>:
   d83fc:	f84d ed08 	str.w	lr, [sp, #-8]!
   d8400:	f7ff ffea 	bl	d83d8 <__aeabi_cdcmpeq>
   d8404:	bf34      	ite	cc
   d8406:	2001      	movcc	r0, #1
   d8408:	2000      	movcs	r0, #0
   d840a:	f85d fb08 	ldr.w	pc, [sp], #8
   d840e:	bf00      	nop

000d8410 <__aeabi_dcmple>:
   d8410:	f84d ed08 	str.w	lr, [sp, #-8]!
   d8414:	f7ff ffe0 	bl	d83d8 <__aeabi_cdcmpeq>
   d8418:	bf94      	ite	ls
   d841a:	2001      	movls	r0, #1
   d841c:	2000      	movhi	r0, #0
   d841e:	f85d fb08 	ldr.w	pc, [sp], #8
   d8422:	bf00      	nop

000d8424 <__aeabi_dcmpge>:
   d8424:	f84d ed08 	str.w	lr, [sp, #-8]!
   d8428:	f7ff ffce 	bl	d83c8 <__aeabi_cdrcmple>
   d842c:	bf94      	ite	ls
   d842e:	2001      	movls	r0, #1
   d8430:	2000      	movhi	r0, #0
   d8432:	f85d fb08 	ldr.w	pc, [sp], #8
   d8436:	bf00      	nop

000d8438 <__aeabi_dcmpgt>:
   d8438:	f84d ed08 	str.w	lr, [sp, #-8]!
   d843c:	f7ff ffc4 	bl	d83c8 <__aeabi_cdrcmple>
   d8440:	bf34      	ite	cc
   d8442:	2001      	movcc	r0, #1
   d8444:	2000      	movcs	r0, #0
   d8446:	f85d fb08 	ldr.w	pc, [sp], #8
   d844a:	bf00      	nop

000d844c <__aeabi_d2iz>:
   d844c:	ea4f 0241 	mov.w	r2, r1, lsl #1
   d8450:	f512 1200 	adds.w	r2, r2, #2097152	; 0x200000
   d8454:	d215      	bcs.n	d8482 <__aeabi_d2iz+0x36>
   d8456:	d511      	bpl.n	d847c <__aeabi_d2iz+0x30>
   d8458:	f46f 7378 	mvn.w	r3, #992	; 0x3e0
   d845c:	ebb3 5262 	subs.w	r2, r3, r2, asr #21
   d8460:	d912      	bls.n	d8488 <__aeabi_d2iz+0x3c>
   d8462:	ea4f 23c1 	mov.w	r3, r1, lsl #11
   d8466:	f043 4300 	orr.w	r3, r3, #2147483648	; 0x80000000
   d846a:	ea43 5350 	orr.w	r3, r3, r0, lsr #21
   d846e:	f011 4f00 	tst.w	r1, #2147483648	; 0x80000000
   d8472:	fa23 f002 	lsr.w	r0, r3, r2
   d8476:	bf18      	it	ne
   d8478:	4240      	negne	r0, r0
   d847a:	4770      	bx	lr
   d847c:	f04f 0000 	mov.w	r0, #0
   d8480:	4770      	bx	lr
   d8482:	ea50 3001 	orrs.w	r0, r0, r1, lsl #12
   d8486:	d105      	bne.n	d8494 <__aeabi_d2iz+0x48>
   d8488:	f011 4000 	ands.w	r0, r1, #2147483648	; 0x80000000
   d848c:	bf08      	it	eq
   d848e:	f06f 4000 	mvneq.w	r0, #2147483648	; 0x80000000
   d8492:	4770      	bx	lr
   d8494:	f04f 0000 	mov.w	r0, #0
   d8498:	4770      	bx	lr
   d849a:	bf00      	nop

000d849c <__aeabi_d2uiz>:
   d849c:	004a      	lsls	r2, r1, #1
   d849e:	d211      	bcs.n	d84c4 <__aeabi_d2uiz+0x28>
   d84a0:	f512 1200 	adds.w	r2, r2, #2097152	; 0x200000
   d84a4:	d211      	bcs.n	d84ca <__aeabi_d2uiz+0x2e>
   d84a6:	d50d      	bpl.n	d84c4 <__aeabi_d2uiz+0x28>
   d84a8:	f46f 7378 	mvn.w	r3, #992	; 0x3e0
   d84ac:	ebb3 5262 	subs.w	r2, r3, r2, asr #21
   d84b0:	d40e      	bmi.n	d84d0 <__aeabi_d2uiz+0x34>
   d84b2:	ea4f 23c1 	mov.w	r3, r1, lsl #11
   d84b6:	f043 4300 	orr.w	r3, r3, #2147483648	; 0x80000000
   d84ba:	ea43 5350 	orr.w	r3, r3, r0, lsr #21
   d84be:	fa23 f002 	lsr.w	r0, r3, r2
   d84c2:	4770      	bx	lr
   d84c4:	f04f 0000 	mov.w	r0, #0
   d84c8:	4770      	bx	lr
   d84ca:	ea50 3001 	orrs.w	r0, r0, r1, lsl #12
   d84ce:	d102      	bne.n	d84d6 <__aeabi_d2uiz+0x3a>
   d84d0:	f04f 30ff 	mov.w	r0, #4294967295	; 0xffffffff
   d84d4:	4770      	bx	lr
   d84d6:	f04f 0000 	mov.w	r0, #0
   d84da:	4770      	bx	lr

000d84dc <__aeabi_d2f>:
   d84dc:	ea4f 0241 	mov.w	r2, r1, lsl #1
   d84e0:	f1b2 43e0 	subs.w	r3, r2, #1879048192	; 0x70000000
   d84e4:	bf24      	itt	cs
   d84e6:	f5b3 1c00 	subscs.w	ip, r3, #2097152	; 0x200000
   d84ea:	f1dc 5cfe 	rsbscs	ip, ip, #532676608	; 0x1fc00000
   d84ee:	d90d      	bls.n	d850c <__aeabi_d2f+0x30>
   d84f0:	f001 4c00 	and.w	ip, r1, #2147483648	; 0x80000000
   d84f4:	ea4f 02c0 	mov.w	r2, r0, lsl #3
   d84f8:	ea4c 7050 	orr.w	r0, ip, r0, lsr #29
   d84fc:	f1b2 4f00 	cmp.w	r2, #2147483648	; 0x80000000
   d8500:	eb40 0083 	adc.w	r0, r0, r3, lsl #2
   d8504:	bf08      	it	eq
   d8506:	f020 0001 	biceq.w	r0, r0, #1
   d850a:	4770      	bx	lr
   d850c:	f011 4f80 	tst.w	r1, #1073741824	; 0x40000000
   d8510:	d121      	bne.n	d8556 <__aeabi_d2f+0x7a>
   d8512:	f113 7238 	adds.w	r2, r3, #48234496	; 0x2e00000
   d8516:	bfbc      	itt	lt
   d8518:	f001 4000 	andlt.w	r0, r1, #2147483648	; 0x80000000
   d851c:	4770      	bxlt	lr
   d851e:	f441 1180 	orr.w	r1, r1, #1048576	; 0x100000
   d8522:	ea4f 5252 	mov.w	r2, r2, lsr #21
   d8526:	f1c2 0218 	rsb	r2, r2, #24
   d852a:	f1c2 0c20 	rsb	ip, r2, #32
   d852e:	fa10 f30c 	lsls.w	r3, r0, ip
   d8532:	fa20 f002 	lsr.w	r0, r0, r2
   d8536:	bf18      	it	ne
   d8538:	f040 0001 	orrne.w	r0, r0, #1
   d853c:	ea4f 23c1 	mov.w	r3, r1, lsl #11
   d8540:	ea4f 23d3 	mov.w	r3, r3, lsr #11
   d8544:	fa03 fc0c 	lsl.w	ip, r3, ip
   d8548:	ea40 000c 	orr.w	r0, r0, ip
   d854c:	fa23 f302 	lsr.w	r3, r3, r2
   d8550:	ea4f 0343 	mov.w	r3, r3, lsl #1
   d8554:	e7cc      	b.n	d84f0 <__aeabi_d2f+0x14>
   d8556:	ea7f 5362 	mvns.w	r3, r2, asr #21
   d855a:	d107      	bne.n	d856c <__aeabi_d2f+0x90>
   d855c:	ea50 3301 	orrs.w	r3, r0, r1, lsl #12
   d8560:	bf1e      	ittt	ne
   d8562:	f04f 40fe 	movne.w	r0, #2130706432	; 0x7f000000
   d8566:	f440 0040 	orrne.w	r0, r0, #12582912	; 0xc00000
   d856a:	4770      	bxne	lr
   d856c:	f001 4000 	and.w	r0, r1, #2147483648	; 0x80000000
   d8570:	f040 40fe 	orr.w	r0, r0, #2130706432	; 0x7f000000
   d8574:	f440 0000 	orr.w	r0, r0, #8388608	; 0x800000
   d8578:	4770      	bx	lr
   d857a:	bf00      	nop

000d857c <__aeabi_ldivmod>:
   d857c:	b97b      	cbnz	r3, d859e <__aeabi_ldivmod+0x22>
   d857e:	b972      	cbnz	r2, d859e <__aeabi_ldivmod+0x22>
   d8580:	2900      	cmp	r1, #0
   d8582:	bfbe      	ittt	lt
   d8584:	2000      	movlt	r0, #0
   d8586:	f04f 4100 	movlt.w	r1, #2147483648	; 0x80000000
   d858a:	e006      	blt.n	d859a <__aeabi_ldivmod+0x1e>
   d858c:	bf08      	it	eq
   d858e:	2800      	cmpeq	r0, #0
   d8590:	bf1c      	itt	ne
   d8592:	f06f 4100 	mvnne.w	r1, #2147483648	; 0x80000000
   d8596:	f04f 30ff 	movne.w	r0, #4294967295	; 0xffffffff
   d859a:	f000 b9b1 	b.w	d8900 <__aeabi_idiv0>
   d859e:	f1ad 0c08 	sub.w	ip, sp, #8
   d85a2:	e96d ce04 	strd	ip, lr, [sp, #-16]!
   d85a6:	2900      	cmp	r1, #0
   d85a8:	db09      	blt.n	d85be <__aeabi_ldivmod+0x42>
   d85aa:	2b00      	cmp	r3, #0
   d85ac:	db1a      	blt.n	d85e4 <__aeabi_ldivmod+0x68>
   d85ae:	f000 f835 	bl	d861c <__udivmoddi4>
   d85b2:	f8dd e004 	ldr.w	lr, [sp, #4]
   d85b6:	e9dd 2302 	ldrd	r2, r3, [sp, #8]
   d85ba:	b004      	add	sp, #16
   d85bc:	4770      	bx	lr
   d85be:	4240      	negs	r0, r0
   d85c0:	eb61 0141 	sbc.w	r1, r1, r1, lsl #1
   d85c4:	2b00      	cmp	r3, #0
   d85c6:	db1b      	blt.n	d8600 <__aeabi_ldivmod+0x84>
   d85c8:	f000 f828 	bl	d861c <__udivmoddi4>
   d85cc:	f8dd e004 	ldr.w	lr, [sp, #4]
   d85d0:	e9dd 2302 	ldrd	r2, r3, [sp, #8]
   d85d4:	b004      	add	sp, #16
   d85d6:	4240      	negs	r0, r0
   d85d8:	eb61 0141 	sbc.w	r1, r1, r1, lsl #1
   d85dc:	4252      	negs	r2, r2
   d85de:	eb63 0343 	sbc.w	r3, r3, r3, lsl #1
   d85e2:	4770      	bx	lr
   d85e4:	4252      	negs	r2, r2
   d85e6:	eb63 0343 	sbc.w	r3, r3, r3, lsl #1
   d85ea:	f000 f817 	bl	d861c <__udivmoddi4>
   d85ee:	f8dd e004 	ldr.w	lr, [sp, #4]
   d85f2:	e9dd 2302 	ldrd	r2, r3, [sp, #8]
   d85f6:	b004      	add	sp, #16
   d85f8:	4240      	negs	r0, r0
   d85fa:	eb61 0141 	sbc.w	r1, r1, r1, lsl #1
   d85fe:	4770      	bx	lr
   d8600:	4252      	negs	r2, r2
   d8602:	eb63 0343 	sbc.w	r3, r3, r3, lsl #1
   d8606:	f000 f809 	bl	d861c <__udivmoddi4>
   d860a:	f8dd e004 	ldr.w	lr, [sp, #4]
   d860e:	e9dd 2302 	ldrd	r2, r3, [sp, #8]
   d8612:	b004      	add	sp, #16
   d8614:	4252      	negs	r2, r2
   d8616:	eb63 0343 	sbc.w	r3, r3, r3, lsl #1
   d861a:	4770      	bx	lr

000d861c <__udivmoddi4>:
   d861c:	e92d 47f0 	stmdb	sp!, {r4, r5, r6, r7, r8, r9, sl, lr}
   d8620:	468c      	mov	ip, r1
   d8622:	460e      	mov	r6, r1
   d8624:	4604      	mov	r4, r0
   d8626:	9d08      	ldr	r5, [sp, #32]
   d8628:	2b00      	cmp	r3, #0
   d862a:	d150      	bne.n	d86ce <__udivmoddi4+0xb2>
   d862c:	428a      	cmp	r2, r1
   d862e:	4617      	mov	r7, r2
   d8630:	d96c      	bls.n	d870c <__udivmoddi4+0xf0>
   d8632:	fab2 fe82 	clz	lr, r2
   d8636:	f1be 0f00 	cmp.w	lr, #0
   d863a:	d00b      	beq.n	d8654 <__udivmoddi4+0x38>
   d863c:	f1ce 0420 	rsb	r4, lr, #32
   d8640:	fa20 f404 	lsr.w	r4, r0, r4
   d8644:	fa01 f60e 	lsl.w	r6, r1, lr
   d8648:	ea44 0c06 	orr.w	ip, r4, r6
   d864c:	fa02 f70e 	lsl.w	r7, r2, lr
   d8650:	fa00 f40e 	lsl.w	r4, r0, lr
   d8654:	ea4f 4917 	mov.w	r9, r7, lsr #16
   d8658:	0c22      	lsrs	r2, r4, #16
   d865a:	fbbc f0f9 	udiv	r0, ip, r9
   d865e:	fa1f f887 	uxth.w	r8, r7
   d8662:	fb09 c610 	mls	r6, r9, r0, ip
   d8666:	ea42 4606 	orr.w	r6, r2, r6, lsl #16
   d866a:	fb00 f308 	mul.w	r3, r0, r8
   d866e:	42b3      	cmp	r3, r6
   d8670:	d909      	bls.n	d8686 <__udivmoddi4+0x6a>
   d8672:	19f6      	adds	r6, r6, r7
   d8674:	f100 32ff 	add.w	r2, r0, #4294967295	; 0xffffffff
   d8678:	f080 8122 	bcs.w	d88c0 <__udivmoddi4+0x2a4>
   d867c:	42b3      	cmp	r3, r6
   d867e:	f240 811f 	bls.w	d88c0 <__udivmoddi4+0x2a4>
   d8682:	3802      	subs	r0, #2
   d8684:	443e      	add	r6, r7
   d8686:	1af6      	subs	r6, r6, r3
   d8688:	b2a2      	uxth	r2, r4
   d868a:	fbb6 f3f9 	udiv	r3, r6, r9
   d868e:	fb09 6613 	mls	r6, r9, r3, r6
   d8692:	ea42 4406 	orr.w	r4, r2, r6, lsl #16
   d8696:	fb03 f808 	mul.w	r8, r3, r8
   d869a:	45a0      	cmp	r8, r4
   d869c:	d909      	bls.n	d86b2 <__udivmoddi4+0x96>
   d869e:	19e4      	adds	r4, r4, r7
   d86a0:	f103 32ff 	add.w	r2, r3, #4294967295	; 0xffffffff
   d86a4:	f080 810a 	bcs.w	d88bc <__udivmoddi4+0x2a0>
   d86a8:	45a0      	cmp	r8, r4
   d86aa:	f240 8107 	bls.w	d88bc <__udivmoddi4+0x2a0>
   d86ae:	3b02      	subs	r3, #2
   d86b0:	443c      	add	r4, r7
   d86b2:	ebc8 0404 	rsb	r4, r8, r4
   d86b6:	ea43 4000 	orr.w	r0, r3, r0, lsl #16
   d86ba:	2100      	movs	r1, #0
   d86bc:	2d00      	cmp	r5, #0
   d86be:	d062      	beq.n	d8786 <__udivmoddi4+0x16a>
   d86c0:	fa24 f40e 	lsr.w	r4, r4, lr
   d86c4:	2300      	movs	r3, #0
   d86c6:	602c      	str	r4, [r5, #0]
   d86c8:	606b      	str	r3, [r5, #4]
   d86ca:	e8bd 87f0 	ldmia.w	sp!, {r4, r5, r6, r7, r8, r9, sl, pc}
   d86ce:	428b      	cmp	r3, r1
   d86d0:	d907      	bls.n	d86e2 <__udivmoddi4+0xc6>
   d86d2:	2d00      	cmp	r5, #0
   d86d4:	d055      	beq.n	d8782 <__udivmoddi4+0x166>
   d86d6:	2100      	movs	r1, #0
   d86d8:	e885 0041 	stmia.w	r5, {r0, r6}
   d86dc:	4608      	mov	r0, r1
   d86de:	e8bd 87f0 	ldmia.w	sp!, {r4, r5, r6, r7, r8, r9, sl, pc}
   d86e2:	fab3 f183 	clz	r1, r3
   d86e6:	2900      	cmp	r1, #0
   d86e8:	f040 8090 	bne.w	d880c <__udivmoddi4+0x1f0>
   d86ec:	42b3      	cmp	r3, r6
   d86ee:	d302      	bcc.n	d86f6 <__udivmoddi4+0xda>
   d86f0:	4282      	cmp	r2, r0
   d86f2:	f200 80f8 	bhi.w	d88e6 <__udivmoddi4+0x2ca>
   d86f6:	1a84      	subs	r4, r0, r2
   d86f8:	eb66 0603 	sbc.w	r6, r6, r3
   d86fc:	2001      	movs	r0, #1
   d86fe:	46b4      	mov	ip, r6
   d8700:	2d00      	cmp	r5, #0
   d8702:	d040      	beq.n	d8786 <__udivmoddi4+0x16a>
   d8704:	e885 1010 	stmia.w	r5, {r4, ip}
   d8708:	e8bd 87f0 	ldmia.w	sp!, {r4, r5, r6, r7, r8, r9, sl, pc}
   d870c:	b912      	cbnz	r2, d8714 <__udivmoddi4+0xf8>
   d870e:	2701      	movs	r7, #1
   d8710:	fbb7 f7f2 	udiv	r7, r7, r2
   d8714:	fab7 fe87 	clz	lr, r7
   d8718:	f1be 0f00 	cmp.w	lr, #0
   d871c:	d135      	bne.n	d878a <__udivmoddi4+0x16e>
   d871e:	1bf3      	subs	r3, r6, r7
   d8720:	ea4f 4817 	mov.w	r8, r7, lsr #16
   d8724:	fa1f fc87 	uxth.w	ip, r7
   d8728:	2101      	movs	r1, #1
   d872a:	fbb3 f0f8 	udiv	r0, r3, r8
   d872e:	0c22      	lsrs	r2, r4, #16
   d8730:	fb08 3610 	mls	r6, r8, r0, r3
   d8734:	ea42 4606 	orr.w	r6, r2, r6, lsl #16
   d8738:	fb0c f300 	mul.w	r3, ip, r0
   d873c:	42b3      	cmp	r3, r6
   d873e:	d907      	bls.n	d8750 <__udivmoddi4+0x134>
   d8740:	19f6      	adds	r6, r6, r7
   d8742:	f100 32ff 	add.w	r2, r0, #4294967295	; 0xffffffff
   d8746:	d202      	bcs.n	d874e <__udivmoddi4+0x132>
   d8748:	42b3      	cmp	r3, r6
   d874a:	f200 80ce 	bhi.w	d88ea <__udivmoddi4+0x2ce>
   d874e:	4610      	mov	r0, r2
   d8750:	1af6      	subs	r6, r6, r3
   d8752:	b2a2      	uxth	r2, r4
   d8754:	fbb6 f3f8 	udiv	r3, r6, r8
   d8758:	fb08 6613 	mls	r6, r8, r3, r6
   d875c:	ea42 4406 	orr.w	r4, r2, r6, lsl #16
   d8760:	fb0c fc03 	mul.w	ip, ip, r3
   d8764:	45a4      	cmp	ip, r4
   d8766:	d907      	bls.n	d8778 <__udivmoddi4+0x15c>
   d8768:	19e4      	adds	r4, r4, r7
   d876a:	f103 32ff 	add.w	r2, r3, #4294967295	; 0xffffffff
   d876e:	d202      	bcs.n	d8776 <__udivmoddi4+0x15a>
   d8770:	45a4      	cmp	ip, r4
   d8772:	f200 80b5 	bhi.w	d88e0 <__udivmoddi4+0x2c4>
   d8776:	4613      	mov	r3, r2
   d8778:	ebcc 0404 	rsb	r4, ip, r4
   d877c:	ea43 4000 	orr.w	r0, r3, r0, lsl #16
   d8780:	e79c      	b.n	d86bc <__udivmoddi4+0xa0>
   d8782:	4629      	mov	r1, r5
   d8784:	4628      	mov	r0, r5
   d8786:	e8bd 87f0 	ldmia.w	sp!, {r4, r5, r6, r7, r8, r9, sl, pc}
   d878a:	f1ce 0120 	rsb	r1, lr, #32
   d878e:	fa06 f30e 	lsl.w	r3, r6, lr
   d8792:	fa07 f70e 	lsl.w	r7, r7, lr
   d8796:	fa20 f901 	lsr.w	r9, r0, r1
   d879a:	ea4f 4817 	mov.w	r8, r7, lsr #16
   d879e:	40ce      	lsrs	r6, r1
   d87a0:	ea49 0903 	orr.w	r9, r9, r3
   d87a4:	fbb6 faf8 	udiv	sl, r6, r8
   d87a8:	ea4f 4419 	mov.w	r4, r9, lsr #16
   d87ac:	fb08 661a 	mls	r6, r8, sl, r6
   d87b0:	fa1f fc87 	uxth.w	ip, r7
   d87b4:	ea44 4306 	orr.w	r3, r4, r6, lsl #16
   d87b8:	fb0a f20c 	mul.w	r2, sl, ip
   d87bc:	429a      	cmp	r2, r3
   d87be:	fa00 f40e 	lsl.w	r4, r0, lr
   d87c2:	d90a      	bls.n	d87da <__udivmoddi4+0x1be>
   d87c4:	19db      	adds	r3, r3, r7
   d87c6:	f10a 31ff 	add.w	r1, sl, #4294967295	; 0xffffffff
   d87ca:	f080 8087 	bcs.w	d88dc <__udivmoddi4+0x2c0>
   d87ce:	429a      	cmp	r2, r3
   d87d0:	f240 8084 	bls.w	d88dc <__udivmoddi4+0x2c0>
   d87d4:	f1aa 0a02 	sub.w	sl, sl, #2
   d87d8:	443b      	add	r3, r7
   d87da:	1a9b      	subs	r3, r3, r2
   d87dc:	fa1f f989 	uxth.w	r9, r9
   d87e0:	fbb3 f1f8 	udiv	r1, r3, r8
   d87e4:	fb08 3311 	mls	r3, r8, r1, r3
   d87e8:	ea49 4303 	orr.w	r3, r9, r3, lsl #16
   d87ec:	fb01 f60c 	mul.w	r6, r1, ip
   d87f0:	429e      	cmp	r6, r3
   d87f2:	d907      	bls.n	d8804 <__udivmoddi4+0x1e8>
   d87f4:	19db      	adds	r3, r3, r7
   d87f6:	f101 32ff 	add.w	r2, r1, #4294967295	; 0xffffffff
   d87fa:	d26b      	bcs.n	d88d4 <__udivmoddi4+0x2b8>
   d87fc:	429e      	cmp	r6, r3
   d87fe:	d969      	bls.n	d88d4 <__udivmoddi4+0x2b8>
   d8800:	3902      	subs	r1, #2
   d8802:	443b      	add	r3, r7
   d8804:	1b9b      	subs	r3, r3, r6
   d8806:	ea41 410a 	orr.w	r1, r1, sl, lsl #16
   d880a:	e78e      	b.n	d872a <__udivmoddi4+0x10e>
   d880c:	f1c1 0e20 	rsb	lr, r1, #32
   d8810:	fa22 f40e 	lsr.w	r4, r2, lr
   d8814:	408b      	lsls	r3, r1
   d8816:	4323      	orrs	r3, r4
   d8818:	fa20 f70e 	lsr.w	r7, r0, lr
   d881c:	fa06 f401 	lsl.w	r4, r6, r1
   d8820:	ea4f 4c13 	mov.w	ip, r3, lsr #16
   d8824:	fa26 f60e 	lsr.w	r6, r6, lr
   d8828:	433c      	orrs	r4, r7
   d882a:	fbb6 f9fc 	udiv	r9, r6, ip
   d882e:	0c27      	lsrs	r7, r4, #16
   d8830:	fb0c 6619 	mls	r6, ip, r9, r6
   d8834:	fa1f f883 	uxth.w	r8, r3
   d8838:	ea47 4606 	orr.w	r6, r7, r6, lsl #16
   d883c:	fb09 f708 	mul.w	r7, r9, r8
   d8840:	42b7      	cmp	r7, r6
   d8842:	fa02 f201 	lsl.w	r2, r2, r1
   d8846:	fa00 fa01 	lsl.w	sl, r0, r1
   d884a:	d908      	bls.n	d885e <__udivmoddi4+0x242>
   d884c:	18f6      	adds	r6, r6, r3
   d884e:	f109 30ff 	add.w	r0, r9, #4294967295	; 0xffffffff
   d8852:	d241      	bcs.n	d88d8 <__udivmoddi4+0x2bc>
   d8854:	42b7      	cmp	r7, r6
   d8856:	d93f      	bls.n	d88d8 <__udivmoddi4+0x2bc>
   d8858:	f1a9 0902 	sub.w	r9, r9, #2
   d885c:	441e      	add	r6, r3
   d885e:	1bf6      	subs	r6, r6, r7
   d8860:	b2a0      	uxth	r0, r4
   d8862:	fbb6 f4fc 	udiv	r4, r6, ip
   d8866:	fb0c 6614 	mls	r6, ip, r4, r6
   d886a:	ea40 4706 	orr.w	r7, r0, r6, lsl #16
   d886e:	fb04 f808 	mul.w	r8, r4, r8
   d8872:	45b8      	cmp	r8, r7
   d8874:	d907      	bls.n	d8886 <__udivmoddi4+0x26a>
   d8876:	18ff      	adds	r7, r7, r3
   d8878:	f104 30ff 	add.w	r0, r4, #4294967295	; 0xffffffff
   d887c:	d228      	bcs.n	d88d0 <__udivmoddi4+0x2b4>
   d887e:	45b8      	cmp	r8, r7
   d8880:	d926      	bls.n	d88d0 <__udivmoddi4+0x2b4>
   d8882:	3c02      	subs	r4, #2
   d8884:	441f      	add	r7, r3
   d8886:	ea44 4009 	orr.w	r0, r4, r9, lsl #16
   d888a:	ebc8 0707 	rsb	r7, r8, r7
   d888e:	fba0 8902 	umull	r8, r9, r0, r2
   d8892:	454f      	cmp	r7, r9
   d8894:	4644      	mov	r4, r8
   d8896:	464e      	mov	r6, r9
   d8898:	d314      	bcc.n	d88c4 <__udivmoddi4+0x2a8>
   d889a:	d029      	beq.n	d88f0 <__udivmoddi4+0x2d4>
   d889c:	b365      	cbz	r5, d88f8 <__udivmoddi4+0x2dc>
   d889e:	ebba 0304 	subs.w	r3, sl, r4
   d88a2:	eb67 0706 	sbc.w	r7, r7, r6
   d88a6:	fa07 fe0e 	lsl.w	lr, r7, lr
   d88aa:	40cb      	lsrs	r3, r1
   d88ac:	40cf      	lsrs	r7, r1
   d88ae:	ea4e 0303 	orr.w	r3, lr, r3
   d88b2:	e885 0088 	stmia.w	r5, {r3, r7}
   d88b6:	2100      	movs	r1, #0
   d88b8:	e8bd 87f0 	ldmia.w	sp!, {r4, r5, r6, r7, r8, r9, sl, pc}
   d88bc:	4613      	mov	r3, r2
   d88be:	e6f8      	b.n	d86b2 <__udivmoddi4+0x96>
   d88c0:	4610      	mov	r0, r2
   d88c2:	e6e0      	b.n	d8686 <__udivmoddi4+0x6a>
   d88c4:	ebb8 0402 	subs.w	r4, r8, r2
   d88c8:	eb69 0603 	sbc.w	r6, r9, r3
   d88cc:	3801      	subs	r0, #1
   d88ce:	e7e5      	b.n	d889c <__udivmoddi4+0x280>
   d88d0:	4604      	mov	r4, r0
   d88d2:	e7d8      	b.n	d8886 <__udivmoddi4+0x26a>
   d88d4:	4611      	mov	r1, r2
   d88d6:	e795      	b.n	d8804 <__udivmoddi4+0x1e8>
   d88d8:	4681      	mov	r9, r0
   d88da:	e7c0      	b.n	d885e <__udivmoddi4+0x242>
   d88dc:	468a      	mov	sl, r1
   d88de:	e77c      	b.n	d87da <__udivmoddi4+0x1be>
   d88e0:	3b02      	subs	r3, #2
   d88e2:	443c      	add	r4, r7
   d88e4:	e748      	b.n	d8778 <__udivmoddi4+0x15c>
   d88e6:	4608      	mov	r0, r1
   d88e8:	e70a      	b.n	d8700 <__udivmoddi4+0xe4>
   d88ea:	3802      	subs	r0, #2
   d88ec:	443e      	add	r6, r7
   d88ee:	e72f      	b.n	d8750 <__udivmoddi4+0x134>
   d88f0:	45c2      	cmp	sl, r8
   d88f2:	d3e7      	bcc.n	d88c4 <__udivmoddi4+0x2a8>
   d88f4:	463e      	mov	r6, r7
   d88f6:	e7d1      	b.n	d889c <__udivmoddi4+0x280>
   d88f8:	4629      	mov	r1, r5
   d88fa:	e8bd 87f0 	ldmia.w	sp!, {r4, r5, r6, r7, r8, r9, sl, pc}
   d88fe:	bf00      	nop

000d8900 <__aeabi_idiv0>:
   d8900:	4770      	bx	lr
   d8902:	bf00      	nop

000d8904 <atof>:
   d8904:	2100      	movs	r1, #0
   d8906:	f000 bfc7 	b.w	d9898 <strtod>

000d890a <atoi>:
   d890a:	220a      	movs	r2, #10
   d890c:	2100      	movs	r1, #0
   d890e:	f001 b851 	b.w	d99b4 <strtol>
	...

000d8914 <__cxa_atexit>:
   d8914:	b510      	push	{r4, lr}
   d8916:	4c05      	ldr	r4, [pc, #20]	; (d892c <__cxa_atexit+0x18>)
   d8918:	4613      	mov	r3, r2
   d891a:	b12c      	cbz	r4, d8928 <__cxa_atexit+0x14>
   d891c:	460a      	mov	r2, r1
   d891e:	4601      	mov	r1, r0
   d8920:	2002      	movs	r0, #2
   d8922:	f3af 8000 	nop.w
   d8926:	bd10      	pop	{r4, pc}
   d8928:	4620      	mov	r0, r4
   d892a:	bd10      	pop	{r4, pc}
   d892c:	00000000 	.word	0x00000000

000d8930 <localtime>:
   d8930:	b538      	push	{r3, r4, r5, lr}
   d8932:	4b07      	ldr	r3, [pc, #28]	; (d8950 <localtime+0x20>)
   d8934:	681c      	ldr	r4, [r3, #0]
   d8936:	6be3      	ldr	r3, [r4, #60]	; 0x3c
   d8938:	4605      	mov	r5, r0
   d893a:	b91b      	cbnz	r3, d8944 <localtime+0x14>
   d893c:	2024      	movs	r0, #36	; 0x24
   d893e:	f7fd fc6d 	bl	d621c <malloc>
   d8942:	63e0      	str	r0, [r4, #60]	; 0x3c
   d8944:	6be1      	ldr	r1, [r4, #60]	; 0x3c
   d8946:	4628      	mov	r0, r5
   d8948:	e8bd 4038 	ldmia.w	sp!, {r3, r4, r5, lr}
   d894c:	f000 b802 	b.w	d8954 <localtime_r>
   d8950:	2003e0a4 	.word	0x2003e0a4

000d8954 <localtime_r>:
   d8954:	e92d 41f0 	stmdb	sp!, {r4, r5, r6, r7, r8, lr}
   d8958:	460c      	mov	r4, r1
   d895a:	4680      	mov	r8, r0
   d895c:	f001 fe4e 	bl	da5fc <__gettzinfo>
   d8960:	4621      	mov	r1, r4
   d8962:	4607      	mov	r7, r0
   d8964:	4640      	mov	r0, r8
   d8966:	f001 fe4d 	bl	da604 <gmtime_r>
   d896a:	6946      	ldr	r6, [r0, #20]
   d896c:	f206 766c 	addw	r6, r6, #1900	; 0x76c
   d8970:	07b3      	lsls	r3, r6, #30
   d8972:	4604      	mov	r4, r0
   d8974:	d105      	bne.n	d8982 <localtime_r+0x2e>
   d8976:	2264      	movs	r2, #100	; 0x64
   d8978:	fb96 f3f2 	sdiv	r3, r6, r2
   d897c:	fb02 6313 	mls	r3, r2, r3, r6
   d8980:	b94b      	cbnz	r3, d8996 <localtime_r+0x42>
   d8982:	f44f 75c8 	mov.w	r5, #400	; 0x190
   d8986:	fb96 f3f5 	sdiv	r3, r6, r5
   d898a:	fb05 6513 	mls	r5, r5, r3, r6
   d898e:	fab5 f385 	clz	r3, r5
   d8992:	095b      	lsrs	r3, r3, #5
   d8994:	e000      	b.n	d8998 <localtime_r+0x44>
   d8996:	2301      	movs	r3, #1
   d8998:	4a5f      	ldr	r2, [pc, #380]	; (d8b18 <localtime_r+0x1c4>)
   d899a:	2530      	movs	r5, #48	; 0x30
   d899c:	fb05 2503 	mla	r5, r5, r3, r2
   d89a0:	f001 f942 	bl	d9c28 <__tz_lock>
   d89a4:	f001 f942 	bl	d9c2c <_tzset_unlocked>
   d89a8:	4b5c      	ldr	r3, [pc, #368]	; (d8b1c <localtime_r+0x1c8>)
   d89aa:	681b      	ldr	r3, [r3, #0]
   d89ac:	b1f3      	cbz	r3, d89ec <localtime_r+0x98>
   d89ae:	687b      	ldr	r3, [r7, #4]
   d89b0:	429e      	cmp	r6, r3
   d89b2:	d105      	bne.n	d89c0 <localtime_r+0x6c>
   d89b4:	6839      	ldr	r1, [r7, #0]
   d89b6:	f8d8 3000 	ldr.w	r3, [r8]
   d89ba:	69fa      	ldr	r2, [r7, #28]
   d89bc:	b941      	cbnz	r1, d89d0 <localtime_r+0x7c>
   d89be:	e00a      	b.n	d89d6 <localtime_r+0x82>
   d89c0:	4630      	mov	r0, r6
   d89c2:	f001 f889 	bl	d9ad8 <__tzcalc_limits>
   d89c6:	2800      	cmp	r0, #0
   d89c8:	d1f4      	bne.n	d89b4 <localtime_r+0x60>
   d89ca:	f04f 33ff 	mov.w	r3, #4294967295	; 0xffffffff
   d89ce:	e00d      	b.n	d89ec <localtime_r+0x98>
   d89d0:	4293      	cmp	r3, r2
   d89d2:	db08      	blt.n	d89e6 <localtime_r+0x92>
   d89d4:	e001      	b.n	d89da <localtime_r+0x86>
   d89d6:	4293      	cmp	r3, r2
   d89d8:	da07      	bge.n	d89ea <localtime_r+0x96>
   d89da:	6bba      	ldr	r2, [r7, #56]	; 0x38
   d89dc:	4293      	cmp	r3, r2
   d89de:	bfac      	ite	ge
   d89e0:	2300      	movge	r3, #0
   d89e2:	2301      	movlt	r3, #1
   d89e4:	e002      	b.n	d89ec <localtime_r+0x98>
   d89e6:	2300      	movs	r3, #0
   d89e8:	e000      	b.n	d89ec <localtime_r+0x98>
   d89ea:	2301      	movs	r3, #1
   d89ec:	6223      	str	r3, [r4, #32]
   d89ee:	6a23      	ldr	r3, [r4, #32]
   d89f0:	2b01      	cmp	r3, #1
   d89f2:	bf0c      	ite	eq
   d89f4:	6bf9      	ldreq	r1, [r7, #60]	; 0x3c
   d89f6:	6a39      	ldrne	r1, [r7, #32]
   d89f8:	f44f 6361 	mov.w	r3, #3600	; 0xe10
   d89fc:	203c      	movs	r0, #60	; 0x3c
   d89fe:	fb91 f6f3 	sdiv	r6, r1, r3
   d8a02:	fb03 1316 	mls	r3, r3, r6, r1
   d8a06:	6861      	ldr	r1, [r4, #4]
   d8a08:	fb93 f2f0 	sdiv	r2, r3, r0
   d8a0c:	fb00 3012 	mls	r0, r0, r2, r3
   d8a10:	6823      	ldr	r3, [r4, #0]
   d8a12:	1a89      	subs	r1, r1, r2
   d8a14:	68a2      	ldr	r2, [r4, #8]
   d8a16:	6061      	str	r1, [r4, #4]
   d8a18:	1a1b      	subs	r3, r3, r0
   d8a1a:	1b92      	subs	r2, r2, r6
   d8a1c:	2b3b      	cmp	r3, #59	; 0x3b
   d8a1e:	6023      	str	r3, [r4, #0]
   d8a20:	60a2      	str	r2, [r4, #8]
   d8a22:	dd03      	ble.n	d8a2c <localtime_r+0xd8>
   d8a24:	3101      	adds	r1, #1
   d8a26:	6061      	str	r1, [r4, #4]
   d8a28:	3b3c      	subs	r3, #60	; 0x3c
   d8a2a:	e004      	b.n	d8a36 <localtime_r+0xe2>
   d8a2c:	2b00      	cmp	r3, #0
   d8a2e:	da03      	bge.n	d8a38 <localtime_r+0xe4>
   d8a30:	3901      	subs	r1, #1
   d8a32:	6061      	str	r1, [r4, #4]
   d8a34:	333c      	adds	r3, #60	; 0x3c
   d8a36:	6023      	str	r3, [r4, #0]
   d8a38:	6863      	ldr	r3, [r4, #4]
   d8a3a:	2b3b      	cmp	r3, #59	; 0x3b
   d8a3c:	dd03      	ble.n	d8a46 <localtime_r+0xf2>
   d8a3e:	3201      	adds	r2, #1
   d8a40:	60a2      	str	r2, [r4, #8]
   d8a42:	3b3c      	subs	r3, #60	; 0x3c
   d8a44:	e004      	b.n	d8a50 <localtime_r+0xfc>
   d8a46:	2b00      	cmp	r3, #0
   d8a48:	da03      	bge.n	d8a52 <localtime_r+0xfe>
   d8a4a:	3a01      	subs	r2, #1
   d8a4c:	60a2      	str	r2, [r4, #8]
   d8a4e:	333c      	adds	r3, #60	; 0x3c
   d8a50:	6063      	str	r3, [r4, #4]
   d8a52:	68a3      	ldr	r3, [r4, #8]
   d8a54:	2b17      	cmp	r3, #23
   d8a56:	dd22      	ble.n	d8a9e <localtime_r+0x14a>
   d8a58:	69e2      	ldr	r2, [r4, #28]
   d8a5a:	3201      	adds	r2, #1
   d8a5c:	61e2      	str	r2, [r4, #28]
   d8a5e:	69a2      	ldr	r2, [r4, #24]
   d8a60:	3201      	adds	r2, #1
   d8a62:	2a06      	cmp	r2, #6
   d8a64:	bfc8      	it	gt
   d8a66:	2200      	movgt	r2, #0
   d8a68:	61a2      	str	r2, [r4, #24]
   d8a6a:	68e2      	ldr	r2, [r4, #12]
   d8a6c:	3b18      	subs	r3, #24
   d8a6e:	3201      	adds	r2, #1
   d8a70:	60a3      	str	r3, [r4, #8]
   d8a72:	6923      	ldr	r3, [r4, #16]
   d8a74:	60e2      	str	r2, [r4, #12]
   d8a76:	f855 1023 	ldr.w	r1, [r5, r3, lsl #2]
   d8a7a:	428a      	cmp	r2, r1
   d8a7c:	dd46      	ble.n	d8b0c <localtime_r+0x1b8>
   d8a7e:	3301      	adds	r3, #1
   d8a80:	2b0c      	cmp	r3, #12
   d8a82:	bf0c      	ite	eq
   d8a84:	6963      	ldreq	r3, [r4, #20]
   d8a86:	6123      	strne	r3, [r4, #16]
   d8a88:	eba2 0201 	sub.w	r2, r2, r1
   d8a8c:	60e2      	str	r2, [r4, #12]
   d8a8e:	bf01      	itttt	eq
   d8a90:	3301      	addeq	r3, #1
   d8a92:	2200      	moveq	r2, #0
   d8a94:	6122      	streq	r2, [r4, #16]
   d8a96:	6163      	streq	r3, [r4, #20]
   d8a98:	bf08      	it	eq
   d8a9a:	61e2      	streq	r2, [r4, #28]
   d8a9c:	e036      	b.n	d8b0c <localtime_r+0x1b8>
   d8a9e:	2b00      	cmp	r3, #0
   d8aa0:	da34      	bge.n	d8b0c <localtime_r+0x1b8>
   d8aa2:	69e2      	ldr	r2, [r4, #28]
   d8aa4:	3a01      	subs	r2, #1
   d8aa6:	61e2      	str	r2, [r4, #28]
   d8aa8:	69a2      	ldr	r2, [r4, #24]
   d8aaa:	3a01      	subs	r2, #1
   d8aac:	bf48      	it	mi
   d8aae:	2206      	movmi	r2, #6
   d8ab0:	61a2      	str	r2, [r4, #24]
   d8ab2:	68e2      	ldr	r2, [r4, #12]
   d8ab4:	3318      	adds	r3, #24
   d8ab6:	3a01      	subs	r2, #1
   d8ab8:	60e2      	str	r2, [r4, #12]
   d8aba:	60a3      	str	r3, [r4, #8]
   d8abc:	bb32      	cbnz	r2, d8b0c <localtime_r+0x1b8>
   d8abe:	6923      	ldr	r3, [r4, #16]
   d8ac0:	3b01      	subs	r3, #1
   d8ac2:	d401      	bmi.n	d8ac8 <localtime_r+0x174>
   d8ac4:	6123      	str	r3, [r4, #16]
   d8ac6:	e01d      	b.n	d8b04 <localtime_r+0x1b0>
   d8ac8:	230b      	movs	r3, #11
   d8aca:	6123      	str	r3, [r4, #16]
   d8acc:	6963      	ldr	r3, [r4, #20]
   d8ace:	1e5a      	subs	r2, r3, #1
   d8ad0:	f012 0f03 	tst.w	r2, #3
   d8ad4:	6162      	str	r2, [r4, #20]
   d8ad6:	f203 736b 	addw	r3, r3, #1899	; 0x76b
   d8ada:	d105      	bne.n	d8ae8 <localtime_r+0x194>
   d8adc:	2164      	movs	r1, #100	; 0x64
   d8ade:	fb93 f2f1 	sdiv	r2, r3, r1
   d8ae2:	fb01 3212 	mls	r2, r1, r2, r3
   d8ae6:	b94a      	cbnz	r2, d8afc <localtime_r+0x1a8>
   d8ae8:	f44f 71c8 	mov.w	r1, #400	; 0x190
   d8aec:	fb93 f2f1 	sdiv	r2, r3, r1
   d8af0:	fb01 3312 	mls	r3, r1, r2, r3
   d8af4:	fab3 f383 	clz	r3, r3
   d8af8:	095b      	lsrs	r3, r3, #5
   d8afa:	e000      	b.n	d8afe <localtime_r+0x1aa>
   d8afc:	2301      	movs	r3, #1
   d8afe:	f503 73b6 	add.w	r3, r3, #364	; 0x16c
   d8b02:	61e3      	str	r3, [r4, #28]
   d8b04:	6923      	ldr	r3, [r4, #16]
   d8b06:	f855 3023 	ldr.w	r3, [r5, r3, lsl #2]
   d8b0a:	60e3      	str	r3, [r4, #12]
   d8b0c:	f001 f88d 	bl	d9c2a <__tz_unlock>
   d8b10:	4620      	mov	r0, r4
   d8b12:	e8bd 81f0 	ldmia.w	sp!, {r4, r5, r6, r7, r8, pc}
   d8b16:	bf00      	nop
   d8b18:	000db75c 	.word	0x000db75c
   d8b1c:	2003e7e8 	.word	0x2003e7e8

000d8b20 <_localeconv_r>:
   d8b20:	4800      	ldr	r0, [pc, #0]	; (d8b24 <_localeconv_r+0x4>)
   d8b22:	4770      	bx	lr
   d8b24:	2003e0a8 	.word	0x2003e0a8

000d8b28 <memcpy>:
   d8b28:	b510      	push	{r4, lr}
   d8b2a:	1e43      	subs	r3, r0, #1
   d8b2c:	440a      	add	r2, r1
   d8b2e:	4291      	cmp	r1, r2
   d8b30:	d004      	beq.n	d8b3c <memcpy+0x14>
   d8b32:	f811 4b01 	ldrb.w	r4, [r1], #1
   d8b36:	f803 4f01 	strb.w	r4, [r3, #1]!
   d8b3a:	e7f8      	b.n	d8b2e <memcpy+0x6>
   d8b3c:	bd10      	pop	{r4, pc}

000d8b3e <memset>:
   d8b3e:	4402      	add	r2, r0
   d8b40:	4603      	mov	r3, r0
   d8b42:	4293      	cmp	r3, r2
   d8b44:	d002      	beq.n	d8b4c <memset+0xe>
   d8b46:	f803 1b01 	strb.w	r1, [r3], #1
   d8b4a:	e7fa      	b.n	d8b42 <memset+0x4>
   d8b4c:	4770      	bx	lr
	...

000d8b50 <srand>:
   d8b50:	b538      	push	{r3, r4, r5, lr}
   d8b52:	4b12      	ldr	r3, [pc, #72]	; (d8b9c <srand+0x4c>)
   d8b54:	681c      	ldr	r4, [r3, #0]
   d8b56:	6ba3      	ldr	r3, [r4, #56]	; 0x38
   d8b58:	4605      	mov	r5, r0
   d8b5a:	b9d3      	cbnz	r3, d8b92 <srand+0x42>
   d8b5c:	2018      	movs	r0, #24
   d8b5e:	f7fd fb5d 	bl	d621c <malloc>
   d8b62:	f243 330e 	movw	r3, #13070	; 0x330e
   d8b66:	63a0      	str	r0, [r4, #56]	; 0x38
   d8b68:	8003      	strh	r3, [r0, #0]
   d8b6a:	f64a 33cd 	movw	r3, #43981	; 0xabcd
   d8b6e:	8043      	strh	r3, [r0, #2]
   d8b70:	f241 2334 	movw	r3, #4660	; 0x1234
   d8b74:	8083      	strh	r3, [r0, #4]
   d8b76:	f24e 636d 	movw	r3, #58989	; 0xe66d
   d8b7a:	80c3      	strh	r3, [r0, #6]
   d8b7c:	f64d 63ec 	movw	r3, #57068	; 0xdeec
   d8b80:	8103      	strh	r3, [r0, #8]
   d8b82:	2305      	movs	r3, #5
   d8b84:	8143      	strh	r3, [r0, #10]
   d8b86:	230b      	movs	r3, #11
   d8b88:	8183      	strh	r3, [r0, #12]
   d8b8a:	2201      	movs	r2, #1
   d8b8c:	2300      	movs	r3, #0
   d8b8e:	e9c0 2304 	strd	r2, r3, [r0, #16]
   d8b92:	6ba3      	ldr	r3, [r4, #56]	; 0x38
   d8b94:	2200      	movs	r2, #0
   d8b96:	611d      	str	r5, [r3, #16]
   d8b98:	615a      	str	r2, [r3, #20]
   d8b9a:	bd38      	pop	{r3, r4, r5, pc}
   d8b9c:	2003e0a4 	.word	0x2003e0a4

000d8ba0 <strcmp>:
   d8ba0:	f810 2b01 	ldrb.w	r2, [r0], #1
   d8ba4:	f811 3b01 	ldrb.w	r3, [r1], #1
   d8ba8:	2a01      	cmp	r2, #1
   d8baa:	bf28      	it	cs
   d8bac:	429a      	cmpcs	r2, r3
   d8bae:	d0f7      	beq.n	d8ba0 <strcmp>
   d8bb0:	1ad0      	subs	r0, r2, r3
   d8bb2:	4770      	bx	lr

000d8bb4 <strcpy>:
   d8bb4:	4603      	mov	r3, r0
   d8bb6:	f811 2b01 	ldrb.w	r2, [r1], #1
   d8bba:	f803 2b01 	strb.w	r2, [r3], #1
   d8bbe:	2a00      	cmp	r2, #0
   d8bc0:	d1f9      	bne.n	d8bb6 <strcpy+0x2>
   d8bc2:	4770      	bx	lr

000d8bc4 <strdup>:
   d8bc4:	4b02      	ldr	r3, [pc, #8]	; (d8bd0 <strdup+0xc>)
   d8bc6:	4601      	mov	r1, r0
   d8bc8:	6818      	ldr	r0, [r3, #0]
   d8bca:	f000 b803 	b.w	d8bd4 <_strdup_r>
   d8bce:	bf00      	nop
   d8bd0:	2003e0a4 	.word	0x2003e0a4

000d8bd4 <_strdup_r>:
   d8bd4:	b570      	push	{r4, r5, r6, lr}
   d8bd6:	4606      	mov	r6, r0
   d8bd8:	4608      	mov	r0, r1
   d8bda:	460c      	mov	r4, r1
   d8bdc:	f000 f80d 	bl	d8bfa <strlen>
   d8be0:	1c45      	adds	r5, r0, #1
   d8be2:	4629      	mov	r1, r5
   d8be4:	4630      	mov	r0, r6
   d8be6:	f7fd fb49 	bl	d627c <_malloc_r>
   d8bea:	4606      	mov	r6, r0
   d8bec:	b118      	cbz	r0, d8bf6 <_strdup_r+0x22>
   d8bee:	462a      	mov	r2, r5
   d8bf0:	4621      	mov	r1, r4
   d8bf2:	f7ff ff99 	bl	d8b28 <memcpy>
   d8bf6:	4630      	mov	r0, r6
   d8bf8:	bd70      	pop	{r4, r5, r6, pc}

000d8bfa <strlen>:
   d8bfa:	4603      	mov	r3, r0
   d8bfc:	f813 2b01 	ldrb.w	r2, [r3], #1
   d8c00:	2a00      	cmp	r2, #0
   d8c02:	d1fb      	bne.n	d8bfc <strlen+0x2>
   d8c04:	1a18      	subs	r0, r3, r0
   d8c06:	3801      	subs	r0, #1
   d8c08:	4770      	bx	lr

000d8c0a <strncmp>:
   d8c0a:	b530      	push	{r4, r5, lr}
   d8c0c:	b182      	cbz	r2, d8c30 <strncmp+0x26>
   d8c0e:	1e45      	subs	r5, r0, #1
   d8c10:	3901      	subs	r1, #1
   d8c12:	f815 3f01 	ldrb.w	r3, [r5, #1]!
   d8c16:	f811 4f01 	ldrb.w	r4, [r1, #1]!
   d8c1a:	42a3      	cmp	r3, r4
   d8c1c:	d106      	bne.n	d8c2c <strncmp+0x22>
   d8c1e:	43ec      	mvns	r4, r5
   d8c20:	4414      	add	r4, r2
   d8c22:	42e0      	cmn	r0, r4
   d8c24:	d001      	beq.n	d8c2a <strncmp+0x20>
   d8c26:	2b00      	cmp	r3, #0
   d8c28:	d1f3      	bne.n	d8c12 <strncmp+0x8>
   d8c2a:	461c      	mov	r4, r3
   d8c2c:	1b18      	subs	r0, r3, r4
   d8c2e:	bd30      	pop	{r4, r5, pc}
   d8c30:	4610      	mov	r0, r2
   d8c32:	bd30      	pop	{r4, r5, pc}

000d8c34 <strncpy>:
   d8c34:	b510      	push	{r4, lr}
   d8c36:	4603      	mov	r3, r0
   d8c38:	b142      	cbz	r2, d8c4c <strncpy+0x18>
   d8c3a:	f811 4b01 	ldrb.w	r4, [r1], #1
   d8c3e:	f803 4b01 	strb.w	r4, [r3], #1
   d8c42:	3a01      	subs	r2, #1
   d8c44:	2c00      	cmp	r4, #0
   d8c46:	d1f7      	bne.n	d8c38 <strncpy+0x4>
   d8c48:	441a      	add	r2, r3
   d8c4a:	e000      	b.n	d8c4e <strncpy+0x1a>
   d8c4c:	bd10      	pop	{r4, pc}
   d8c4e:	4293      	cmp	r3, r2
   d8c50:	d002      	beq.n	d8c58 <strncpy+0x24>
   d8c52:	f803 4b01 	strb.w	r4, [r3], #1
   d8c56:	e7fa      	b.n	d8c4e <strncpy+0x1a>
   d8c58:	bd10      	pop	{r4, pc}

000d8c5a <sulp>:
   d8c5a:	b570      	push	{r4, r5, r6, lr}
   d8c5c:	4604      	mov	r4, r0
   d8c5e:	460d      	mov	r5, r1
   d8c60:	ec45 4b10 	vmov	d0, r4, r5
   d8c64:	4616      	mov	r6, r2
   d8c66:	f002 f82b 	bl	dacc0 <__ulp>
   d8c6a:	ec51 0b10 	vmov	r0, r1, d0
   d8c6e:	b17e      	cbz	r6, d8c90 <sulp+0x36>
   d8c70:	f3c5 530a 	ubfx	r3, r5, #20, #11
   d8c74:	f1c3 036b 	rsb	r3, r3, #107	; 0x6b
   d8c78:	2b00      	cmp	r3, #0
   d8c7a:	dd09      	ble.n	d8c90 <sulp+0x36>
   d8c7c:	051b      	lsls	r3, r3, #20
   d8c7e:	f103 557f 	add.w	r5, r3, #1069547520	; 0x3fc00000
   d8c82:	2400      	movs	r4, #0
   d8c84:	f505 1540 	add.w	r5, r5, #3145728	; 0x300000
   d8c88:	4622      	mov	r2, r4
   d8c8a:	462b      	mov	r3, r5
   d8c8c:	f7ff f944 	bl	d7f18 <__aeabi_dmul>
   d8c90:	bd70      	pop	{r4, r5, r6, pc}
   d8c92:	0000      	movs	r0, r0
   d8c94:	0000      	movs	r0, r0
	...

000d8c98 <_strtod_r>:
   d8c98:	e92d 4ff0 	stmdb	sp!, {r4, r5, r6, r7, r8, r9, sl, fp, lr}
   d8c9c:	b09d      	sub	sp, #116	; 0x74
   d8c9e:	2300      	movs	r3, #0
   d8ca0:	9002      	str	r0, [sp, #8]
   d8ca2:	460c      	mov	r4, r1
   d8ca4:	9213      	str	r2, [sp, #76]	; 0x4c
   d8ca6:	9318      	str	r3, [sp, #96]	; 0x60
   d8ca8:	f04f 0a00 	mov.w	sl, #0
   d8cac:	f04f 0b00 	mov.w	fp, #0
   d8cb0:	9117      	str	r1, [sp, #92]	; 0x5c
   d8cb2:	9b17      	ldr	r3, [sp, #92]	; 0x5c
   d8cb4:	781a      	ldrb	r2, [r3, #0]
   d8cb6:	2a0d      	cmp	r2, #13
   d8cb8:	d805      	bhi.n	d8cc6 <_strtod_r+0x2e>
   d8cba:	2a09      	cmp	r2, #9
   d8cbc:	d213      	bcs.n	d8ce6 <_strtod_r+0x4e>
   d8cbe:	2a00      	cmp	r2, #0
   d8cc0:	f000 81ac 	beq.w	d901c <_strtod_r+0x384>
   d8cc4:	e012      	b.n	d8cec <_strtod_r+0x54>
   d8cc6:	2a2b      	cmp	r2, #43	; 0x2b
   d8cc8:	d004      	beq.n	d8cd4 <_strtod_r+0x3c>
   d8cca:	2a2d      	cmp	r2, #45	; 0x2d
   d8ccc:	d004      	beq.n	d8cd8 <_strtod_r+0x40>
   d8cce:	2a20      	cmp	r2, #32
   d8cd0:	d10c      	bne.n	d8cec <_strtod_r+0x54>
   d8cd2:	e008      	b.n	d8ce6 <_strtod_r+0x4e>
   d8cd4:	2200      	movs	r2, #0
   d8cd6:	e000      	b.n	d8cda <_strtod_r+0x42>
   d8cd8:	2201      	movs	r2, #1
   d8cda:	920c      	str	r2, [sp, #48]	; 0x30
   d8cdc:	1c5a      	adds	r2, r3, #1
   d8cde:	9217      	str	r2, [sp, #92]	; 0x5c
   d8ce0:	785b      	ldrb	r3, [r3, #1]
   d8ce2:	b92b      	cbnz	r3, d8cf0 <_strtod_r+0x58>
   d8ce4:	e19a      	b.n	d901c <_strtod_r+0x384>
   d8ce6:	3301      	adds	r3, #1
   d8ce8:	9317      	str	r3, [sp, #92]	; 0x5c
   d8cea:	e7e2      	b.n	d8cb2 <_strtod_r+0x1a>
   d8cec:	2300      	movs	r3, #0
   d8cee:	930c      	str	r3, [sp, #48]	; 0x30
   d8cf0:	9d17      	ldr	r5, [sp, #92]	; 0x5c
   d8cf2:	782b      	ldrb	r3, [r5, #0]
   d8cf4:	2b30      	cmp	r3, #48	; 0x30
   d8cf6:	d15c      	bne.n	d8db2 <_strtod_r+0x11a>
   d8cf8:	786b      	ldrb	r3, [r5, #1]
   d8cfa:	2b58      	cmp	r3, #88	; 0x58
   d8cfc:	d001      	beq.n	d8d02 <_strtod_r+0x6a>
   d8cfe:	2b78      	cmp	r3, #120	; 0x78
   d8d00:	d14c      	bne.n	d8d9c <_strtod_r+0x104>
   d8d02:	9b0c      	ldr	r3, [sp, #48]	; 0x30
   d8d04:	9301      	str	r3, [sp, #4]
   d8d06:	ab18      	add	r3, sp, #96	; 0x60
   d8d08:	9300      	str	r3, [sp, #0]
   d8d0a:	4aa9      	ldr	r2, [pc, #676]	; (d8fb0 <_strtod_r+0x318>)
   d8d0c:	9802      	ldr	r0, [sp, #8]
   d8d0e:	ab19      	add	r3, sp, #100	; 0x64
   d8d10:	a917      	add	r1, sp, #92	; 0x5c
   d8d12:	f001 f95c 	bl	d9fce <__gethex>
   d8d16:	f010 0607 	ands.w	r6, r0, #7
   d8d1a:	4604      	mov	r4, r0
   d8d1c:	f000 8587 	beq.w	d982e <_strtod_r+0xb96>
   d8d20:	2e06      	cmp	r6, #6
   d8d22:	d105      	bne.n	d8d30 <_strtod_r+0x98>
   d8d24:	3501      	adds	r5, #1
   d8d26:	2300      	movs	r3, #0
   d8d28:	9517      	str	r5, [sp, #92]	; 0x5c
   d8d2a:	930c      	str	r3, [sp, #48]	; 0x30
   d8d2c:	f000 bd7f 	b.w	d982e <_strtod_r+0xb96>
   d8d30:	9a18      	ldr	r2, [sp, #96]	; 0x60
   d8d32:	b13a      	cbz	r2, d8d44 <_strtod_r+0xac>
   d8d34:	2135      	movs	r1, #53	; 0x35
   d8d36:	a81a      	add	r0, sp, #104	; 0x68
   d8d38:	f002 f8af 	bl	dae9a <__copybits>
   d8d3c:	9918      	ldr	r1, [sp, #96]	; 0x60
   d8d3e:	9802      	ldr	r0, [sp, #8]
   d8d40:	f001 fd2d 	bl	da79e <_Bfree>
   d8d44:	2e06      	cmp	r6, #6
   d8d46:	d822      	bhi.n	d8d8e <_strtod_r+0xf6>
   d8d48:	e8df f006 	tbb	[pc, r6]
   d8d4c:	18080d04 	.word	0x18080d04
   d8d50:	0d1d      	.short	0x0d1d
   d8d52:	04          	.byte	0x04
   d8d53:	00          	.byte	0x00
   d8d54:	f04f 0b00 	mov.w	fp, #0
   d8d58:	46da      	mov	sl, fp
   d8d5a:	e018      	b.n	d8d8e <_strtod_r+0xf6>
   d8d5c:	f8dd a068 	ldr.w	sl, [sp, #104]	; 0x68
   d8d60:	f8dd b06c 	ldr.w	fp, [sp, #108]	; 0x6c
   d8d64:	e013      	b.n	d8d8e <_strtod_r+0xf6>
   d8d66:	9b1b      	ldr	r3, [sp, #108]	; 0x6c
   d8d68:	9a19      	ldr	r2, [sp, #100]	; 0x64
   d8d6a:	f8dd a068 	ldr.w	sl, [sp, #104]	; 0x68
   d8d6e:	f423 1380 	bic.w	r3, r3, #1048576	; 0x100000
   d8d72:	f202 4233 	addw	r2, r2, #1075	; 0x433
   d8d76:	ea43 5b02 	orr.w	fp, r3, r2, lsl #20
   d8d7a:	e008      	b.n	d8d8e <_strtod_r+0xf6>
   d8d7c:	f8df b234 	ldr.w	fp, [pc, #564]	; d8fb4 <_strtod_r+0x31c>
   d8d80:	f04f 0a00 	mov.w	sl, #0
   d8d84:	e003      	b.n	d8d8e <_strtod_r+0xf6>
   d8d86:	f06f 4b00 	mvn.w	fp, #2147483648	; 0x80000000
   d8d8a:	f04f 3aff 	mov.w	sl, #4294967295	; 0xffffffff
   d8d8e:	0721      	lsls	r1, r4, #28
   d8d90:	f140 854d 	bpl.w	d982e <_strtod_r+0xb96>
   d8d94:	f04b 4b00 	orr.w	fp, fp, #2147483648	; 0x80000000
   d8d98:	f000 bd49 	b.w	d982e <_strtod_r+0xb96>
   d8d9c:	9b17      	ldr	r3, [sp, #92]	; 0x5c
   d8d9e:	1c5a      	adds	r2, r3, #1
   d8da0:	9217      	str	r2, [sp, #92]	; 0x5c
   d8da2:	785b      	ldrb	r3, [r3, #1]
   d8da4:	2b30      	cmp	r3, #48	; 0x30
   d8da6:	d0f9      	beq.n	d8d9c <_strtod_r+0x104>
   d8da8:	2b00      	cmp	r3, #0
   d8daa:	f000 8540 	beq.w	d982e <_strtod_r+0xb96>
   d8dae:	2301      	movs	r3, #1
   d8db0:	e000      	b.n	d8db4 <_strtod_r+0x11c>
   d8db2:	2300      	movs	r3, #0
   d8db4:	f04f 0800 	mov.w	r8, #0
   d8db8:	9306      	str	r3, [sp, #24]
   d8dba:	9b17      	ldr	r3, [sp, #92]	; 0x5c
   d8dbc:	9307      	str	r3, [sp, #28]
   d8dbe:	f8cd 8014 	str.w	r8, [sp, #20]
   d8dc2:	f8cd 8010 	str.w	r8, [sp, #16]
   d8dc6:	220a      	movs	r2, #10
   d8dc8:	9d17      	ldr	r5, [sp, #92]	; 0x5c
   d8dca:	782e      	ldrb	r6, [r5, #0]
   d8dcc:	f1a6 0330 	sub.w	r3, r6, #48	; 0x30
   d8dd0:	b2d9      	uxtb	r1, r3
   d8dd2:	2909      	cmp	r1, #9
   d8dd4:	d80e      	bhi.n	d8df4 <_strtod_r+0x15c>
   d8dd6:	9904      	ldr	r1, [sp, #16]
   d8dd8:	2908      	cmp	r1, #8
   d8dda:	bfdd      	ittte	le
   d8ddc:	9905      	ldrle	r1, [sp, #20]
   d8dde:	fb02 3301 	mlale	r3, r2, r1, r3
   d8de2:	9305      	strle	r3, [sp, #20]
   d8de4:	fb02 3808 	mlagt	r8, r2, r8, r3
   d8de8:	9b04      	ldr	r3, [sp, #16]
   d8dea:	3501      	adds	r5, #1
   d8dec:	3301      	adds	r3, #1
   d8dee:	9304      	str	r3, [sp, #16]
   d8df0:	9517      	str	r5, [sp, #92]	; 0x5c
   d8df2:	e7e9      	b.n	d8dc8 <_strtod_r+0x130>
   d8df4:	9802      	ldr	r0, [sp, #8]
   d8df6:	f7ff fe93 	bl	d8b20 <_localeconv_r>
   d8dfa:	6807      	ldr	r7, [r0, #0]
   d8dfc:	9802      	ldr	r0, [sp, #8]
   d8dfe:	f7ff fe8f 	bl	d8b20 <_localeconv_r>
   d8e02:	6800      	ldr	r0, [r0, #0]
   d8e04:	f7ff fef9 	bl	d8bfa <strlen>
   d8e08:	4639      	mov	r1, r7
   d8e0a:	4602      	mov	r2, r0
   d8e0c:	4628      	mov	r0, r5
   d8e0e:	f7ff fefc 	bl	d8c0a <strncmp>
   d8e12:	4607      	mov	r7, r0
   d8e14:	b128      	cbz	r0, d8e22 <_strtod_r+0x18a>
   d8e16:	2000      	movs	r0, #0
   d8e18:	4633      	mov	r3, r6
   d8e1a:	9d04      	ldr	r5, [sp, #16]
   d8e1c:	4602      	mov	r2, r0
   d8e1e:	4601      	mov	r1, r0
   d8e20:	e057      	b.n	d8ed2 <_strtod_r+0x23a>
   d8e22:	9802      	ldr	r0, [sp, #8]
   d8e24:	f7ff fe7c 	bl	d8b20 <_localeconv_r>
   d8e28:	6800      	ldr	r0, [r0, #0]
   d8e2a:	f7ff fee6 	bl	d8bfa <strlen>
   d8e2e:	9b17      	ldr	r3, [sp, #92]	; 0x5c
   d8e30:	181a      	adds	r2, r3, r0
   d8e32:	9217      	str	r2, [sp, #92]	; 0x5c
   d8e34:	9a04      	ldr	r2, [sp, #16]
   d8e36:	5c1b      	ldrb	r3, [r3, r0]
   d8e38:	2a00      	cmp	r2, #0
   d8e3a:	d142      	bne.n	d8ec2 <_strtod_r+0x22a>
   d8e3c:	4610      	mov	r0, r2
   d8e3e:	2b30      	cmp	r3, #48	; 0x30
   d8e40:	d105      	bne.n	d8e4e <_strtod_r+0x1b6>
   d8e42:	9b17      	ldr	r3, [sp, #92]	; 0x5c
   d8e44:	1c5a      	adds	r2, r3, #1
   d8e46:	9217      	str	r2, [sp, #92]	; 0x5c
   d8e48:	3001      	adds	r0, #1
   d8e4a:	785b      	ldrb	r3, [r3, #1]
   d8e4c:	e7f7      	b.n	d8e3e <_strtod_r+0x1a6>
   d8e4e:	f1a3 0231 	sub.w	r2, r3, #49	; 0x31
   d8e52:	2a08      	cmp	r2, #8
   d8e54:	d843      	bhi.n	d8ede <_strtod_r+0x246>
   d8e56:	9a17      	ldr	r2, [sp, #92]	; 0x5c
   d8e58:	9207      	str	r2, [sp, #28]
   d8e5a:	4602      	mov	r2, r0
   d8e5c:	2000      	movs	r0, #0
   d8e5e:	4605      	mov	r5, r0
   d8e60:	3b30      	subs	r3, #48	; 0x30
   d8e62:	f100 0101 	add.w	r1, r0, #1
   d8e66:	d026      	beq.n	d8eb6 <_strtod_r+0x21e>
   d8e68:	440a      	add	r2, r1
   d8e6a:	eb05 0c00 	add.w	ip, r5, r0
   d8e6e:	4629      	mov	r1, r5
   d8e70:	260a      	movs	r6, #10
   d8e72:	4561      	cmp	r1, ip
   d8e74:	d00e      	beq.n	d8e94 <_strtod_r+0x1fc>
   d8e76:	3101      	adds	r1, #1
   d8e78:	f101 3eff 	add.w	lr, r1, #4294967295	; 0xffffffff
   d8e7c:	f1be 0f08 	cmp.w	lr, #8
   d8e80:	dc03      	bgt.n	d8e8a <_strtod_r+0x1f2>
   d8e82:	9f05      	ldr	r7, [sp, #20]
   d8e84:	4377      	muls	r7, r6
   d8e86:	9705      	str	r7, [sp, #20]
   d8e88:	e7f3      	b.n	d8e72 <_strtod_r+0x1da>
   d8e8a:	2910      	cmp	r1, #16
   d8e8c:	bfd8      	it	le
   d8e8e:	fb06 f808 	mulle.w	r8, r6, r8
   d8e92:	e7ee      	b.n	d8e72 <_strtod_r+0x1da>
   d8e94:	4428      	add	r0, r5
   d8e96:	2808      	cmp	r0, #8
   d8e98:	f100 0501 	add.w	r5, r0, #1
   d8e9c:	dc05      	bgt.n	d8eaa <_strtod_r+0x212>
   d8e9e:	9805      	ldr	r0, [sp, #20]
   d8ea0:	210a      	movs	r1, #10
   d8ea2:	fb01 3300 	mla	r3, r1, r0, r3
   d8ea6:	9305      	str	r3, [sp, #20]
   d8ea8:	e004      	b.n	d8eb4 <_strtod_r+0x21c>
   d8eaa:	2d10      	cmp	r5, #16
   d8eac:	bfdc      	itt	le
   d8eae:	210a      	movle	r1, #10
   d8eb0:	fb01 3808 	mlale	r8, r1, r8, r3
   d8eb4:	2100      	movs	r1, #0
   d8eb6:	9b17      	ldr	r3, [sp, #92]	; 0x5c
   d8eb8:	1c58      	adds	r0, r3, #1
   d8eba:	9017      	str	r0, [sp, #92]	; 0x5c
   d8ebc:	785b      	ldrb	r3, [r3, #1]
   d8ebe:	4608      	mov	r0, r1
   d8ec0:	e002      	b.n	d8ec8 <_strtod_r+0x230>
   d8ec2:	9d04      	ldr	r5, [sp, #16]
   d8ec4:	4638      	mov	r0, r7
   d8ec6:	463a      	mov	r2, r7
   d8ec8:	f1a3 0130 	sub.w	r1, r3, #48	; 0x30
   d8ecc:	2909      	cmp	r1, #9
   d8ece:	d9c7      	bls.n	d8e60 <_strtod_r+0x1c8>
   d8ed0:	2101      	movs	r1, #1
   d8ed2:	2b65      	cmp	r3, #101	; 0x65
   d8ed4:	d001      	beq.n	d8eda <_strtod_r+0x242>
   d8ed6:	2b45      	cmp	r3, #69	; 0x45
   d8ed8:	d151      	bne.n	d8f7e <_strtod_r+0x2e6>
   d8eda:	b96d      	cbnz	r5, d8ef8 <_strtod_r+0x260>
   d8edc:	e004      	b.n	d8ee8 <_strtod_r+0x250>
   d8ede:	2b65      	cmp	r3, #101	; 0x65
   d8ee0:	f040 84b3 	bne.w	d984a <_strtod_r+0xbb2>
   d8ee4:	2200      	movs	r2, #0
   d8ee6:	2101      	movs	r1, #1
   d8ee8:	b928      	cbnz	r0, d8ef6 <_strtod_r+0x25e>
   d8eea:	9b06      	ldr	r3, [sp, #24]
   d8eec:	2b00      	cmp	r3, #0
   d8eee:	f000 8095 	beq.w	d901c <_strtod_r+0x384>
   d8ef2:	4605      	mov	r5, r0
   d8ef4:	e000      	b.n	d8ef8 <_strtod_r+0x260>
   d8ef6:	2500      	movs	r5, #0
   d8ef8:	9c17      	ldr	r4, [sp, #92]	; 0x5c
   d8efa:	1c63      	adds	r3, r4, #1
   d8efc:	9317      	str	r3, [sp, #92]	; 0x5c
   d8efe:	7863      	ldrb	r3, [r4, #1]
   d8f00:	2b2b      	cmp	r3, #43	; 0x2b
   d8f02:	d006      	beq.n	d8f12 <_strtod_r+0x27a>
   d8f04:	2b2d      	cmp	r3, #45	; 0x2d
   d8f06:	d002      	beq.n	d8f0e <_strtod_r+0x276>
   d8f08:	2600      	movs	r6, #0
   d8f0a:	9603      	str	r6, [sp, #12]
   d8f0c:	e006      	b.n	d8f1c <_strtod_r+0x284>
   d8f0e:	2301      	movs	r3, #1
   d8f10:	e000      	b.n	d8f14 <_strtod_r+0x27c>
   d8f12:	2300      	movs	r3, #0
   d8f14:	9303      	str	r3, [sp, #12]
   d8f16:	1ca3      	adds	r3, r4, #2
   d8f18:	9317      	str	r3, [sp, #92]	; 0x5c
   d8f1a:	78a3      	ldrb	r3, [r4, #2]
   d8f1c:	f1a3 0630 	sub.w	r6, r3, #48	; 0x30
   d8f20:	2e09      	cmp	r6, #9
   d8f22:	d82b      	bhi.n	d8f7c <_strtod_r+0x2e4>
   d8f24:	2b30      	cmp	r3, #48	; 0x30
   d8f26:	d104      	bne.n	d8f32 <_strtod_r+0x29a>
   d8f28:	9b17      	ldr	r3, [sp, #92]	; 0x5c
   d8f2a:	1c5e      	adds	r6, r3, #1
   d8f2c:	9617      	str	r6, [sp, #92]	; 0x5c
   d8f2e:	785b      	ldrb	r3, [r3, #1]
   d8f30:	e7f8      	b.n	d8f24 <_strtod_r+0x28c>
   d8f32:	f1a3 0631 	sub.w	r6, r3, #49	; 0x31
   d8f36:	2e08      	cmp	r6, #8
   d8f38:	d821      	bhi.n	d8f7e <_strtod_r+0x2e6>
   d8f3a:	f1a3 0e30 	sub.w	lr, r3, #48	; 0x30
   d8f3e:	9b17      	ldr	r3, [sp, #92]	; 0x5c
   d8f40:	f04f 0c0a 	mov.w	ip, #10
   d8f44:	461f      	mov	r7, r3
   d8f46:	9b17      	ldr	r3, [sp, #92]	; 0x5c
   d8f48:	1c5e      	adds	r6, r3, #1
   d8f4a:	9617      	str	r6, [sp, #92]	; 0x5c
   d8f4c:	785b      	ldrb	r3, [r3, #1]
   d8f4e:	f1a3 0930 	sub.w	r9, r3, #48	; 0x30
   d8f52:	f1b9 0f09 	cmp.w	r9, #9
   d8f56:	d804      	bhi.n	d8f62 <_strtod_r+0x2ca>
   d8f58:	fb0c 3e0e 	mla	lr, ip, lr, r3
   d8f5c:	f1ae 0e30 	sub.w	lr, lr, #48	; 0x30
   d8f60:	e7f1      	b.n	d8f46 <_strtod_r+0x2ae>
   d8f62:	1bf6      	subs	r6, r6, r7
   d8f64:	2e08      	cmp	r6, #8
   d8f66:	f644 691f 	movw	r9, #19999	; 0x4e1f
   d8f6a:	dc02      	bgt.n	d8f72 <_strtod_r+0x2da>
   d8f6c:	45f1      	cmp	r9, lr
   d8f6e:	bfa8      	it	ge
   d8f70:	46f1      	movge	r9, lr
   d8f72:	9e03      	ldr	r6, [sp, #12]
   d8f74:	b12e      	cbz	r6, d8f82 <_strtod_r+0x2ea>
   d8f76:	f1c9 0900 	rsb	r9, r9, #0
   d8f7a:	e002      	b.n	d8f82 <_strtod_r+0x2ea>
   d8f7c:	9417      	str	r4, [sp, #92]	; 0x5c
   d8f7e:	f04f 0900 	mov.w	r9, #0
   d8f82:	2d00      	cmp	r5, #0
   d8f84:	d153      	bne.n	d902e <_strtod_r+0x396>
   d8f86:	2800      	cmp	r0, #0
   d8f88:	f040 8451 	bne.w	d982e <_strtod_r+0xb96>
   d8f8c:	9a06      	ldr	r2, [sp, #24]
   d8f8e:	2a00      	cmp	r2, #0
   d8f90:	f040 844d 	bne.w	d982e <_strtod_r+0xb96>
   d8f94:	2900      	cmp	r1, #0
   d8f96:	d141      	bne.n	d901c <_strtod_r+0x384>
   d8f98:	2b4e      	cmp	r3, #78	; 0x4e
   d8f9a:	d020      	beq.n	d8fde <_strtod_r+0x346>
   d8f9c:	dc02      	bgt.n	d8fa4 <_strtod_r+0x30c>
   d8f9e:	2b49      	cmp	r3, #73	; 0x49
   d8fa0:	d00a      	beq.n	d8fb8 <_strtod_r+0x320>
   d8fa2:	e03b      	b.n	d901c <_strtod_r+0x384>
   d8fa4:	2b69      	cmp	r3, #105	; 0x69
   d8fa6:	d007      	beq.n	d8fb8 <_strtod_r+0x320>
   d8fa8:	2b6e      	cmp	r3, #110	; 0x6e
   d8faa:	d018      	beq.n	d8fde <_strtod_r+0x346>
   d8fac:	e036      	b.n	d901c <_strtod_r+0x384>
   d8fae:	bf00      	nop
   d8fb0:	000db7bc 	.word	0x000db7bc
   d8fb4:	7ff00000 	.word	0x7ff00000
   d8fb8:	49a8      	ldr	r1, [pc, #672]	; (d925c <_strtod_r+0x5c4>)
   d8fba:	a817      	add	r0, sp, #92	; 0x5c
   d8fbc:	f001 fa38 	bl	da430 <__match>
   d8fc0:	b360      	cbz	r0, d901c <_strtod_r+0x384>
   d8fc2:	9b17      	ldr	r3, [sp, #92]	; 0x5c
   d8fc4:	49a6      	ldr	r1, [pc, #664]	; (d9260 <_strtod_r+0x5c8>)
   d8fc6:	3b01      	subs	r3, #1
   d8fc8:	a817      	add	r0, sp, #92	; 0x5c
   d8fca:	9317      	str	r3, [sp, #92]	; 0x5c
   d8fcc:	f001 fa30 	bl	da430 <__match>
   d8fd0:	b910      	cbnz	r0, d8fd8 <_strtod_r+0x340>
   d8fd2:	9b17      	ldr	r3, [sp, #92]	; 0x5c
   d8fd4:	3301      	adds	r3, #1
   d8fd6:	9317      	str	r3, [sp, #92]	; 0x5c
   d8fd8:	f8df b2a0 	ldr.w	fp, [pc, #672]	; d927c <_strtod_r+0x5e4>
   d8fdc:	e01a      	b.n	d9014 <_strtod_r+0x37c>
   d8fde:	49a1      	ldr	r1, [pc, #644]	; (d9264 <_strtod_r+0x5cc>)
   d8fe0:	a817      	add	r0, sp, #92	; 0x5c
   d8fe2:	f001 fa25 	bl	da430 <__match>
   d8fe6:	b1c8      	cbz	r0, d901c <_strtod_r+0x384>
   d8fe8:	9b17      	ldr	r3, [sp, #92]	; 0x5c
   d8fea:	781b      	ldrb	r3, [r3, #0]
   d8fec:	2b28      	cmp	r3, #40	; 0x28
   d8fee:	d10f      	bne.n	d9010 <_strtod_r+0x378>
   d8ff0:	aa1a      	add	r2, sp, #104	; 0x68
   d8ff2:	499d      	ldr	r1, [pc, #628]	; (d9268 <_strtod_r+0x5d0>)
   d8ff4:	a817      	add	r0, sp, #92	; 0x5c
   d8ff6:	f001 fa2e 	bl	da456 <__hexnan>
   d8ffa:	2805      	cmp	r0, #5
   d8ffc:	d108      	bne.n	d9010 <_strtod_r+0x378>
   d8ffe:	9b1b      	ldr	r3, [sp, #108]	; 0x6c
   d9000:	f8dd a068 	ldr.w	sl, [sp, #104]	; 0x68
   d9004:	f043 4bff 	orr.w	fp, r3, #2139095040	; 0x7f800000
   d9008:	f44b 0be0 	orr.w	fp, fp, #7340032	; 0x700000
   d900c:	f000 bc0f 	b.w	d982e <_strtod_r+0xb96>
   d9010:	f8df b26c 	ldr.w	fp, [pc, #620]	; d9280 <_strtod_r+0x5e8>
   d9014:	f04f 0a00 	mov.w	sl, #0
   d9018:	f000 bc09 	b.w	d982e <_strtod_r+0xb96>
   d901c:	9b13      	ldr	r3, [sp, #76]	; 0x4c
   d901e:	9417      	str	r4, [sp, #92]	; 0x5c
   d9020:	2b00      	cmp	r3, #0
   d9022:	f000 840f 	beq.w	d9844 <_strtod_r+0xbac>
   d9026:	2300      	movs	r3, #0
   d9028:	930c      	str	r3, [sp, #48]	; 0x30
   d902a:	f000 bc02 	b.w	d9832 <_strtod_r+0xb9a>
   d902e:	9b04      	ldr	r3, [sp, #16]
   d9030:	9805      	ldr	r0, [sp, #20]
   d9032:	2b00      	cmp	r3, #0
   d9034:	bf08      	it	eq
   d9036:	462b      	moveq	r3, r5
   d9038:	2d10      	cmp	r5, #16
   d903a:	462c      	mov	r4, r5
   d903c:	ebc2 0909 	rsb	r9, r2, r9
   d9040:	bfa8      	it	ge
   d9042:	2410      	movge	r4, #16
   d9044:	9304      	str	r3, [sp, #16]
   d9046:	f7fe fef1 	bl	d7e2c <__aeabi_ui2d>
   d904a:	2c09      	cmp	r4, #9
   d904c:	4682      	mov	sl, r0
   d904e:	468b      	mov	fp, r1
   d9050:	dd13      	ble.n	d907a <_strtod_r+0x3e2>
   d9052:	4b86      	ldr	r3, [pc, #536]	; (d926c <_strtod_r+0x5d4>)
   d9054:	eb03 03c4 	add.w	r3, r3, r4, lsl #3
   d9058:	e953 2312 	ldrd	r2, r3, [r3, #-72]	; 0x48
   d905c:	f7fe ff5c 	bl	d7f18 <__aeabi_dmul>
   d9060:	4606      	mov	r6, r0
   d9062:	4640      	mov	r0, r8
   d9064:	460f      	mov	r7, r1
   d9066:	f7fe fee1 	bl	d7e2c <__aeabi_ui2d>
   d906a:	4602      	mov	r2, r0
   d906c:	460b      	mov	r3, r1
   d906e:	4630      	mov	r0, r6
   d9070:	4639      	mov	r1, r7
   d9072:	f7fe fd9f 	bl	d7bb4 <__adddf3>
   d9076:	4682      	mov	sl, r0
   d9078:	468b      	mov	fp, r1
   d907a:	2d0f      	cmp	r5, #15
   d907c:	dc36      	bgt.n	d90ec <_strtod_r+0x454>
   d907e:	f1b9 0f00 	cmp.w	r9, #0
   d9082:	f000 83d4 	beq.w	d982e <_strtod_r+0xb96>
   d9086:	dd24      	ble.n	d90d2 <_strtod_r+0x43a>
   d9088:	f1b9 0f16 	cmp.w	r9, #22
   d908c:	dc07      	bgt.n	d909e <_strtod_r+0x406>
   d908e:	4d77      	ldr	r5, [pc, #476]	; (d926c <_strtod_r+0x5d4>)
   d9090:	eb05 09c9 	add.w	r9, r5, r9, lsl #3
   d9094:	4652      	mov	r2, sl
   d9096:	465b      	mov	r3, fp
   d9098:	e9d9 0100 	ldrd	r0, r1, [r9]
   d909c:	e014      	b.n	d90c8 <_strtod_r+0x430>
   d909e:	f1c5 0325 	rsb	r3, r5, #37	; 0x25
   d90a2:	4599      	cmp	r9, r3
   d90a4:	dc22      	bgt.n	d90ec <_strtod_r+0x454>
   d90a6:	4c71      	ldr	r4, [pc, #452]	; (d926c <_strtod_r+0x5d4>)
   d90a8:	f1c5 050f 	rsb	r5, r5, #15
   d90ac:	eb04 01c5 	add.w	r1, r4, r5, lsl #3
   d90b0:	ebc5 0509 	rsb	r5, r5, r9
   d90b4:	4652      	mov	r2, sl
   d90b6:	465b      	mov	r3, fp
   d90b8:	e9d1 0100 	ldrd	r0, r1, [r1]
   d90bc:	eb04 04c5 	add.w	r4, r4, r5, lsl #3
   d90c0:	f7fe ff2a 	bl	d7f18 <__aeabi_dmul>
   d90c4:	e9d4 2300 	ldrd	r2, r3, [r4]
   d90c8:	f7fe ff26 	bl	d7f18 <__aeabi_dmul>
   d90cc:	4682      	mov	sl, r0
   d90ce:	468b      	mov	fp, r1
   d90d0:	e3ad      	b.n	d982e <_strtod_r+0xb96>
   d90d2:	f119 0f16 	cmn.w	r9, #22
   d90d6:	db09      	blt.n	d90ec <_strtod_r+0x454>
   d90d8:	4d64      	ldr	r5, [pc, #400]	; (d926c <_strtod_r+0x5d4>)
   d90da:	eba5 09c9 	sub.w	r9, r5, r9, lsl #3
   d90de:	e9d9 2300 	ldrd	r2, r3, [r9]
   d90e2:	4650      	mov	r0, sl
   d90e4:	4659      	mov	r1, fp
   d90e6:	f7ff f841 	bl	d816c <__aeabi_ddiv>
   d90ea:	e7ef      	b.n	d90cc <_strtod_r+0x434>
   d90ec:	1b2c      	subs	r4, r5, r4
   d90ee:	444c      	add	r4, r9
   d90f0:	2c00      	cmp	r4, #0
   d90f2:	dd57      	ble.n	d91a4 <_strtod_r+0x50c>
   d90f4:	f014 010f 	ands.w	r1, r4, #15
   d90f8:	d00a      	beq.n	d9110 <_strtod_r+0x478>
   d90fa:	4b5c      	ldr	r3, [pc, #368]	; (d926c <_strtod_r+0x5d4>)
   d90fc:	eb03 01c1 	add.w	r1, r3, r1, lsl #3
   d9100:	4652      	mov	r2, sl
   d9102:	465b      	mov	r3, fp
   d9104:	e9d1 0100 	ldrd	r0, r1, [r1]
   d9108:	f7fe ff06 	bl	d7f18 <__aeabi_dmul>
   d910c:	4682      	mov	sl, r0
   d910e:	468b      	mov	fp, r1
   d9110:	f034 040f 	bics.w	r4, r4, #15
   d9114:	f000 80b8 	beq.w	d9288 <_strtod_r+0x5f0>
   d9118:	f5b4 7f9a 	cmp.w	r4, #308	; 0x134
   d911c:	dd0b      	ble.n	d9136 <_strtod_r+0x49e>
   d911e:	2400      	movs	r4, #0
   d9120:	4625      	mov	r5, r4
   d9122:	9405      	str	r4, [sp, #20]
   d9124:	9404      	str	r4, [sp, #16]
   d9126:	9a02      	ldr	r2, [sp, #8]
   d9128:	f8df b150 	ldr.w	fp, [pc, #336]	; d927c <_strtod_r+0x5e4>
   d912c:	2322      	movs	r3, #34	; 0x22
   d912e:	6013      	str	r3, [r2, #0]
   d9130:	f04f 0a00 	mov.w	sl, #0
   d9134:	e187      	b.n	d9446 <_strtod_r+0x7ae>
   d9136:	4e4e      	ldr	r6, [pc, #312]	; (d9270 <_strtod_r+0x5d8>)
   d9138:	2300      	movs	r3, #0
   d913a:	1124      	asrs	r4, r4, #4
   d913c:	4650      	mov	r0, sl
   d913e:	4659      	mov	r1, fp
   d9140:	4698      	mov	r8, r3
   d9142:	4637      	mov	r7, r6
   d9144:	2c01      	cmp	r4, #1
   d9146:	dd0b      	ble.n	d9160 <_strtod_r+0x4c8>
   d9148:	07e2      	lsls	r2, r4, #31
   d914a:	d504      	bpl.n	d9156 <_strtod_r+0x4be>
   d914c:	e9d6 2300 	ldrd	r2, r3, [r6]
   d9150:	f7fe fee2 	bl	d7f18 <__aeabi_dmul>
   d9154:	2301      	movs	r3, #1
   d9156:	f108 0801 	add.w	r8, r8, #1
   d915a:	1064      	asrs	r4, r4, #1
   d915c:	3608      	adds	r6, #8
   d915e:	e7f1      	b.n	d9144 <_strtod_r+0x4ac>
   d9160:	b10b      	cbz	r3, d9166 <_strtod_r+0x4ce>
   d9162:	4682      	mov	sl, r0
   d9164:	468b      	mov	fp, r1
   d9166:	f1ab 7b54 	sub.w	fp, fp, #55574528	; 0x3500000
   d916a:	eb07 07c8 	add.w	r7, r7, r8, lsl #3
   d916e:	4652      	mov	r2, sl
   d9170:	465b      	mov	r3, fp
   d9172:	e9d7 0100 	ldrd	r0, r1, [r7]
   d9176:	f7fe fecf 	bl	d7f18 <__aeabi_dmul>
   d917a:	f021 4300 	bic.w	r3, r1, #2147483648	; 0x80000000
   d917e:	468b      	mov	fp, r1
   d9180:	460a      	mov	r2, r1
   d9182:	0d1b      	lsrs	r3, r3, #20
   d9184:	493b      	ldr	r1, [pc, #236]	; (d9274 <_strtod_r+0x5dc>)
   d9186:	051b      	lsls	r3, r3, #20
   d9188:	428b      	cmp	r3, r1
   d918a:	4682      	mov	sl, r0
   d918c:	d8c7      	bhi.n	d911e <_strtod_r+0x486>
   d918e:	f5a1 1180 	sub.w	r1, r1, #1048576	; 0x100000
   d9192:	428b      	cmp	r3, r1
   d9194:	bf86      	itte	hi
   d9196:	f8df b0ec 	ldrhi.w	fp, [pc, #236]	; d9284 <_strtod_r+0x5ec>
   d919a:	f04f 3aff 	movhi.w	sl, #4294967295	; 0xffffffff
   d919e:	f102 7b54 	addls.w	fp, r2, #55574528	; 0x3500000
   d91a2:	e071      	b.n	d9288 <_strtod_r+0x5f0>
   d91a4:	d070      	beq.n	d9288 <_strtod_r+0x5f0>
   d91a6:	4264      	negs	r4, r4
   d91a8:	f014 020f 	ands.w	r2, r4, #15
   d91ac:	d00a      	beq.n	d91c4 <_strtod_r+0x52c>
   d91ae:	4b2f      	ldr	r3, [pc, #188]	; (d926c <_strtod_r+0x5d4>)
   d91b0:	eb03 03c2 	add.w	r3, r3, r2, lsl #3
   d91b4:	4650      	mov	r0, sl
   d91b6:	4659      	mov	r1, fp
   d91b8:	e9d3 2300 	ldrd	r2, r3, [r3]
   d91bc:	f7fe ffd6 	bl	d816c <__aeabi_ddiv>
   d91c0:	4682      	mov	sl, r0
   d91c2:	468b      	mov	fp, r1
   d91c4:	1124      	asrs	r4, r4, #4
   d91c6:	d05f      	beq.n	d9288 <_strtod_r+0x5f0>
   d91c8:	2c1f      	cmp	r4, #31
   d91ca:	dd04      	ble.n	d91d6 <_strtod_r+0x53e>
   d91cc:	2400      	movs	r4, #0
   d91ce:	4625      	mov	r5, r4
   d91d0:	9405      	str	r4, [sp, #20]
   d91d2:	9404      	str	r4, [sp, #16]
   d91d4:	e130      	b.n	d9438 <_strtod_r+0x7a0>
   d91d6:	f014 0f10 	tst.w	r4, #16
   d91da:	bf0c      	ite	eq
   d91dc:	2300      	moveq	r3, #0
   d91de:	236a      	movne	r3, #106	; 0x6a
   d91e0:	4e25      	ldr	r6, [pc, #148]	; (d9278 <_strtod_r+0x5e0>)
   d91e2:	9303      	str	r3, [sp, #12]
   d91e4:	4650      	mov	r0, sl
   d91e6:	4659      	mov	r1, fp
   d91e8:	2300      	movs	r3, #0
   d91ea:	2c00      	cmp	r4, #0
   d91ec:	dd09      	ble.n	d9202 <_strtod_r+0x56a>
   d91ee:	07e2      	lsls	r2, r4, #31
   d91f0:	d504      	bpl.n	d91fc <_strtod_r+0x564>
   d91f2:	e9d6 2300 	ldrd	r2, r3, [r6]
   d91f6:	f7fe fe8f 	bl	d7f18 <__aeabi_dmul>
   d91fa:	2301      	movs	r3, #1
   d91fc:	1064      	asrs	r4, r4, #1
   d91fe:	3608      	adds	r6, #8
   d9200:	e7f3      	b.n	d91ea <_strtod_r+0x552>
   d9202:	b10b      	cbz	r3, d9208 <_strtod_r+0x570>
   d9204:	4682      	mov	sl, r0
   d9206:	468b      	mov	fp, r1
   d9208:	9b03      	ldr	r3, [sp, #12]
   d920a:	b1eb      	cbz	r3, d9248 <_strtod_r+0x5b0>
   d920c:	f3cb 530a 	ubfx	r3, fp, #20, #11
   d9210:	f1c3 036b 	rsb	r3, r3, #107	; 0x6b
   d9214:	2b00      	cmp	r3, #0
   d9216:	4659      	mov	r1, fp
   d9218:	dd16      	ble.n	d9248 <_strtod_r+0x5b0>
   d921a:	2b1f      	cmp	r3, #31
   d921c:	dd0e      	ble.n	d923c <_strtod_r+0x5a4>
   d921e:	2b34      	cmp	r3, #52	; 0x34
   d9220:	bfde      	ittt	le
   d9222:	3b20      	suble	r3, #32
   d9224:	f04f 32ff 	movle.w	r2, #4294967295	; 0xffffffff
   d9228:	fa02 f303 	lslle.w	r3, r2, r3
   d922c:	f04f 0a00 	mov.w	sl, #0
   d9230:	bfcc      	ite	gt
   d9232:	f04f 7b5c 	movgt.w	fp, #57671680	; 0x3700000
   d9236:	ea03 0b01 	andle.w	fp, r3, r1
   d923a:	e005      	b.n	d9248 <_strtod_r+0x5b0>
   d923c:	f04f 32ff 	mov.w	r2, #4294967295	; 0xffffffff
   d9240:	fa02 f303 	lsl.w	r3, r2, r3
   d9244:	ea03 0a0a 	and.w	sl, r3, sl
   d9248:	2200      	movs	r2, #0
   d924a:	2300      	movs	r3, #0
   d924c:	4650      	mov	r0, sl
   d924e:	4659      	mov	r1, fp
   d9250:	f7ff f8ca 	bl	d83e8 <__aeabi_dcmpeq>
   d9254:	2800      	cmp	r0, #0
   d9256:	d1b9      	bne.n	d91cc <_strtod_r+0x534>
   d9258:	e018      	b.n	d928c <_strtod_r+0x5f4>
   d925a:	bf00      	nop
   d925c:	000db7e4 	.word	0x000db7e4
   d9260:	000db7e7 	.word	0x000db7e7
   d9264:	000db7ed 	.word	0x000db7ed
   d9268:	000db7d0 	.word	0x000db7d0
   d926c:	000db858 	.word	0x000db858
   d9270:	000db920 	.word	0x000db920
   d9274:	7ca00000 	.word	0x7ca00000
   d9278:	000db7f0 	.word	0x000db7f0
   d927c:	7ff00000 	.word	0x7ff00000
   d9280:	fff80000 	.word	0xfff80000
   d9284:	7fefffff 	.word	0x7fefffff
   d9288:	2300      	movs	r3, #0
   d928a:	9303      	str	r3, [sp, #12]
   d928c:	9b05      	ldr	r3, [sp, #20]
   d928e:	9300      	str	r3, [sp, #0]
   d9290:	9a04      	ldr	r2, [sp, #16]
   d9292:	9907      	ldr	r1, [sp, #28]
   d9294:	9802      	ldr	r0, [sp, #8]
   d9296:	462b      	mov	r3, r5
   d9298:	f001 fad3 	bl	da842 <__s2b>
   d929c:	9005      	str	r0, [sp, #20]
   d929e:	2800      	cmp	r0, #0
   d92a0:	f43f af3d 	beq.w	d911e <_strtod_r+0x486>
   d92a4:	f1b9 0f00 	cmp.w	r9, #0
   d92a8:	f1c9 0300 	rsb	r3, r9, #0
   d92ac:	bfa8      	it	ge
   d92ae:	2300      	movge	r3, #0
   d92b0:	930d      	str	r3, [sp, #52]	; 0x34
   d92b2:	2400      	movs	r4, #0
   d92b4:	ea29 73e9 	bic.w	r3, r9, r9, asr #31
   d92b8:	9312      	str	r3, [sp, #72]	; 0x48
   d92ba:	4625      	mov	r5, r4
   d92bc:	9b05      	ldr	r3, [sp, #20]
   d92be:	9802      	ldr	r0, [sp, #8]
   d92c0:	6859      	ldr	r1, [r3, #4]
   d92c2:	f001 fa37 	bl	da734 <_Balloc>
   d92c6:	9004      	str	r0, [sp, #16]
   d92c8:	2800      	cmp	r0, #0
   d92ca:	f43f af2c 	beq.w	d9126 <_strtod_r+0x48e>
   d92ce:	9b05      	ldr	r3, [sp, #20]
   d92d0:	691a      	ldr	r2, [r3, #16]
   d92d2:	3202      	adds	r2, #2
   d92d4:	f103 010c 	add.w	r1, r3, #12
   d92d8:	0092      	lsls	r2, r2, #2
   d92da:	300c      	adds	r0, #12
   d92dc:	f7ff fc24 	bl	d8b28 <memcpy>
   d92e0:	aa1a      	add	r2, sp, #104	; 0x68
   d92e2:	a919      	add	r1, sp, #100	; 0x64
   d92e4:	ec4b ab10 	vmov	d0, sl, fp
   d92e8:	9802      	ldr	r0, [sp, #8]
   d92ea:	e9cd ab08 	strd	sl, fp, [sp, #32]
   d92ee:	f001 fd5c 	bl	dadaa <__d2b>
   d92f2:	9018      	str	r0, [sp, #96]	; 0x60
   d92f4:	2800      	cmp	r0, #0
   d92f6:	f43f af16 	beq.w	d9126 <_strtod_r+0x48e>
   d92fa:	2101      	movs	r1, #1
   d92fc:	9802      	ldr	r0, [sp, #8]
   d92fe:	f001 fb2b 	bl	da958 <__i2b>
   d9302:	4605      	mov	r5, r0
   d9304:	2800      	cmp	r0, #0
   d9306:	f43f af0e 	beq.w	d9126 <_strtod_r+0x48e>
   d930a:	9b19      	ldr	r3, [sp, #100]	; 0x64
   d930c:	9903      	ldr	r1, [sp, #12]
   d930e:	9e1a      	ldr	r6, [sp, #104]	; 0x68
   d9310:	2b00      	cmp	r3, #0
   d9312:	bfad      	iteet	ge
   d9314:	9a0d      	ldrge	r2, [sp, #52]	; 0x34
   d9316:	9a12      	ldrlt	r2, [sp, #72]	; 0x48
   d9318:	f8dd 8034 	ldrlt.w	r8, [sp, #52]	; 0x34
   d931c:	eb02 0803 	addge.w	r8, r2, r3
   d9320:	bfb8      	it	lt
   d9322:	1ad2      	sublt	r2, r2, r3
   d9324:	eba3 0301 	sub.w	r3, r3, r1
   d9328:	4433      	add	r3, r6
   d932a:	49b5      	ldr	r1, [pc, #724]	; (d9600 <_strtod_r+0x968>)
   d932c:	bfa8      	it	ge
   d932e:	9a12      	ldrge	r2, [sp, #72]	; 0x48
   d9330:	3b01      	subs	r3, #1
   d9332:	428b      	cmp	r3, r1
   d9334:	f1c6 0636 	rsb	r6, r6, #54	; 0x36
   d9338:	f280 808a 	bge.w	d9450 <_strtod_r+0x7b8>
   d933c:	1ac9      	subs	r1, r1, r3
   d933e:	291f      	cmp	r1, #31
   d9340:	bfc8      	it	gt
   d9342:	4fb0      	ldrgt	r7, [pc, #704]	; (d9604 <_strtod_r+0x96c>)
   d9344:	f04f 0901 	mov.w	r9, #1
   d9348:	bfd4      	ite	le
   d934a:	fa09 f301 	lslle.w	r3, r9, r1
   d934e:	1aff      	subgt	r7, r7, r3
   d9350:	eba6 0601 	sub.w	r6, r6, r1
   d9354:	bfd9      	ittee	le
   d9356:	9306      	strle	r3, [sp, #24]
   d9358:	2700      	movle	r7, #0
   d935a:	fa09 f707 	lslgt.w	r7, r9, r7
   d935e:	f8cd 9018 	strgt.w	r9, [sp, #24]
   d9362:	eb08 0906 	add.w	r9, r8, r6
   d9366:	9b03      	ldr	r3, [sp, #12]
   d9368:	45c8      	cmp	r8, r9
   d936a:	4416      	add	r6, r2
   d936c:	441e      	add	r6, r3
   d936e:	4643      	mov	r3, r8
   d9370:	bfa8      	it	ge
   d9372:	464b      	movge	r3, r9
   d9374:	42b3      	cmp	r3, r6
   d9376:	bfa8      	it	ge
   d9378:	4633      	movge	r3, r6
   d937a:	2b00      	cmp	r3, #0
   d937c:	bfc2      	ittt	gt
   d937e:	ebc3 0909 	rsbgt	r9, r3, r9
   d9382:	1af6      	subgt	r6, r6, r3
   d9384:	ebc3 0808 	rsbgt	r8, r3, r8
   d9388:	9b0d      	ldr	r3, [sp, #52]	; 0x34
   d938a:	2b00      	cmp	r3, #0
   d938c:	d164      	bne.n	d9458 <_strtod_r+0x7c0>
   d938e:	f1b9 0f00 	cmp.w	r9, #0
   d9392:	dc7a      	bgt.n	d948a <_strtod_r+0x7f2>
   d9394:	9b12      	ldr	r3, [sp, #72]	; 0x48
   d9396:	2b00      	cmp	r3, #0
   d9398:	f040 8081 	bne.w	d949e <_strtod_r+0x806>
   d939c:	2e00      	cmp	r6, #0
   d939e:	f300 8088 	bgt.w	d94b2 <_strtod_r+0x81a>
   d93a2:	f1b8 0f00 	cmp.w	r8, #0
   d93a6:	f300 808e 	bgt.w	d94c6 <_strtod_r+0x82e>
   d93aa:	9a04      	ldr	r2, [sp, #16]
   d93ac:	9918      	ldr	r1, [sp, #96]	; 0x60
   d93ae:	9802      	ldr	r0, [sp, #8]
   d93b0:	f001 fc27 	bl	dac02 <__mdiff>
   d93b4:	4604      	mov	r4, r0
   d93b6:	2800      	cmp	r0, #0
   d93b8:	f43f aeb5 	beq.w	d9126 <_strtod_r+0x48e>
   d93bc:	68c3      	ldr	r3, [r0, #12]
   d93be:	9307      	str	r3, [sp, #28]
   d93c0:	2300      	movs	r3, #0
   d93c2:	60c3      	str	r3, [r0, #12]
   d93c4:	4629      	mov	r1, r5
   d93c6:	f001 fc00 	bl	dabca <__mcmp>
   d93ca:	2800      	cmp	r0, #0
   d93cc:	f280 8089 	bge.w	d94e2 <_strtod_r+0x84a>
   d93d0:	9b07      	ldr	r3, [sp, #28]
   d93d2:	2b00      	cmp	r3, #0
   d93d4:	f040 8204 	bne.w	d97e0 <_strtod_r+0xb48>
   d93d8:	f1ba 0f00 	cmp.w	sl, #0
   d93dc:	f040 8200 	bne.w	d97e0 <_strtod_r+0xb48>
   d93e0:	f3cb 0313 	ubfx	r3, fp, #0, #20
   d93e4:	2b00      	cmp	r3, #0
   d93e6:	f040 81fb 	bne.w	d97e0 <_strtod_r+0xb48>
   d93ea:	f02b 4300 	bic.w	r3, fp, #2147483648	; 0x80000000
   d93ee:	0d1b      	lsrs	r3, r3, #20
   d93f0:	051b      	lsls	r3, r3, #20
   d93f2:	f1b3 6fd6 	cmp.w	r3, #112197632	; 0x6b00000
   d93f6:	f240 81f3 	bls.w	d97e0 <_strtod_r+0xb48>
   d93fa:	6963      	ldr	r3, [r4, #20]
   d93fc:	2b00      	cmp	r3, #0
   d93fe:	d06c      	beq.n	d94da <_strtod_r+0x842>
   d9400:	4621      	mov	r1, r4
   d9402:	2201      	movs	r2, #1
   d9404:	9802      	ldr	r0, [sp, #8]
   d9406:	f001 fb8f 	bl	dab28 <__lshift>
   d940a:	4629      	mov	r1, r5
   d940c:	4604      	mov	r4, r0
   d940e:	f001 fbdc 	bl	dabca <__mcmp>
   d9412:	2800      	cmp	r0, #0
   d9414:	f340 81e4 	ble.w	d97e0 <_strtod_r+0xb48>
   d9418:	f02b 4300 	bic.w	r3, fp, #2147483648	; 0x80000000
   d941c:	9a03      	ldr	r2, [sp, #12]
   d941e:	0d1b      	lsrs	r3, r3, #20
   d9420:	051b      	lsls	r3, r3, #20
   d9422:	2a00      	cmp	r2, #0
   d9424:	f000 808c 	beq.w	d9540 <_strtod_r+0x8a8>
   d9428:	f1b3 6fd6 	cmp.w	r3, #112197632	; 0x6b00000
   d942c:	f300 8088 	bgt.w	d9540 <_strtod_r+0x8a8>
   d9430:	f1b3 7f5c 	cmp.w	r3, #57671680	; 0x3700000
   d9434:	f300 81d6 	bgt.w	d97e4 <_strtod_r+0xb4c>
   d9438:	9a02      	ldr	r2, [sp, #8]
   d943a:	2322      	movs	r3, #34	; 0x22
   d943c:	f04f 0a00 	mov.w	sl, #0
   d9440:	f04f 0b00 	mov.w	fp, #0
   d9444:	6013      	str	r3, [r2, #0]
   d9446:	9b05      	ldr	r3, [sp, #20]
   d9448:	2b00      	cmp	r3, #0
   d944a:	f040 81dc 	bne.w	d9806 <_strtod_r+0xb6e>
   d944e:	e1ee      	b.n	d982e <_strtod_r+0xb96>
   d9450:	2301      	movs	r3, #1
   d9452:	2700      	movs	r7, #0
   d9454:	9306      	str	r3, [sp, #24]
   d9456:	e784      	b.n	d9362 <_strtod_r+0x6ca>
   d9458:	4629      	mov	r1, r5
   d945a:	461a      	mov	r2, r3
   d945c:	9802      	ldr	r0, [sp, #8]
   d945e:	f001 fb15 	bl	daa8c <__pow5mult>
   d9462:	4605      	mov	r5, r0
   d9464:	2800      	cmp	r0, #0
   d9466:	f43f ae5e 	beq.w	d9126 <_strtod_r+0x48e>
   d946a:	4601      	mov	r1, r0
   d946c:	9a18      	ldr	r2, [sp, #96]	; 0x60
   d946e:	9802      	ldr	r0, [sp, #8]
   d9470:	f001 fa7b 	bl	da96a <__multiply>
   d9474:	9007      	str	r0, [sp, #28]
   d9476:	2800      	cmp	r0, #0
   d9478:	f43f ae55 	beq.w	d9126 <_strtod_r+0x48e>
   d947c:	9918      	ldr	r1, [sp, #96]	; 0x60
   d947e:	9802      	ldr	r0, [sp, #8]
   d9480:	f001 f98d 	bl	da79e <_Bfree>
   d9484:	9b07      	ldr	r3, [sp, #28]
   d9486:	9318      	str	r3, [sp, #96]	; 0x60
   d9488:	e781      	b.n	d938e <_strtod_r+0x6f6>
   d948a:	464a      	mov	r2, r9
   d948c:	9918      	ldr	r1, [sp, #96]	; 0x60
   d948e:	9802      	ldr	r0, [sp, #8]
   d9490:	f001 fb4a 	bl	dab28 <__lshift>
   d9494:	9018      	str	r0, [sp, #96]	; 0x60
   d9496:	2800      	cmp	r0, #0
   d9498:	f47f af7c 	bne.w	d9394 <_strtod_r+0x6fc>
   d949c:	e643      	b.n	d9126 <_strtod_r+0x48e>
   d949e:	9a12      	ldr	r2, [sp, #72]	; 0x48
   d94a0:	9904      	ldr	r1, [sp, #16]
   d94a2:	9802      	ldr	r0, [sp, #8]
   d94a4:	f001 faf2 	bl	daa8c <__pow5mult>
   d94a8:	9004      	str	r0, [sp, #16]
   d94aa:	2800      	cmp	r0, #0
   d94ac:	f47f af76 	bne.w	d939c <_strtod_r+0x704>
   d94b0:	e639      	b.n	d9126 <_strtod_r+0x48e>
   d94b2:	4632      	mov	r2, r6
   d94b4:	9904      	ldr	r1, [sp, #16]
   d94b6:	9802      	ldr	r0, [sp, #8]
   d94b8:	f001 fb36 	bl	dab28 <__lshift>
   d94bc:	9004      	str	r0, [sp, #16]
   d94be:	2800      	cmp	r0, #0
   d94c0:	f47f af6f 	bne.w	d93a2 <_strtod_r+0x70a>
   d94c4:	e62f      	b.n	d9126 <_strtod_r+0x48e>
   d94c6:	4629      	mov	r1, r5
   d94c8:	4642      	mov	r2, r8
   d94ca:	9802      	ldr	r0, [sp, #8]
   d94cc:	f001 fb2c 	bl	dab28 <__lshift>
   d94d0:	4605      	mov	r5, r0
   d94d2:	2800      	cmp	r0, #0
   d94d4:	f47f af69 	bne.w	d93aa <_strtod_r+0x712>
   d94d8:	e625      	b.n	d9126 <_strtod_r+0x48e>
   d94da:	6923      	ldr	r3, [r4, #16]
   d94dc:	2b01      	cmp	r3, #1
   d94de:	dc8f      	bgt.n	d9400 <_strtod_r+0x768>
   d94e0:	e17e      	b.n	d97e0 <_strtod_r+0xb48>
   d94e2:	d161      	bne.n	d95a8 <_strtod_r+0x910>
   d94e4:	9a07      	ldr	r2, [sp, #28]
   d94e6:	f3cb 0313 	ubfx	r3, fp, #0, #20
   d94ea:	b322      	cbz	r2, d9536 <_strtod_r+0x89e>
   d94ec:	4946      	ldr	r1, [pc, #280]	; (d9608 <_strtod_r+0x970>)
   d94ee:	428b      	cmp	r3, r1
   d94f0:	465a      	mov	r2, fp
   d94f2:	d12e      	bne.n	d9552 <_strtod_r+0x8ba>
   d94f4:	9b03      	ldr	r3, [sp, #12]
   d94f6:	4651      	mov	r1, sl
   d94f8:	b163      	cbz	r3, d9514 <_strtod_r+0x87c>
   d94fa:	4b44      	ldr	r3, [pc, #272]	; (d960c <_strtod_r+0x974>)
   d94fc:	4013      	ands	r3, r2
   d94fe:	f1b3 6fd4 	cmp.w	r3, #111149056	; 0x6a00000
   d9502:	d807      	bhi.n	d9514 <_strtod_r+0x87c>
   d9504:	0d1b      	lsrs	r3, r3, #20
   d9506:	f1c3 036b 	rsb	r3, r3, #107	; 0x6b
   d950a:	f04f 30ff 	mov.w	r0, #4294967295	; 0xffffffff
   d950e:	fa00 f303 	lsl.w	r3, r0, r3
   d9512:	e001      	b.n	d9518 <_strtod_r+0x880>
   d9514:	f04f 33ff 	mov.w	r3, #4294967295	; 0xffffffff
   d9518:	428b      	cmp	r3, r1
   d951a:	d11a      	bne.n	d9552 <_strtod_r+0x8ba>
   d951c:	493c      	ldr	r1, [pc, #240]	; (d9610 <_strtod_r+0x978>)
   d951e:	428a      	cmp	r2, r1
   d9520:	d102      	bne.n	d9528 <_strtod_r+0x890>
   d9522:	3301      	adds	r3, #1
   d9524:	f43f adff 	beq.w	d9126 <_strtod_r+0x48e>
   d9528:	4b38      	ldr	r3, [pc, #224]	; (d960c <_strtod_r+0x974>)
   d952a:	4013      	ands	r3, r2
   d952c:	f503 1b80 	add.w	fp, r3, #1048576	; 0x100000
   d9530:	f04f 0a00 	mov.w	sl, #0
   d9534:	e154      	b.n	d97e0 <_strtod_r+0xb48>
   d9536:	b963      	cbnz	r3, d9552 <_strtod_r+0x8ba>
   d9538:	f1ba 0f00 	cmp.w	sl, #0
   d953c:	d109      	bne.n	d9552 <_strtod_r+0x8ba>
   d953e:	e76b      	b.n	d9418 <_strtod_r+0x780>
   d9540:	f5a3 1380 	sub.w	r3, r3, #1048576	; 0x100000
   d9544:	ea6f 5b13 	mvn.w	fp, r3, lsr #20
   d9548:	ea6f 5b0b 	mvn.w	fp, fp, lsl #20
   d954c:	f04f 3aff 	mov.w	sl, #4294967295	; 0xffffffff
   d9550:	e146      	b.n	d97e0 <_strtod_r+0xb48>
   d9552:	b117      	cbz	r7, d955a <_strtod_r+0x8c2>
   d9554:	ea17 0f0b 	tst.w	r7, fp
   d9558:	e002      	b.n	d9560 <_strtod_r+0x8c8>
   d955a:	9b06      	ldr	r3, [sp, #24]
   d955c:	ea13 0f0a 	tst.w	r3, sl
   d9560:	f000 813e 	beq.w	d97e0 <_strtod_r+0xb48>
   d9564:	9b07      	ldr	r3, [sp, #28]
   d9566:	9a03      	ldr	r2, [sp, #12]
   d9568:	4650      	mov	r0, sl
   d956a:	4659      	mov	r1, fp
   d956c:	b153      	cbz	r3, d9584 <_strtod_r+0x8ec>
   d956e:	f7ff fb74 	bl	d8c5a <sulp>
   d9572:	4602      	mov	r2, r0
   d9574:	460b      	mov	r3, r1
   d9576:	e9dd 0108 	ldrd	r0, r1, [sp, #32]
   d957a:	f7fe fb1b 	bl	d7bb4 <__adddf3>
   d957e:	4682      	mov	sl, r0
   d9580:	468b      	mov	fp, r1
   d9582:	e12d      	b.n	d97e0 <_strtod_r+0xb48>
   d9584:	f7ff fb69 	bl	d8c5a <sulp>
   d9588:	4602      	mov	r2, r0
   d958a:	460b      	mov	r3, r1
   d958c:	e9dd 0108 	ldrd	r0, r1, [sp, #32]
   d9590:	f7fe fb0e 	bl	d7bb0 <__aeabi_dsub>
   d9594:	2200      	movs	r2, #0
   d9596:	2300      	movs	r3, #0
   d9598:	4682      	mov	sl, r0
   d959a:	468b      	mov	fp, r1
   d959c:	f7fe ff24 	bl	d83e8 <__aeabi_dcmpeq>
   d95a0:	2800      	cmp	r0, #0
   d95a2:	f47f af49 	bne.w	d9438 <_strtod_r+0x7a0>
   d95a6:	e11b      	b.n	d97e0 <_strtod_r+0xb48>
   d95a8:	4629      	mov	r1, r5
   d95aa:	4620      	mov	r0, r4
   d95ac:	f001 fc4b 	bl	dae46 <__ratio>
   d95b0:	ec57 6b10 	vmov	r6, r7, d0
   d95b4:	2200      	movs	r2, #0
   d95b6:	f04f 4380 	mov.w	r3, #1073741824	; 0x40000000
   d95ba:	ee10 0a10 	vmov	r0, s0
   d95be:	4639      	mov	r1, r7
   d95c0:	f7fe ff26 	bl	d8410 <__aeabi_dcmple>
   d95c4:	2800      	cmp	r0, #0
   d95c6:	d042      	beq.n	d964e <_strtod_r+0x9b6>
   d95c8:	9b07      	ldr	r3, [sp, #28]
   d95ca:	b123      	cbz	r3, d95d6 <_strtod_r+0x93e>
   d95cc:	f04f 0800 	mov.w	r8, #0
   d95d0:	f8df 9040 	ldr.w	r9, [pc, #64]	; d9614 <_strtod_r+0x97c>
   d95d4:	e011      	b.n	d95fa <_strtod_r+0x962>
   d95d6:	f1ba 0f00 	cmp.w	sl, #0
   d95da:	d103      	bne.n	d95e4 <_strtod_r+0x94c>
   d95dc:	f3cb 0313 	ubfx	r3, fp, #0, #20
   d95e0:	b93b      	cbnz	r3, d95f2 <_strtod_r+0x95a>
   d95e2:	e01b      	b.n	d961c <_strtod_r+0x984>
   d95e4:	f1ba 0f01 	cmp.w	sl, #1
   d95e8:	d103      	bne.n	d95f2 <_strtod_r+0x95a>
   d95ea:	f1bb 0f00 	cmp.w	fp, #0
   d95ee:	f43f af23 	beq.w	d9438 <_strtod_r+0x7a0>
   d95f2:	f8df 9024 	ldr.w	r9, [pc, #36]	; d9618 <_strtod_r+0x980>
   d95f6:	f04f 0800 	mov.w	r8, #0
   d95fa:	2600      	movs	r6, #0
   d95fc:	4f05      	ldr	r7, [pc, #20]	; (d9614 <_strtod_r+0x97c>)
   d95fe:	e039      	b.n	d9674 <_strtod_r+0x9dc>
   d9600:	fffffc02 	.word	0xfffffc02
   d9604:	fffffbe2 	.word	0xfffffbe2
   d9608:	000fffff 	.word	0x000fffff
   d960c:	7ff00000 	.word	0x7ff00000
   d9610:	7fefffff 	.word	0x7fefffff
   d9614:	3ff00000 	.word	0x3ff00000
   d9618:	bff00000 	.word	0xbff00000
   d961c:	2200      	movs	r2, #0
   d961e:	4b98      	ldr	r3, [pc, #608]	; (d9880 <_strtod_r+0xbe8>)
   d9620:	4630      	mov	r0, r6
   d9622:	4639      	mov	r1, r7
   d9624:	f7fe feea 	bl	d83fc <__aeabi_dcmplt>
   d9628:	b940      	cbnz	r0, d963c <_strtod_r+0x9a4>
   d962a:	4630      	mov	r0, r6
   d962c:	4639      	mov	r1, r7
   d962e:	2200      	movs	r2, #0
   d9630:	4b94      	ldr	r3, [pc, #592]	; (d9884 <_strtod_r+0xbec>)
   d9632:	f7fe fc71 	bl	d7f18 <__aeabi_dmul>
   d9636:	4606      	mov	r6, r0
   d9638:	460f      	mov	r7, r1
   d963a:	e001      	b.n	d9640 <_strtod_r+0x9a8>
   d963c:	4f91      	ldr	r7, [pc, #580]	; (d9884 <_strtod_r+0xbec>)
   d963e:	2600      	movs	r6, #0
   d9640:	f107 4300 	add.w	r3, r7, #2147483648	; 0x80000000
   d9644:	9614      	str	r6, [sp, #80]	; 0x50
   d9646:	9315      	str	r3, [sp, #84]	; 0x54
   d9648:	e9dd 8914 	ldrd	r8, r9, [sp, #80]	; 0x50
   d964c:	e012      	b.n	d9674 <_strtod_r+0x9dc>
   d964e:	4b8d      	ldr	r3, [pc, #564]	; (d9884 <_strtod_r+0xbec>)
   d9650:	4630      	mov	r0, r6
   d9652:	4639      	mov	r1, r7
   d9654:	2200      	movs	r2, #0
   d9656:	f7fe fc5f 	bl	d7f18 <__aeabi_dmul>
   d965a:	9b07      	ldr	r3, [sp, #28]
   d965c:	4606      	mov	r6, r0
   d965e:	460f      	mov	r7, r1
   d9660:	b923      	cbnz	r3, d966c <_strtod_r+0x9d4>
   d9662:	f101 4300 	add.w	r3, r1, #2147483648	; 0x80000000
   d9666:	900e      	str	r0, [sp, #56]	; 0x38
   d9668:	930f      	str	r3, [sp, #60]	; 0x3c
   d966a:	e001      	b.n	d9670 <_strtod_r+0x9d8>
   d966c:	e9cd 670e 	strd	r6, r7, [sp, #56]	; 0x38
   d9670:	e9dd 890e 	ldrd	r8, r9, [sp, #56]	; 0x38
   d9674:	f02b 4300 	bic.w	r3, fp, #2147483648	; 0x80000000
   d9678:	0d1b      	lsrs	r3, r3, #20
   d967a:	051b      	lsls	r3, r3, #20
   d967c:	9306      	str	r3, [sp, #24]
   d967e:	9a06      	ldr	r2, [sp, #24]
   d9680:	4b81      	ldr	r3, [pc, #516]	; (d9888 <_strtod_r+0xbf0>)
   d9682:	429a      	cmp	r2, r3
   d9684:	d12b      	bne.n	d96de <_strtod_r+0xa46>
   d9686:	e9dd 2308 	ldrd	r2, r3, [sp, #32]
   d968a:	f1ab 7b54 	sub.w	fp, fp, #55574528	; 0x3500000
   d968e:	ec4b ab10 	vmov	d0, sl, fp
   d9692:	e9cd 230a 	strd	r2, r3, [sp, #40]	; 0x28
   d9696:	f001 fb13 	bl	dacc0 <__ulp>
   d969a:	4640      	mov	r0, r8
   d969c:	ec53 2b10 	vmov	r2, r3, d0
   d96a0:	4649      	mov	r1, r9
   d96a2:	f7fe fc39 	bl	d7f18 <__aeabi_dmul>
   d96a6:	4652      	mov	r2, sl
   d96a8:	465b      	mov	r3, fp
   d96aa:	f7fe fa83 	bl	d7bb4 <__adddf3>
   d96ae:	f021 4300 	bic.w	r3, r1, #2147483648	; 0x80000000
   d96b2:	0d1b      	lsrs	r3, r3, #20
   d96b4:	4a75      	ldr	r2, [pc, #468]	; (d988c <_strtod_r+0xbf4>)
   d96b6:	051b      	lsls	r3, r3, #20
   d96b8:	4293      	cmp	r3, r2
   d96ba:	4682      	mov	sl, r0
   d96bc:	d90c      	bls.n	d96d8 <_strtod_r+0xa40>
   d96be:	4b74      	ldr	r3, [pc, #464]	; (d9890 <_strtod_r+0xbf8>)
   d96c0:	9a0b      	ldr	r2, [sp, #44]	; 0x2c
   d96c2:	429a      	cmp	r2, r3
   d96c4:	d103      	bne.n	d96ce <_strtod_r+0xa36>
   d96c6:	9b0a      	ldr	r3, [sp, #40]	; 0x28
   d96c8:	3301      	adds	r3, #1
   d96ca:	f43f ad2c 	beq.w	d9126 <_strtod_r+0x48e>
   d96ce:	f8df b1c0 	ldr.w	fp, [pc, #448]	; d9890 <_strtod_r+0xbf8>
   d96d2:	f04f 3aff 	mov.w	sl, #4294967295	; 0xffffffff
   d96d6:	e072      	b.n	d97be <_strtod_r+0xb26>
   d96d8:	f101 7b54 	add.w	fp, r1, #55574528	; 0x3500000
   d96dc:	e038      	b.n	d9750 <_strtod_r+0xab8>
   d96de:	9b03      	ldr	r3, [sp, #12]
   d96e0:	b333      	cbz	r3, d9730 <_strtod_r+0xa98>
   d96e2:	9b06      	ldr	r3, [sp, #24]
   d96e4:	f1b3 6fd4 	cmp.w	r3, #111149056	; 0x6a00000
   d96e8:	d822      	bhi.n	d9730 <_strtod_r+0xa98>
   d96ea:	a35d      	add	r3, pc, #372	; (adr r3, d9860 <_strtod_r+0xbc8>)
   d96ec:	e9d3 2300 	ldrd	r2, r3, [r3]
   d96f0:	4630      	mov	r0, r6
   d96f2:	4639      	mov	r1, r7
   d96f4:	f7fe fe8c 	bl	d8410 <__aeabi_dcmple>
   d96f8:	b1a8      	cbz	r0, d9726 <_strtod_r+0xa8e>
   d96fa:	4639      	mov	r1, r7
   d96fc:	4630      	mov	r0, r6
   d96fe:	f7fe fecd 	bl	d849c <__aeabi_d2uiz>
   d9702:	2800      	cmp	r0, #0
   d9704:	bf08      	it	eq
   d9706:	2001      	moveq	r0, #1
   d9708:	f7fe fb90 	bl	d7e2c <__aeabi_ui2d>
   d970c:	9b07      	ldr	r3, [sp, #28]
   d970e:	4606      	mov	r6, r0
   d9710:	460f      	mov	r7, r1
   d9712:	b923      	cbnz	r3, d971e <_strtod_r+0xa86>
   d9714:	f101 4300 	add.w	r3, r1, #2147483648	; 0x80000000
   d9718:	9010      	str	r0, [sp, #64]	; 0x40
   d971a:	9311      	str	r3, [sp, #68]	; 0x44
   d971c:	e001      	b.n	d9722 <_strtod_r+0xa8a>
   d971e:	e9cd 6710 	strd	r6, r7, [sp, #64]	; 0x40
   d9722:	e9dd 8910 	ldrd	r8, r9, [sp, #64]	; 0x40
   d9726:	9a06      	ldr	r2, [sp, #24]
   d9728:	f109 63d6 	add.w	r3, r9, #112197632	; 0x6b00000
   d972c:	ebc2 0903 	rsb	r9, r2, r3
   d9730:	ed9d 0b08 	vldr	d0, [sp, #32]
   d9734:	f001 fac4 	bl	dacc0 <__ulp>
   d9738:	4640      	mov	r0, r8
   d973a:	ec53 2b10 	vmov	r2, r3, d0
   d973e:	4649      	mov	r1, r9
   d9740:	f7fe fbea 	bl	d7f18 <__aeabi_dmul>
   d9744:	e9dd 2308 	ldrd	r2, r3, [sp, #32]
   d9748:	f7fe fa34 	bl	d7bb4 <__adddf3>
   d974c:	4682      	mov	sl, r0
   d974e:	468b      	mov	fp, r1
   d9750:	9b03      	ldr	r3, [sp, #12]
   d9752:	bba3      	cbnz	r3, d97be <_strtod_r+0xb26>
   d9754:	f02b 4300 	bic.w	r3, fp, #2147483648	; 0x80000000
   d9758:	0d1b      	lsrs	r3, r3, #20
   d975a:	9a06      	ldr	r2, [sp, #24]
   d975c:	051b      	lsls	r3, r3, #20
   d975e:	429a      	cmp	r2, r3
   d9760:	46d8      	mov	r8, fp
   d9762:	d12c      	bne.n	d97be <_strtod_r+0xb26>
   d9764:	4639      	mov	r1, r7
   d9766:	4630      	mov	r0, r6
   d9768:	f7fe fe70 	bl	d844c <__aeabi_d2iz>
   d976c:	f7fe fb6e 	bl	d7e4c <__aeabi_i2d>
   d9770:	460b      	mov	r3, r1
   d9772:	4602      	mov	r2, r0
   d9774:	4639      	mov	r1, r7
   d9776:	4630      	mov	r0, r6
   d9778:	f7fe fa1a 	bl	d7bb0 <__aeabi_dsub>
   d977c:	9b07      	ldr	r3, [sp, #28]
   d977e:	4606      	mov	r6, r0
   d9780:	460f      	mov	r7, r1
   d9782:	b92b      	cbnz	r3, d9790 <_strtod_r+0xaf8>
   d9784:	f1ba 0f00 	cmp.w	sl, #0
   d9788:	d102      	bne.n	d9790 <_strtod_r+0xaf8>
   d978a:	f3cb 0313 	ubfx	r3, fp, #0, #20
   d978e:	b183      	cbz	r3, d97b2 <_strtod_r+0xb1a>
   d9790:	a335      	add	r3, pc, #212	; (adr r3, d9868 <_strtod_r+0xbd0>)
   d9792:	e9d3 2300 	ldrd	r2, r3, [r3]
   d9796:	4630      	mov	r0, r6
   d9798:	4639      	mov	r1, r7
   d979a:	f7fe fe2f 	bl	d83fc <__aeabi_dcmplt>
   d979e:	2800      	cmp	r0, #0
   d97a0:	d131      	bne.n	d9806 <_strtod_r+0xb6e>
   d97a2:	a333      	add	r3, pc, #204	; (adr r3, d9870 <_strtod_r+0xbd8>)
   d97a4:	e9d3 2300 	ldrd	r2, r3, [r3]
   d97a8:	4630      	mov	r0, r6
   d97aa:	4639      	mov	r1, r7
   d97ac:	f7fe fe44 	bl	d8438 <__aeabi_dcmpgt>
   d97b0:	e004      	b.n	d97bc <_strtod_r+0xb24>
   d97b2:	a331      	add	r3, pc, #196	; (adr r3, d9878 <_strtod_r+0xbe0>)
   d97b4:	e9d3 2300 	ldrd	r2, r3, [r3]
   d97b8:	f7fe fe20 	bl	d83fc <__aeabi_dcmplt>
   d97bc:	bb18      	cbnz	r0, d9806 <_strtod_r+0xb6e>
   d97be:	9918      	ldr	r1, [sp, #96]	; 0x60
   d97c0:	9802      	ldr	r0, [sp, #8]
   d97c2:	f000 ffec 	bl	da79e <_Bfree>
   d97c6:	9904      	ldr	r1, [sp, #16]
   d97c8:	9802      	ldr	r0, [sp, #8]
   d97ca:	f000 ffe8 	bl	da79e <_Bfree>
   d97ce:	4629      	mov	r1, r5
   d97d0:	9802      	ldr	r0, [sp, #8]
   d97d2:	f000 ffe4 	bl	da79e <_Bfree>
   d97d6:	4621      	mov	r1, r4
   d97d8:	9802      	ldr	r0, [sp, #8]
   d97da:	f000 ffe0 	bl	da79e <_Bfree>
   d97de:	e56d      	b.n	d92bc <_strtod_r+0x624>
   d97e0:	9b03      	ldr	r3, [sp, #12]
   d97e2:	b183      	cbz	r3, d9806 <_strtod_r+0xb6e>
   d97e4:	4b2b      	ldr	r3, [pc, #172]	; (d9894 <_strtod_r+0xbfc>)
   d97e6:	930b      	str	r3, [sp, #44]	; 0x2c
   d97e8:	2300      	movs	r3, #0
   d97ea:	930a      	str	r3, [sp, #40]	; 0x28
   d97ec:	4650      	mov	r0, sl
   d97ee:	4659      	mov	r1, fp
   d97f0:	e9dd 230a 	ldrd	r2, r3, [sp, #40]	; 0x28
   d97f4:	f7fe fb90 	bl	d7f18 <__aeabi_dmul>
   d97f8:	4682      	mov	sl, r0
   d97fa:	468b      	mov	fp, r1
   d97fc:	b919      	cbnz	r1, d9806 <_strtod_r+0xb6e>
   d97fe:	b910      	cbnz	r0, d9806 <_strtod_r+0xb6e>
   d9800:	9a02      	ldr	r2, [sp, #8]
   d9802:	2322      	movs	r3, #34	; 0x22
   d9804:	6013      	str	r3, [r2, #0]
   d9806:	9918      	ldr	r1, [sp, #96]	; 0x60
   d9808:	9802      	ldr	r0, [sp, #8]
   d980a:	f000 ffc8 	bl	da79e <_Bfree>
   d980e:	9904      	ldr	r1, [sp, #16]
   d9810:	9802      	ldr	r0, [sp, #8]
   d9812:	f000 ffc4 	bl	da79e <_Bfree>
   d9816:	4629      	mov	r1, r5
   d9818:	9802      	ldr	r0, [sp, #8]
   d981a:	f000 ffc0 	bl	da79e <_Bfree>
   d981e:	9905      	ldr	r1, [sp, #20]
   d9820:	9802      	ldr	r0, [sp, #8]
   d9822:	f000 ffbc 	bl	da79e <_Bfree>
   d9826:	4621      	mov	r1, r4
   d9828:	9802      	ldr	r0, [sp, #8]
   d982a:	f000 ffb8 	bl	da79e <_Bfree>
   d982e:	9b13      	ldr	r3, [sp, #76]	; 0x4c
   d9830:	b113      	cbz	r3, d9838 <_strtod_r+0xba0>
   d9832:	9a13      	ldr	r2, [sp, #76]	; 0x4c
   d9834:	9b17      	ldr	r3, [sp, #92]	; 0x5c
   d9836:	6013      	str	r3, [r2, #0]
   d9838:	9b0c      	ldr	r3, [sp, #48]	; 0x30
   d983a:	b11b      	cbz	r3, d9844 <_strtod_r+0xbac>
   d983c:	4652      	mov	r2, sl
   d983e:	f10b 4300 	add.w	r3, fp, #2147483648	; 0x80000000
   d9842:	e007      	b.n	d9854 <_strtod_r+0xbbc>
   d9844:	4652      	mov	r2, sl
   d9846:	465b      	mov	r3, fp
   d9848:	e004      	b.n	d9854 <_strtod_r+0xbbc>
   d984a:	2500      	movs	r5, #0
   d984c:	462a      	mov	r2, r5
   d984e:	2101      	movs	r1, #1
   d9850:	f7ff bb41 	b.w	d8ed6 <_strtod_r+0x23e>
   d9854:	ec43 2b10 	vmov	d0, r2, r3
   d9858:	b01d      	add	sp, #116	; 0x74
   d985a:	e8bd 8ff0 	ldmia.w	sp!, {r4, r5, r6, r7, r8, r9, sl, fp, pc}
   d985e:	bf00      	nop
   d9860:	ffc00000 	.word	0xffc00000
   d9864:	41dfffff 	.word	0x41dfffff
   d9868:	94a03595 	.word	0x94a03595
   d986c:	3fdfffff 	.word	0x3fdfffff
   d9870:	35afe535 	.word	0x35afe535
   d9874:	3fe00000 	.word	0x3fe00000
   d9878:	94a03595 	.word	0x94a03595
   d987c:	3fcfffff 	.word	0x3fcfffff
   d9880:	3ff00000 	.word	0x3ff00000
   d9884:	3fe00000 	.word	0x3fe00000
   d9888:	7fe00000 	.word	0x7fe00000
   d988c:	7c9fffff 	.word	0x7c9fffff
   d9890:	7fefffff 	.word	0x7fefffff
   d9894:	39500000 	.word	0x39500000

000d9898 <strtod>:
   d9898:	4b02      	ldr	r3, [pc, #8]	; (d98a4 <strtod+0xc>)
   d989a:	460a      	mov	r2, r1
   d989c:	4601      	mov	r1, r0
   d989e:	6818      	ldr	r0, [r3, #0]
   d98a0:	f7ff b9fa 	b.w	d8c98 <_strtod_r>
   d98a4:	2003e0a4 	.word	0x2003e0a4

000d98a8 <_strtol_r>:
   d98a8:	e92d 47f0 	stmdb	sp!, {r4, r5, r6, r7, r8, r9, sl, lr}
   d98ac:	4680      	mov	r8, r0
   d98ae:	4840      	ldr	r0, [pc, #256]	; (d99b0 <_strtol_r+0x108>)
   d98b0:	f8d0 9000 	ldr.w	r9, [r0]
   d98b4:	460f      	mov	r7, r1
   d98b6:	463d      	mov	r5, r7
   d98b8:	f815 4b01 	ldrb.w	r4, [r5], #1
   d98bc:	eb09 0004 	add.w	r0, r9, r4
   d98c0:	7840      	ldrb	r0, [r0, #1]
   d98c2:	f000 0008 	and.w	r0, r0, #8
   d98c6:	f000 06ff 	and.w	r6, r0, #255	; 0xff
   d98ca:	b108      	cbz	r0, d98d0 <_strtol_r+0x28>
   d98cc:	462f      	mov	r7, r5
   d98ce:	e7f2      	b.n	d98b6 <_strtol_r+0xe>
   d98d0:	2c2d      	cmp	r4, #45	; 0x2d
   d98d2:	d103      	bne.n	d98dc <_strtol_r+0x34>
   d98d4:	1cbd      	adds	r5, r7, #2
   d98d6:	787c      	ldrb	r4, [r7, #1]
   d98d8:	2601      	movs	r6, #1
   d98da:	e003      	b.n	d98e4 <_strtol_r+0x3c>
   d98dc:	2c2b      	cmp	r4, #43	; 0x2b
   d98de:	bf04      	itt	eq
   d98e0:	787c      	ldrbeq	r4, [r7, #1]
   d98e2:	1cbd      	addeq	r5, r7, #2
   d98e4:	b113      	cbz	r3, d98ec <_strtol_r+0x44>
   d98e6:	2b10      	cmp	r3, #16
   d98e8:	d10a      	bne.n	d9900 <_strtol_r+0x58>
   d98ea:	e05b      	b.n	d99a4 <_strtol_r+0xfc>
   d98ec:	2c30      	cmp	r4, #48	; 0x30
   d98ee:	d157      	bne.n	d99a0 <_strtol_r+0xf8>
   d98f0:	7828      	ldrb	r0, [r5, #0]
   d98f2:	f000 00df 	and.w	r0, r0, #223	; 0xdf
   d98f6:	2858      	cmp	r0, #88	; 0x58
   d98f8:	d14d      	bne.n	d9996 <_strtol_r+0xee>
   d98fa:	786c      	ldrb	r4, [r5, #1]
   d98fc:	2310      	movs	r3, #16
   d98fe:	3502      	adds	r5, #2
   d9900:	2e00      	cmp	r6, #0
   d9902:	bf14      	ite	ne
   d9904:	f04f 4c00 	movne.w	ip, #2147483648	; 0x80000000
   d9908:	f06f 4c00 	mvneq.w	ip, #2147483648	; 0x80000000
   d990c:	2700      	movs	r7, #0
   d990e:	fbbc faf3 	udiv	sl, ip, r3
   d9912:	4638      	mov	r0, r7
   d9914:	fb03 cc1a 	mls	ip, r3, sl, ip
   d9918:	eb09 0e04 	add.w	lr, r9, r4
   d991c:	f89e e001 	ldrb.w	lr, [lr, #1]
   d9920:	f01e 0f04 	tst.w	lr, #4
   d9924:	d001      	beq.n	d992a <_strtol_r+0x82>
   d9926:	3c30      	subs	r4, #48	; 0x30
   d9928:	e00b      	b.n	d9942 <_strtol_r+0x9a>
   d992a:	f01e 0e03 	ands.w	lr, lr, #3
   d992e:	d01b      	beq.n	d9968 <_strtol_r+0xc0>
   d9930:	f1be 0f01 	cmp.w	lr, #1
   d9934:	bf0c      	ite	eq
   d9936:	f04f 0e37 	moveq.w	lr, #55	; 0x37
   d993a:	f04f 0e57 	movne.w	lr, #87	; 0x57
   d993e:	ebce 0404 	rsb	r4, lr, r4
   d9942:	42a3      	cmp	r3, r4
   d9944:	dd10      	ble.n	d9968 <_strtol_r+0xc0>
   d9946:	f1b7 3fff 	cmp.w	r7, #4294967295	; 0xffffffff
   d994a:	d00a      	beq.n	d9962 <_strtol_r+0xba>
   d994c:	4550      	cmp	r0, sl
   d994e:	d806      	bhi.n	d995e <_strtol_r+0xb6>
   d9950:	d101      	bne.n	d9956 <_strtol_r+0xae>
   d9952:	4564      	cmp	r4, ip
   d9954:	dc03      	bgt.n	d995e <_strtol_r+0xb6>
   d9956:	fb03 4000 	mla	r0, r3, r0, r4
   d995a:	2701      	movs	r7, #1
   d995c:	e001      	b.n	d9962 <_strtol_r+0xba>
   d995e:	f04f 37ff 	mov.w	r7, #4294967295	; 0xffffffff
   d9962:	f815 4b01 	ldrb.w	r4, [r5], #1
   d9966:	e7d7      	b.n	d9918 <_strtol_r+0x70>
   d9968:	1c7b      	adds	r3, r7, #1
   d996a:	d10c      	bne.n	d9986 <_strtol_r+0xde>
   d996c:	2e00      	cmp	r6, #0
   d996e:	f04f 0322 	mov.w	r3, #34	; 0x22
   d9972:	bf14      	ite	ne
   d9974:	f04f 4000 	movne.w	r0, #2147483648	; 0x80000000
   d9978:	f06f 4000 	mvneq.w	r0, #2147483648	; 0x80000000
   d997c:	f8c8 3000 	str.w	r3, [r8]
   d9980:	b92a      	cbnz	r2, d998e <_strtol_r+0xe6>
   d9982:	e8bd 87f0 	ldmia.w	sp!, {r4, r5, r6, r7, r8, r9, sl, pc}
   d9986:	b106      	cbz	r6, d998a <_strtol_r+0xe2>
   d9988:	4240      	negs	r0, r0
   d998a:	b172      	cbz	r2, d99aa <_strtol_r+0x102>
   d998c:	b107      	cbz	r7, d9990 <_strtol_r+0xe8>
   d998e:	1e69      	subs	r1, r5, #1
   d9990:	6011      	str	r1, [r2, #0]
   d9992:	e8bd 87f0 	ldmia.w	sp!, {r4, r5, r6, r7, r8, r9, sl, pc}
   d9996:	2430      	movs	r4, #48	; 0x30
   d9998:	2b00      	cmp	r3, #0
   d999a:	d1b1      	bne.n	d9900 <_strtol_r+0x58>
   d999c:	2308      	movs	r3, #8
   d999e:	e7af      	b.n	d9900 <_strtol_r+0x58>
   d99a0:	230a      	movs	r3, #10
   d99a2:	e7ad      	b.n	d9900 <_strtol_r+0x58>
   d99a4:	2c30      	cmp	r4, #48	; 0x30
   d99a6:	d0a3      	beq.n	d98f0 <_strtol_r+0x48>
   d99a8:	e7aa      	b.n	d9900 <_strtol_r+0x58>
   d99aa:	e8bd 87f0 	ldmia.w	sp!, {r4, r5, r6, r7, r8, r9, sl, pc}
   d99ae:	bf00      	nop
   d99b0:	2003e040 	.word	0x2003e040

000d99b4 <strtol>:
   d99b4:	4613      	mov	r3, r2
   d99b6:	460a      	mov	r2, r1
   d99b8:	4601      	mov	r1, r0
   d99ba:	4802      	ldr	r0, [pc, #8]	; (d99c4 <strtol+0x10>)
   d99bc:	6800      	ldr	r0, [r0, #0]
   d99be:	f7ff bf73 	b.w	d98a8 <_strtol_r>
   d99c2:	bf00      	nop
   d99c4:	2003e0a4 	.word	0x2003e0a4

000d99c8 <_strtoul_r>:
   d99c8:	e92d 47f0 	stmdb	sp!, {r4, r5, r6, r7, r8, r9, sl, lr}
   d99cc:	4680      	mov	r8, r0
   d99ce:	483c      	ldr	r0, [pc, #240]	; (d9ac0 <_strtoul_r+0xf8>)
   d99d0:	f8d0 9000 	ldr.w	r9, [r0]
   d99d4:	460e      	mov	r6, r1
   d99d6:	4635      	mov	r5, r6
   d99d8:	f815 4b01 	ldrb.w	r4, [r5], #1
   d99dc:	eb09 0004 	add.w	r0, r9, r4
   d99e0:	7840      	ldrb	r0, [r0, #1]
   d99e2:	f000 0008 	and.w	r0, r0, #8
   d99e6:	f000 07ff 	and.w	r7, r0, #255	; 0xff
   d99ea:	b108      	cbz	r0, d99f0 <_strtoul_r+0x28>
   d99ec:	462e      	mov	r6, r5
   d99ee:	e7f2      	b.n	d99d6 <_strtoul_r+0xe>
   d99f0:	2c2d      	cmp	r4, #45	; 0x2d
   d99f2:	d103      	bne.n	d99fc <_strtoul_r+0x34>
   d99f4:	1cb5      	adds	r5, r6, #2
   d99f6:	7874      	ldrb	r4, [r6, #1]
   d99f8:	2701      	movs	r7, #1
   d99fa:	e003      	b.n	d9a04 <_strtoul_r+0x3c>
   d99fc:	2c2b      	cmp	r4, #43	; 0x2b
   d99fe:	bf04      	itt	eq
   d9a00:	7874      	ldrbeq	r4, [r6, #1]
   d9a02:	1cb5      	addeq	r5, r6, #2
   d9a04:	b113      	cbz	r3, d9a0c <_strtoul_r+0x44>
   d9a06:	2b10      	cmp	r3, #16
   d9a08:	d10a      	bne.n	d9a20 <_strtoul_r+0x58>
   d9a0a:	e053      	b.n	d9ab4 <_strtoul_r+0xec>
   d9a0c:	2c30      	cmp	r4, #48	; 0x30
   d9a0e:	d14f      	bne.n	d9ab0 <_strtoul_r+0xe8>
   d9a10:	7828      	ldrb	r0, [r5, #0]
   d9a12:	f000 00df 	and.w	r0, r0, #223	; 0xdf
   d9a16:	2858      	cmp	r0, #88	; 0x58
   d9a18:	d145      	bne.n	d9aa6 <_strtoul_r+0xde>
   d9a1a:	786c      	ldrb	r4, [r5, #1]
   d9a1c:	2310      	movs	r3, #16
   d9a1e:	3502      	adds	r5, #2
   d9a20:	f04f 3cff 	mov.w	ip, #4294967295	; 0xffffffff
   d9a24:	2600      	movs	r6, #0
   d9a26:	fbbc fcf3 	udiv	ip, ip, r3
   d9a2a:	fb03 fa0c 	mul.w	sl, r3, ip
   d9a2e:	ea6f 0a0a 	mvn.w	sl, sl
   d9a32:	4630      	mov	r0, r6
   d9a34:	eb09 0e04 	add.w	lr, r9, r4
   d9a38:	f89e e001 	ldrb.w	lr, [lr, #1]
   d9a3c:	f01e 0f04 	tst.w	lr, #4
   d9a40:	d001      	beq.n	d9a46 <_strtoul_r+0x7e>
   d9a42:	3c30      	subs	r4, #48	; 0x30
   d9a44:	e00b      	b.n	d9a5e <_strtoul_r+0x96>
   d9a46:	f01e 0e03 	ands.w	lr, lr, #3
   d9a4a:	d01a      	beq.n	d9a82 <_strtoul_r+0xba>
   d9a4c:	f1be 0f01 	cmp.w	lr, #1
   d9a50:	bf0c      	ite	eq
   d9a52:	f04f 0e37 	moveq.w	lr, #55	; 0x37
   d9a56:	f04f 0e57 	movne.w	lr, #87	; 0x57
   d9a5a:	ebce 0404 	rsb	r4, lr, r4
   d9a5e:	42a3      	cmp	r3, r4
   d9a60:	dd0f      	ble.n	d9a82 <_strtoul_r+0xba>
   d9a62:	2e00      	cmp	r6, #0
   d9a64:	db08      	blt.n	d9a78 <_strtoul_r+0xb0>
   d9a66:	4560      	cmp	r0, ip
   d9a68:	d806      	bhi.n	d9a78 <_strtoul_r+0xb0>
   d9a6a:	d101      	bne.n	d9a70 <_strtoul_r+0xa8>
   d9a6c:	4554      	cmp	r4, sl
   d9a6e:	dc03      	bgt.n	d9a78 <_strtoul_r+0xb0>
   d9a70:	fb03 4000 	mla	r0, r3, r0, r4
   d9a74:	2601      	movs	r6, #1
   d9a76:	e001      	b.n	d9a7c <_strtoul_r+0xb4>
   d9a78:	f04f 36ff 	mov.w	r6, #4294967295	; 0xffffffff
   d9a7c:	f815 4b01 	ldrb.w	r4, [r5], #1
   d9a80:	e7d8      	b.n	d9a34 <_strtoul_r+0x6c>
   d9a82:	2e00      	cmp	r6, #0
   d9a84:	da07      	bge.n	d9a96 <_strtoul_r+0xce>
   d9a86:	2322      	movs	r3, #34	; 0x22
   d9a88:	f8c8 3000 	str.w	r3, [r8]
   d9a8c:	f04f 30ff 	mov.w	r0, #4294967295	; 0xffffffff
   d9a90:	b92a      	cbnz	r2, d9a9e <_strtoul_r+0xd6>
   d9a92:	e8bd 87f0 	ldmia.w	sp!, {r4, r5, r6, r7, r8, r9, sl, pc}
   d9a96:	b107      	cbz	r7, d9a9a <_strtoul_r+0xd2>
   d9a98:	4240      	negs	r0, r0
   d9a9a:	b172      	cbz	r2, d9aba <_strtoul_r+0xf2>
   d9a9c:	b106      	cbz	r6, d9aa0 <_strtoul_r+0xd8>
   d9a9e:	1e69      	subs	r1, r5, #1
   d9aa0:	6011      	str	r1, [r2, #0]
   d9aa2:	e8bd 87f0 	ldmia.w	sp!, {r4, r5, r6, r7, r8, r9, sl, pc}
   d9aa6:	2430      	movs	r4, #48	; 0x30
   d9aa8:	2b00      	cmp	r3, #0
   d9aaa:	d1b9      	bne.n	d9a20 <_strtoul_r+0x58>
   d9aac:	2308      	movs	r3, #8
   d9aae:	e7b7      	b.n	d9a20 <_strtoul_r+0x58>
   d9ab0:	230a      	movs	r3, #10
   d9ab2:	e7b5      	b.n	d9a20 <_strtoul_r+0x58>
   d9ab4:	2c30      	cmp	r4, #48	; 0x30
   d9ab6:	d0ab      	beq.n	d9a10 <_strtoul_r+0x48>
   d9ab8:	e7b2      	b.n	d9a20 <_strtoul_r+0x58>
   d9aba:	e8bd 87f0 	ldmia.w	sp!, {r4, r5, r6, r7, r8, r9, sl, pc}
   d9abe:	bf00      	nop
   d9ac0:	2003e040 	.word	0x2003e040

000d9ac4 <strtoul>:
   d9ac4:	4613      	mov	r3, r2
   d9ac6:	460a      	mov	r2, r1
   d9ac8:	4601      	mov	r1, r0
   d9aca:	4802      	ldr	r0, [pc, #8]	; (d9ad4 <strtoul+0x10>)
   d9acc:	6800      	ldr	r0, [r0, #0]
   d9ace:	f7ff bf7b 	b.w	d99c8 <_strtoul_r>
   d9ad2:	bf00      	nop
   d9ad4:	2003e0a4 	.word	0x2003e0a4

000d9ad8 <__tzcalc_limits>:
   d9ad8:	e92d 4ff7 	stmdb	sp!, {r0, r1, r2, r4, r5, r6, r7, r8, r9, sl, fp, lr}
   d9adc:	4604      	mov	r4, r0
   d9ade:	f000 fd8d 	bl	da5fc <__gettzinfo>
   d9ae2:	f240 73b1 	movw	r3, #1969	; 0x7b1
   d9ae6:	429c      	cmp	r4, r3
   d9ae8:	f340 8096 	ble.w	d9c18 <__tzcalc_limits+0x140>
   d9aec:	f46f 63f6 	mvn.w	r3, #1968	; 0x7b0
   d9af0:	18e3      	adds	r3, r4, r3
   d9af2:	f2a4 72b2 	subw	r2, r4, #1970	; 0x7b2
   d9af6:	109b      	asrs	r3, r3, #2
   d9af8:	f240 156d 	movw	r5, #365	; 0x16d
   d9afc:	fb05 3502 	mla	r5, r5, r2, r3
   d9b00:	f2a4 726d 	subw	r2, r4, #1901	; 0x76d
   d9b04:	f06f 0363 	mvn.w	r3, #99	; 0x63
   d9b08:	fb92 f3f3 	sdiv	r3, r2, r3
   d9b0c:	f46f 62c8 	mvn.w	r2, #1600	; 0x640
   d9b10:	442b      	add	r3, r5
   d9b12:	18a5      	adds	r5, r4, r2
   d9b14:	f44f 72c8 	mov.w	r2, #400	; 0x190
   d9b18:	fb95 f5f2 	sdiv	r5, r5, r2
   d9b1c:	441d      	add	r5, r3
   d9b1e:	2364      	movs	r3, #100	; 0x64
   d9b20:	fb94 f7f2 	sdiv	r7, r4, r2
   d9b24:	fb94 f6f3 	sdiv	r6, r4, r3
   d9b28:	fb02 4717 	mls	r7, r2, r7, r4
   d9b2c:	fb03 4616 	mls	r6, r3, r6, r4
   d9b30:	f100 0338 	add.w	r3, r0, #56	; 0x38
   d9b34:	fab7 fe87 	clz	lr, r7
   d9b38:	9301      	str	r3, [sp, #4]
   d9b3a:	f004 0303 	and.w	r3, r4, #3
   d9b3e:	6044      	str	r4, [r0, #4]
   d9b40:	ea4f 1e5e 	mov.w	lr, lr, lsr #5
   d9b44:	4601      	mov	r1, r0
   d9b46:	9300      	str	r3, [sp, #0]
   d9b48:	f04f 0c07 	mov.w	ip, #7
   d9b4c:	7a0b      	ldrb	r3, [r1, #8]
   d9b4e:	2b4a      	cmp	r3, #74	; 0x4a
   d9b50:	d10e      	bne.n	d9b70 <__tzcalc_limits+0x98>
   d9b52:	694b      	ldr	r3, [r1, #20]
   d9b54:	9a00      	ldr	r2, [sp, #0]
   d9b56:	18ec      	adds	r4, r5, r3
   d9b58:	b902      	cbnz	r2, d9b5c <__tzcalc_limits+0x84>
   d9b5a:	b906      	cbnz	r6, d9b5e <__tzcalc_limits+0x86>
   d9b5c:	b927      	cbnz	r7, d9b68 <__tzcalc_limits+0x90>
   d9b5e:	2b3b      	cmp	r3, #59	; 0x3b
   d9b60:	bfd4      	ite	le
   d9b62:	2300      	movle	r3, #0
   d9b64:	2301      	movgt	r3, #1
   d9b66:	e000      	b.n	d9b6a <__tzcalc_limits+0x92>
   d9b68:	2300      	movs	r3, #0
   d9b6a:	4423      	add	r3, r4
   d9b6c:	3b01      	subs	r3, #1
   d9b6e:	e03f      	b.n	d9bf0 <__tzcalc_limits+0x118>
   d9b70:	2b44      	cmp	r3, #68	; 0x44
   d9b72:	d102      	bne.n	d9b7a <__tzcalc_limits+0xa2>
   d9b74:	694b      	ldr	r3, [r1, #20]
   d9b76:	442b      	add	r3, r5
   d9b78:	e03a      	b.n	d9bf0 <__tzcalc_limits+0x118>
   d9b7a:	9b00      	ldr	r3, [sp, #0]
   d9b7c:	b92b      	cbnz	r3, d9b8a <__tzcalc_limits+0xb2>
   d9b7e:	2e00      	cmp	r6, #0
   d9b80:	bf0c      	ite	eq
   d9b82:	46f0      	moveq	r8, lr
   d9b84:	f04f 0801 	movne.w	r8, #1
   d9b88:	e000      	b.n	d9b8c <__tzcalc_limits+0xb4>
   d9b8a:	46f0      	mov	r8, lr
   d9b8c:	4b24      	ldr	r3, [pc, #144]	; (d9c20 <__tzcalc_limits+0x148>)
   d9b8e:	68cc      	ldr	r4, [r1, #12]
   d9b90:	2230      	movs	r2, #48	; 0x30
   d9b92:	fb02 3808 	mla	r8, r2, r8, r3
   d9b96:	f1a8 0a04 	sub.w	sl, r8, #4
   d9b9a:	46a9      	mov	r9, r5
   d9b9c:	2301      	movs	r3, #1
   d9b9e:	42a3      	cmp	r3, r4
   d9ba0:	da04      	bge.n	d9bac <__tzcalc_limits+0xd4>
   d9ba2:	f85a bf04 	ldr.w	fp, [sl, #4]!
   d9ba6:	3301      	adds	r3, #1
   d9ba8:	44d9      	add	r9, fp
   d9baa:	e7f8      	b.n	d9b9e <__tzcalc_limits+0xc6>
   d9bac:	f109 0304 	add.w	r3, r9, #4
   d9bb0:	fb93 fbfc 	sdiv	fp, r3, ip
   d9bb4:	ebcb 0acb 	rsb	sl, fp, fp, lsl #3
   d9bb8:	2c01      	cmp	r4, #1
   d9bba:	ebca 0a03 	rsb	sl, sl, r3
   d9bbe:	694b      	ldr	r3, [r1, #20]
   d9bc0:	bfb8      	it	lt
   d9bc2:	2401      	movlt	r4, #1
   d9bc4:	f104 4480 	add.w	r4, r4, #1073741824	; 0x40000000
   d9bc8:	ebb3 0a0a 	subs.w	sl, r3, sl
   d9bcc:	690b      	ldr	r3, [r1, #16]
   d9bce:	f104 34ff 	add.w	r4, r4, #4294967295	; 0xffffffff
   d9bd2:	f103 33ff 	add.w	r3, r3, #4294967295	; 0xffffffff
   d9bd6:	bf48      	it	mi
   d9bd8:	f10a 0a07 	addmi.w	sl, sl, #7
   d9bdc:	ebc3 03c3 	rsb	r3, r3, r3, lsl #3
   d9be0:	f858 4024 	ldr.w	r4, [r8, r4, lsl #2]
   d9be4:	4453      	add	r3, sl
   d9be6:	42a3      	cmp	r3, r4
   d9be8:	db01      	blt.n	d9bee <__tzcalc_limits+0x116>
   d9bea:	3b07      	subs	r3, #7
   d9bec:	e7fb      	b.n	d9be6 <__tzcalc_limits+0x10e>
   d9bee:	444b      	add	r3, r9
   d9bf0:	698c      	ldr	r4, [r1, #24]
   d9bf2:	4a0c      	ldr	r2, [pc, #48]	; (d9c24 <__tzcalc_limits+0x14c>)
   d9bf4:	fb02 4303 	mla	r3, r2, r3, r4
   d9bf8:	6a0c      	ldr	r4, [r1, #32]
   d9bfa:	4423      	add	r3, r4
   d9bfc:	f841 3f1c 	str.w	r3, [r1, #28]!
   d9c00:	9b01      	ldr	r3, [sp, #4]
   d9c02:	4299      	cmp	r1, r3
   d9c04:	d1a2      	bne.n	d9b4c <__tzcalc_limits+0x74>
   d9c06:	69c3      	ldr	r3, [r0, #28]
   d9c08:	6b82      	ldr	r2, [r0, #56]	; 0x38
   d9c0a:	4293      	cmp	r3, r2
   d9c0c:	bfac      	ite	ge
   d9c0e:	2300      	movge	r3, #0
   d9c10:	2301      	movlt	r3, #1
   d9c12:	6003      	str	r3, [r0, #0]
   d9c14:	2001      	movs	r0, #1
   d9c16:	e000      	b.n	d9c1a <__tzcalc_limits+0x142>
   d9c18:	2000      	movs	r0, #0
   d9c1a:	b003      	add	sp, #12
   d9c1c:	e8bd 8ff0 	ldmia.w	sp!, {r4, r5, r6, r7, r8, r9, sl, fp, pc}
   d9c20:	000db75c 	.word	0x000db75c
   d9c24:	00015180 	.word	0x00015180

000d9c28 <__tz_lock>:
   d9c28:	4770      	bx	lr

000d9c2a <__tz_unlock>:
   d9c2a:	4770      	bx	lr

000d9c2c <_tzset_unlocked>:
   d9c2c:	4b01      	ldr	r3, [pc, #4]	; (d9c34 <_tzset_unlocked+0x8>)
   d9c2e:	6818      	ldr	r0, [r3, #0]
   d9c30:	f000 b802 	b.w	d9c38 <_tzset_unlocked_r>
   d9c34:	2003e0a4 	.word	0x2003e0a4

000d9c38 <_tzset_unlocked_r>:
   d9c38:	e92d 4ff0 	stmdb	sp!, {r4, r5, r6, r7, r8, r9, sl, fp, lr}
   d9c3c:	b08d      	sub	sp, #52	; 0x34
   d9c3e:	4607      	mov	r7, r0
   d9c40:	f000 fcdc 	bl	da5fc <__gettzinfo>
   d9c44:	49b0      	ldr	r1, [pc, #704]	; (d9f08 <_tzset_unlocked_r+0x2d0>)
   d9c46:	4eb1      	ldr	r6, [pc, #708]	; (d9f0c <_tzset_unlocked_r+0x2d4>)
   d9c48:	4604      	mov	r4, r0
   d9c4a:	4638      	mov	r0, r7
   d9c4c:	f000 fcce 	bl	da5ec <_getenv_r>
   d9c50:	4605      	mov	r5, r0
   d9c52:	b960      	cbnz	r0, d9c6e <_tzset_unlocked_r+0x36>
   d9c54:	4bae      	ldr	r3, [pc, #696]	; (d9f10 <_tzset_unlocked_r+0x2d8>)
   d9c56:	4aaf      	ldr	r2, [pc, #700]	; (d9f14 <_tzset_unlocked_r+0x2dc>)
   d9c58:	6018      	str	r0, [r3, #0]
   d9c5a:	4baf      	ldr	r3, [pc, #700]	; (d9f18 <_tzset_unlocked_r+0x2e0>)
   d9c5c:	6018      	str	r0, [r3, #0]
   d9c5e:	4baf      	ldr	r3, [pc, #700]	; (d9f1c <_tzset_unlocked_r+0x2e4>)
   d9c60:	6830      	ldr	r0, [r6, #0]
   d9c62:	601a      	str	r2, [r3, #0]
   d9c64:	605a      	str	r2, [r3, #4]
   d9c66:	f7fc fae1 	bl	d622c <free>
   d9c6a:	6035      	str	r5, [r6, #0]
   d9c6c:	e148      	b.n	d9f00 <_tzset_unlocked_r+0x2c8>
   d9c6e:	6831      	ldr	r1, [r6, #0]
   d9c70:	b979      	cbnz	r1, d9c92 <_tzset_unlocked_r+0x5a>
   d9c72:	6830      	ldr	r0, [r6, #0]
   d9c74:	f7fc fada 	bl	d622c <free>
   d9c78:	4628      	mov	r0, r5
   d9c7a:	f7fe ffbe 	bl	d8bfa <strlen>
   d9c7e:	1c41      	adds	r1, r0, #1
   d9c80:	4638      	mov	r0, r7
   d9c82:	f7fc fafb 	bl	d627c <_malloc_r>
   d9c86:	6030      	str	r0, [r6, #0]
   d9c88:	b148      	cbz	r0, d9c9e <_tzset_unlocked_r+0x66>
   d9c8a:	4629      	mov	r1, r5
   d9c8c:	f7fe ff92 	bl	d8bb4 <strcpy>
   d9c90:	e005      	b.n	d9c9e <_tzset_unlocked_r+0x66>
   d9c92:	f7fe ff85 	bl	d8ba0 <strcmp>
   d9c96:	2800      	cmp	r0, #0
   d9c98:	f000 8132 	beq.w	d9f00 <_tzset_unlocked_r+0x2c8>
   d9c9c:	e7e9      	b.n	d9c72 <_tzset_unlocked_r+0x3a>
   d9c9e:	782b      	ldrb	r3, [r5, #0]
   d9ca0:	4a9f      	ldr	r2, [pc, #636]	; (d9f20 <_tzset_unlocked_r+0x2e8>)
   d9ca2:	49a0      	ldr	r1, [pc, #640]	; (d9f24 <_tzset_unlocked_r+0x2ec>)
   d9ca4:	2b3a      	cmp	r3, #58	; 0x3a
   d9ca6:	bf08      	it	eq
   d9ca8:	3501      	addeq	r5, #1
   d9caa:	ae0a      	add	r6, sp, #40	; 0x28
   d9cac:	4633      	mov	r3, r6
   d9cae:	4628      	mov	r0, r5
   d9cb0:	f7fc facc 	bl	d624c <siscanf>
   d9cb4:	2800      	cmp	r0, #0
   d9cb6:	f340 8123 	ble.w	d9f00 <_tzset_unlocked_r+0x2c8>
   d9cba:	9b0a      	ldr	r3, [sp, #40]	; 0x28
   d9cbc:	18ef      	adds	r7, r5, r3
   d9cbe:	5ceb      	ldrb	r3, [r5, r3]
   d9cc0:	2b2d      	cmp	r3, #45	; 0x2d
   d9cc2:	d103      	bne.n	d9ccc <_tzset_unlocked_r+0x94>
   d9cc4:	3701      	adds	r7, #1
   d9cc6:	f04f 35ff 	mov.w	r5, #4294967295	; 0xffffffff
   d9cca:	e003      	b.n	d9cd4 <_tzset_unlocked_r+0x9c>
   d9ccc:	2b2b      	cmp	r3, #43	; 0x2b
   d9cce:	bf08      	it	eq
   d9cd0:	3701      	addeq	r7, #1
   d9cd2:	2501      	movs	r5, #1
   d9cd4:	f10d 0a20 	add.w	sl, sp, #32
   d9cd8:	f10d 0b1e 	add.w	fp, sp, #30
   d9cdc:	f04f 0800 	mov.w	r8, #0
   d9ce0:	9603      	str	r6, [sp, #12]
   d9ce2:	f8cd a008 	str.w	sl, [sp, #8]
   d9ce6:	9601      	str	r6, [sp, #4]
   d9ce8:	f8cd b000 	str.w	fp, [sp]
   d9cec:	4633      	mov	r3, r6
   d9cee:	aa07      	add	r2, sp, #28
   d9cf0:	498d      	ldr	r1, [pc, #564]	; (d9f28 <_tzset_unlocked_r+0x2f0>)
   d9cf2:	f8ad 801e 	strh.w	r8, [sp, #30]
   d9cf6:	4638      	mov	r0, r7
   d9cf8:	f8ad 8020 	strh.w	r8, [sp, #32]
   d9cfc:	f7fc faa6 	bl	d624c <siscanf>
   d9d00:	4540      	cmp	r0, r8
   d9d02:	f340 80fd 	ble.w	d9f00 <_tzset_unlocked_r+0x2c8>
   d9d06:	f8bd 201e 	ldrh.w	r2, [sp, #30]
   d9d0a:	f8bd 3020 	ldrh.w	r3, [sp, #32]
   d9d0e:	f8df 9224 	ldr.w	r9, [pc, #548]	; d9f34 <_tzset_unlocked_r+0x2fc>
   d9d12:	213c      	movs	r1, #60	; 0x3c
   d9d14:	fb01 3302 	mla	r3, r1, r2, r3
   d9d18:	f8bd 201c 	ldrh.w	r2, [sp, #28]
   d9d1c:	f44f 6161 	mov.w	r1, #3600	; 0xe10
   d9d20:	fb01 3302 	mla	r3, r1, r2, r3
   d9d24:	435d      	muls	r5, r3
   d9d26:	6225      	str	r5, [r4, #32]
   d9d28:	4d7c      	ldr	r5, [pc, #496]	; (d9f1c <_tzset_unlocked_r+0x2e4>)
   d9d2a:	4b7d      	ldr	r3, [pc, #500]	; (d9f20 <_tzset_unlocked_r+0x2e8>)
   d9d2c:	602b      	str	r3, [r5, #0]
   d9d2e:	9b0a      	ldr	r3, [sp, #40]	; 0x28
   d9d30:	497c      	ldr	r1, [pc, #496]	; (d9f24 <_tzset_unlocked_r+0x2ec>)
   d9d32:	441f      	add	r7, r3
   d9d34:	464a      	mov	r2, r9
   d9d36:	4633      	mov	r3, r6
   d9d38:	4638      	mov	r0, r7
   d9d3a:	f7fc fa87 	bl	d624c <siscanf>
   d9d3e:	4540      	cmp	r0, r8
   d9d40:	dc08      	bgt.n	d9d54 <_tzset_unlocked_r+0x11c>
   d9d42:	682b      	ldr	r3, [r5, #0]
   d9d44:	606b      	str	r3, [r5, #4]
   d9d46:	4b72      	ldr	r3, [pc, #456]	; (d9f10 <_tzset_unlocked_r+0x2d8>)
   d9d48:	6a22      	ldr	r2, [r4, #32]
   d9d4a:	601a      	str	r2, [r3, #0]
   d9d4c:	4b72      	ldr	r3, [pc, #456]	; (d9f18 <_tzset_unlocked_r+0x2e0>)
   d9d4e:	f8c3 8000 	str.w	r8, [r3]
   d9d52:	e0d5      	b.n	d9f00 <_tzset_unlocked_r+0x2c8>
   d9d54:	9b0a      	ldr	r3, [sp, #40]	; 0x28
   d9d56:	f8c5 9004 	str.w	r9, [r5, #4]
   d9d5a:	18fd      	adds	r5, r7, r3
   d9d5c:	5cfb      	ldrb	r3, [r7, r3]
   d9d5e:	2b2d      	cmp	r3, #45	; 0x2d
   d9d60:	d103      	bne.n	d9d6a <_tzset_unlocked_r+0x132>
   d9d62:	3501      	adds	r5, #1
   d9d64:	f04f 37ff 	mov.w	r7, #4294967295	; 0xffffffff
   d9d68:	e003      	b.n	d9d72 <_tzset_unlocked_r+0x13a>
   d9d6a:	2b2b      	cmp	r3, #43	; 0x2b
   d9d6c:	bf08      	it	eq
   d9d6e:	3501      	addeq	r5, #1
   d9d70:	2701      	movs	r7, #1
   d9d72:	2300      	movs	r3, #0
   d9d74:	f8ad 301c 	strh.w	r3, [sp, #28]
   d9d78:	f8ad 301e 	strh.w	r3, [sp, #30]
   d9d7c:	f8ad 3020 	strh.w	r3, [sp, #32]
   d9d80:	930a      	str	r3, [sp, #40]	; 0x28
   d9d82:	9603      	str	r6, [sp, #12]
   d9d84:	f8cd a008 	str.w	sl, [sp, #8]
   d9d88:	9601      	str	r6, [sp, #4]
   d9d8a:	f8cd b000 	str.w	fp, [sp]
   d9d8e:	4633      	mov	r3, r6
   d9d90:	aa07      	add	r2, sp, #28
   d9d92:	4965      	ldr	r1, [pc, #404]	; (d9f28 <_tzset_unlocked_r+0x2f0>)
   d9d94:	4628      	mov	r0, r5
   d9d96:	f7fc fa59 	bl	d624c <siscanf>
   d9d9a:	2800      	cmp	r0, #0
   d9d9c:	dc04      	bgt.n	d9da8 <_tzset_unlocked_r+0x170>
   d9d9e:	6a23      	ldr	r3, [r4, #32]
   d9da0:	f5a3 6361 	sub.w	r3, r3, #3600	; 0xe10
   d9da4:	63e3      	str	r3, [r4, #60]	; 0x3c
   d9da6:	e00e      	b.n	d9dc6 <_tzset_unlocked_r+0x18e>
   d9da8:	f8bd 201e 	ldrh.w	r2, [sp, #30]
   d9dac:	f8bd 3020 	ldrh.w	r3, [sp, #32]
   d9db0:	213c      	movs	r1, #60	; 0x3c
   d9db2:	fb01 3302 	mla	r3, r1, r2, r3
   d9db6:	f8bd 201c 	ldrh.w	r2, [sp, #28]
   d9dba:	f44f 6161 	mov.w	r1, #3600	; 0xe10
   d9dbe:	fb01 3302 	mla	r3, r1, r2, r3
   d9dc2:	435f      	muls	r7, r3
   d9dc4:	63e7      	str	r7, [r4, #60]	; 0x3c
   d9dc6:	9b0a      	ldr	r3, [sp, #40]	; 0x28
   d9dc8:	4627      	mov	r7, r4
   d9dca:	441d      	add	r5, r3
   d9dcc:	f04f 0900 	mov.w	r9, #0
   d9dd0:	782b      	ldrb	r3, [r5, #0]
   d9dd2:	2b2c      	cmp	r3, #44	; 0x2c
   d9dd4:	bf08      	it	eq
   d9dd6:	3501      	addeq	r5, #1
   d9dd8:	f895 8000 	ldrb.w	r8, [r5]
   d9ddc:	f1b8 0f4d 	cmp.w	r8, #77	; 0x4d
   d9de0:	d126      	bne.n	d9e30 <_tzset_unlocked_r+0x1f8>
   d9de2:	f10d 0326 	add.w	r3, sp, #38	; 0x26
   d9de6:	9302      	str	r3, [sp, #8]
   d9de8:	ab09      	add	r3, sp, #36	; 0x24
   d9dea:	9300      	str	r3, [sp, #0]
   d9dec:	9603      	str	r6, [sp, #12]
   d9dee:	9601      	str	r6, [sp, #4]
   d9df0:	4633      	mov	r3, r6
   d9df2:	f10d 0222 	add.w	r2, sp, #34	; 0x22
   d9df6:	494d      	ldr	r1, [pc, #308]	; (d9f2c <_tzset_unlocked_r+0x2f4>)
   d9df8:	4628      	mov	r0, r5
   d9dfa:	f7fc fa27 	bl	d624c <siscanf>
   d9dfe:	2803      	cmp	r0, #3
   d9e00:	d17e      	bne.n	d9f00 <_tzset_unlocked_r+0x2c8>
   d9e02:	f8bd 1022 	ldrh.w	r1, [sp, #34]	; 0x22
   d9e06:	1e4b      	subs	r3, r1, #1
   d9e08:	2b0b      	cmp	r3, #11
   d9e0a:	d879      	bhi.n	d9f00 <_tzset_unlocked_r+0x2c8>
   d9e0c:	f8bd 2024 	ldrh.w	r2, [sp, #36]	; 0x24
   d9e10:	1e53      	subs	r3, r2, #1
   d9e12:	2b04      	cmp	r3, #4
   d9e14:	d874      	bhi.n	d9f00 <_tzset_unlocked_r+0x2c8>
   d9e16:	f8bd 3026 	ldrh.w	r3, [sp, #38]	; 0x26
   d9e1a:	2b06      	cmp	r3, #6
   d9e1c:	d870      	bhi.n	d9f00 <_tzset_unlocked_r+0x2c8>
   d9e1e:	f887 8008 	strb.w	r8, [r7, #8]
   d9e22:	60f9      	str	r1, [r7, #12]
   d9e24:	613a      	str	r2, [r7, #16]
   d9e26:	617b      	str	r3, [r7, #20]
   d9e28:	9b0a      	ldr	r3, [sp, #40]	; 0x28
   d9e2a:	eb05 0803 	add.w	r8, r5, r3
   d9e2e:	e02a      	b.n	d9e86 <_tzset_unlocked_r+0x24e>
   d9e30:	f1b8 0f4a 	cmp.w	r8, #74	; 0x4a
   d9e34:	bf06      	itte	eq
   d9e36:	3501      	addeq	r5, #1
   d9e38:	4643      	moveq	r3, r8
   d9e3a:	2344      	movne	r3, #68	; 0x44
   d9e3c:	220a      	movs	r2, #10
   d9e3e:	a90b      	add	r1, sp, #44	; 0x2c
   d9e40:	4628      	mov	r0, r5
   d9e42:	9305      	str	r3, [sp, #20]
   d9e44:	f7ff fe3e 	bl	d9ac4 <strtoul>
   d9e48:	f8dd 802c 	ldr.w	r8, [sp, #44]	; 0x2c
   d9e4c:	f8ad 0026 	strh.w	r0, [sp, #38]	; 0x26
   d9e50:	4545      	cmp	r5, r8
   d9e52:	9b05      	ldr	r3, [sp, #20]
   d9e54:	d114      	bne.n	d9e80 <_tzset_unlocked_r+0x248>
   d9e56:	234d      	movs	r3, #77	; 0x4d
   d9e58:	f1b9 0f00 	cmp.w	r9, #0
   d9e5c:	d107      	bne.n	d9e6e <_tzset_unlocked_r+0x236>
   d9e5e:	7223      	strb	r3, [r4, #8]
   d9e60:	2303      	movs	r3, #3
   d9e62:	60e3      	str	r3, [r4, #12]
   d9e64:	2302      	movs	r3, #2
   d9e66:	6123      	str	r3, [r4, #16]
   d9e68:	f8c4 9014 	str.w	r9, [r4, #20]
   d9e6c:	e00b      	b.n	d9e86 <_tzset_unlocked_r+0x24e>
   d9e6e:	f884 3024 	strb.w	r3, [r4, #36]	; 0x24
   d9e72:	230b      	movs	r3, #11
   d9e74:	62a3      	str	r3, [r4, #40]	; 0x28
   d9e76:	2301      	movs	r3, #1
   d9e78:	62e3      	str	r3, [r4, #44]	; 0x2c
   d9e7a:	2300      	movs	r3, #0
   d9e7c:	6323      	str	r3, [r4, #48]	; 0x30
   d9e7e:	e002      	b.n	d9e86 <_tzset_unlocked_r+0x24e>
   d9e80:	b280      	uxth	r0, r0
   d9e82:	723b      	strb	r3, [r7, #8]
   d9e84:	6178      	str	r0, [r7, #20]
   d9e86:	2302      	movs	r3, #2
   d9e88:	f8ad 301c 	strh.w	r3, [sp, #28]
   d9e8c:	2300      	movs	r3, #0
   d9e8e:	f8ad 301e 	strh.w	r3, [sp, #30]
   d9e92:	f8ad 3020 	strh.w	r3, [sp, #32]
   d9e96:	930a      	str	r3, [sp, #40]	; 0x28
   d9e98:	f898 3000 	ldrb.w	r3, [r8]
   d9e9c:	2b2f      	cmp	r3, #47	; 0x2f
   d9e9e:	d10b      	bne.n	d9eb8 <_tzset_unlocked_r+0x280>
   d9ea0:	9603      	str	r6, [sp, #12]
   d9ea2:	f8cd a008 	str.w	sl, [sp, #8]
   d9ea6:	9601      	str	r6, [sp, #4]
   d9ea8:	f8cd b000 	str.w	fp, [sp]
   d9eac:	4633      	mov	r3, r6
   d9eae:	aa07      	add	r2, sp, #28
   d9eb0:	491f      	ldr	r1, [pc, #124]	; (d9f30 <_tzset_unlocked_r+0x2f8>)
   d9eb2:	4640      	mov	r0, r8
   d9eb4:	f7fc f9ca 	bl	d624c <siscanf>
   d9eb8:	f8bd 201e 	ldrh.w	r2, [sp, #30]
   d9ebc:	f8bd 3020 	ldrh.w	r3, [sp, #32]
   d9ec0:	213c      	movs	r1, #60	; 0x3c
   d9ec2:	fb01 3302 	mla	r3, r1, r2, r3
   d9ec6:	f8bd 201c 	ldrh.w	r2, [sp, #28]
   d9eca:	f44f 6161 	mov.w	r1, #3600	; 0xe10
   d9ece:	fb01 3302 	mla	r3, r1, r2, r3
   d9ed2:	61bb      	str	r3, [r7, #24]
   d9ed4:	9d0a      	ldr	r5, [sp, #40]	; 0x28
   d9ed6:	f109 0901 	add.w	r9, r9, #1
   d9eda:	f1b9 0f02 	cmp.w	r9, #2
   d9ede:	4445      	add	r5, r8
   d9ee0:	f107 071c 	add.w	r7, r7, #28
   d9ee4:	f47f af74 	bne.w	d9dd0 <_tzset_unlocked_r+0x198>
   d9ee8:	6860      	ldr	r0, [r4, #4]
   d9eea:	f7ff fdf5 	bl	d9ad8 <__tzcalc_limits>
   d9eee:	4b08      	ldr	r3, [pc, #32]	; (d9f10 <_tzset_unlocked_r+0x2d8>)
   d9ef0:	6a22      	ldr	r2, [r4, #32]
   d9ef2:	601a      	str	r2, [r3, #0]
   d9ef4:	6be3      	ldr	r3, [r4, #60]	; 0x3c
   d9ef6:	1a9b      	subs	r3, r3, r2
   d9ef8:	4a07      	ldr	r2, [pc, #28]	; (d9f18 <_tzset_unlocked_r+0x2e0>)
   d9efa:	bf18      	it	ne
   d9efc:	2301      	movne	r3, #1
   d9efe:	6013      	str	r3, [r2, #0]
   d9f00:	b00d      	add	sp, #52	; 0x34
   d9f02:	e8bd 8ff0 	ldmia.w	sp!, {r4, r5, r6, r7, r8, r9, sl, fp, pc}
   d9f06:	bf00      	nop
   d9f08:	000db818 	.word	0x000db818
   d9f0c:	2003e7e4 	.word	0x2003e7e4
   d9f10:	2003e7ec 	.word	0x2003e7ec
   d9f14:	000db81b 	.word	0x000db81b
   d9f18:	2003e7e8 	.word	0x2003e7e8
   d9f1c:	2003e0e0 	.word	0x2003e0e0
   d9f20:	2003e7d7 	.word	0x2003e7d7
   d9f24:	000db81f 	.word	0x000db81f
   d9f28:	000db842 	.word	0x000db842
   d9f2c:	000db82e 	.word	0x000db82e
   d9f30:	000db841 	.word	0x000db841
   d9f34:	2003e7cc 	.word	0x2003e7cc

000d9f38 <rshift>:
   d9f38:	b5f0      	push	{r4, r5, r6, r7, lr}
   d9f3a:	6906      	ldr	r6, [r0, #16]
   d9f3c:	114b      	asrs	r3, r1, #5
   d9f3e:	42b3      	cmp	r3, r6
   d9f40:	f100 0514 	add.w	r5, r0, #20
   d9f44:	da27      	bge.n	d9f96 <rshift+0x5e>
   d9f46:	f011 011f 	ands.w	r1, r1, #31
   d9f4a:	eb05 0686 	add.w	r6, r5, r6, lsl #2
   d9f4e:	eb05 0283 	add.w	r2, r5, r3, lsl #2
   d9f52:	d101      	bne.n	d9f58 <rshift+0x20>
   d9f54:	4629      	mov	r1, r5
   d9f56:	e016      	b.n	d9f86 <rshift+0x4e>
   d9f58:	1d14      	adds	r4, r2, #4
   d9f5a:	f855 2023 	ldr.w	r2, [r5, r3, lsl #2]
   d9f5e:	f1c1 0e20 	rsb	lr, r1, #32
   d9f62:	40ca      	lsrs	r2, r1
   d9f64:	462b      	mov	r3, r5
   d9f66:	42b4      	cmp	r4, r6
   d9f68:	d209      	bcs.n	d9f7e <rshift+0x46>
   d9f6a:	6827      	ldr	r7, [r4, #0]
   d9f6c:	fa07 f70e 	lsl.w	r7, r7, lr
   d9f70:	433a      	orrs	r2, r7
   d9f72:	f843 2b04 	str.w	r2, [r3], #4
   d9f76:	f854 2b04 	ldr.w	r2, [r4], #4
   d9f7a:	40ca      	lsrs	r2, r1
   d9f7c:	e7f3      	b.n	d9f66 <rshift+0x2e>
   d9f7e:	601a      	str	r2, [r3, #0]
   d9f80:	b152      	cbz	r2, d9f98 <rshift+0x60>
   d9f82:	3304      	adds	r3, #4
   d9f84:	e008      	b.n	d9f98 <rshift+0x60>
   d9f86:	42b2      	cmp	r2, r6
   d9f88:	460b      	mov	r3, r1
   d9f8a:	d205      	bcs.n	d9f98 <rshift+0x60>
   d9f8c:	f852 3b04 	ldr.w	r3, [r2], #4
   d9f90:	f841 3b04 	str.w	r3, [r1], #4
   d9f94:	e7f7      	b.n	d9f86 <rshift+0x4e>
   d9f96:	462b      	mov	r3, r5
   d9f98:	1b5b      	subs	r3, r3, r5
   d9f9a:	109b      	asrs	r3, r3, #2
   d9f9c:	6103      	str	r3, [r0, #16]
   d9f9e:	b903      	cbnz	r3, d9fa2 <rshift+0x6a>
   d9fa0:	6143      	str	r3, [r0, #20]
   d9fa2:	bdf0      	pop	{r4, r5, r6, r7, pc}

000d9fa4 <__hexdig_fun>:
   d9fa4:	f1a0 0330 	sub.w	r3, r0, #48	; 0x30
   d9fa8:	2b09      	cmp	r3, #9
   d9faa:	d801      	bhi.n	d9fb0 <__hexdig_fun+0xc>
   d9fac:	3820      	subs	r0, #32
   d9fae:	e00a      	b.n	d9fc6 <__hexdig_fun+0x22>
   d9fb0:	f1a0 0361 	sub.w	r3, r0, #97	; 0x61
   d9fb4:	2b05      	cmp	r3, #5
   d9fb6:	d801      	bhi.n	d9fbc <__hexdig_fun+0x18>
   d9fb8:	3847      	subs	r0, #71	; 0x47
   d9fba:	e004      	b.n	d9fc6 <__hexdig_fun+0x22>
   d9fbc:	f1a0 0341 	sub.w	r3, r0, #65	; 0x41
   d9fc0:	2b05      	cmp	r3, #5
   d9fc2:	d802      	bhi.n	d9fca <__hexdig_fun+0x26>
   d9fc4:	3827      	subs	r0, #39	; 0x27
   d9fc6:	b2c0      	uxtb	r0, r0
   d9fc8:	4770      	bx	lr
   d9fca:	2000      	movs	r0, #0
   d9fcc:	4770      	bx	lr

000d9fce <__gethex>:
   d9fce:	e92d 4ff0 	stmdb	sp!, {r4, r5, r6, r7, r8, r9, sl, fp, lr}
   d9fd2:	b08b      	sub	sp, #44	; 0x2c
   d9fd4:	468a      	mov	sl, r1
   d9fd6:	4690      	mov	r8, r2
   d9fd8:	9306      	str	r3, [sp, #24]
   d9fda:	9002      	str	r0, [sp, #8]
   d9fdc:	f7fe fda0 	bl	d8b20 <_localeconv_r>
   d9fe0:	6803      	ldr	r3, [r0, #0]
   d9fe2:	9303      	str	r3, [sp, #12]
   d9fe4:	4618      	mov	r0, r3
   d9fe6:	f7fe fe08 	bl	d8bfa <strlen>
   d9fea:	9b03      	ldr	r3, [sp, #12]
   d9fec:	9001      	str	r0, [sp, #4]
   d9fee:	4403      	add	r3, r0
   d9ff0:	f04f 0b00 	mov.w	fp, #0
   d9ff4:	f813 3c01 	ldrb.w	r3, [r3, #-1]
   d9ff8:	9307      	str	r3, [sp, #28]
   d9ffa:	f8da 3000 	ldr.w	r3, [sl]
   d9ffe:	3302      	adds	r3, #2
   da000:	461f      	mov	r7, r3
   da002:	f813 0b01 	ldrb.w	r0, [r3], #1
   da006:	2830      	cmp	r0, #48	; 0x30
   da008:	d102      	bne.n	da010 <__gethex+0x42>
   da00a:	f10b 0b01 	add.w	fp, fp, #1
   da00e:	e7f7      	b.n	da000 <__gethex+0x32>
   da010:	f7ff ffc8 	bl	d9fa4 <__hexdig_fun>
   da014:	4604      	mov	r4, r0
   da016:	b9e0      	cbnz	r0, da052 <__gethex+0x84>
   da018:	9a01      	ldr	r2, [sp, #4]
   da01a:	9903      	ldr	r1, [sp, #12]
   da01c:	4638      	mov	r0, r7
   da01e:	f7fe fdf4 	bl	d8c0a <strncmp>
   da022:	2800      	cmp	r0, #0
   da024:	d134      	bne.n	da090 <__gethex+0xc2>
   da026:	9b01      	ldr	r3, [sp, #4]
   da028:	5cf8      	ldrb	r0, [r7, r3]
   da02a:	18fe      	adds	r6, r7, r3
   da02c:	f7ff ffba 	bl	d9fa4 <__hexdig_fun>
   da030:	b380      	cbz	r0, da094 <__gethex+0xc6>
   da032:	4633      	mov	r3, r6
   da034:	7818      	ldrb	r0, [r3, #0]
   da036:	2830      	cmp	r0, #48	; 0x30
   da038:	461f      	mov	r7, r3
   da03a:	f103 0301 	add.w	r3, r3, #1
   da03e:	d0f9      	beq.n	da034 <__gethex+0x66>
   da040:	f7ff ffb0 	bl	d9fa4 <__hexdig_fun>
   da044:	fab0 f580 	clz	r5, r0
   da048:	096d      	lsrs	r5, r5, #5
   da04a:	4634      	mov	r4, r6
   da04c:	f04f 0b01 	mov.w	fp, #1
   da050:	e001      	b.n	da056 <__gethex+0x88>
   da052:	2500      	movs	r5, #0
   da054:	462c      	mov	r4, r5
   da056:	463a      	mov	r2, r7
   da058:	4616      	mov	r6, r2
   da05a:	3201      	adds	r2, #1
   da05c:	7830      	ldrb	r0, [r6, #0]
   da05e:	f7ff ffa1 	bl	d9fa4 <__hexdig_fun>
   da062:	2800      	cmp	r0, #0
   da064:	d1f8      	bne.n	da058 <__gethex+0x8a>
   da066:	9a01      	ldr	r2, [sp, #4]
   da068:	9903      	ldr	r1, [sp, #12]
   da06a:	4630      	mov	r0, r6
   da06c:	f7fe fdcd 	bl	d8c0a <strncmp>
   da070:	b950      	cbnz	r0, da088 <__gethex+0xba>
   da072:	b954      	cbnz	r4, da08a <__gethex+0xbc>
   da074:	9b01      	ldr	r3, [sp, #4]
   da076:	18f4      	adds	r4, r6, r3
   da078:	4622      	mov	r2, r4
   da07a:	4616      	mov	r6, r2
   da07c:	3201      	adds	r2, #1
   da07e:	7830      	ldrb	r0, [r6, #0]
   da080:	f7ff ff90 	bl	d9fa4 <__hexdig_fun>
   da084:	2800      	cmp	r0, #0
   da086:	d1f8      	bne.n	da07a <__gethex+0xac>
   da088:	b134      	cbz	r4, da098 <__gethex+0xca>
   da08a:	1ba4      	subs	r4, r4, r6
   da08c:	00a4      	lsls	r4, r4, #2
   da08e:	e003      	b.n	da098 <__gethex+0xca>
   da090:	463e      	mov	r6, r7
   da092:	e000      	b.n	da096 <__gethex+0xc8>
   da094:	4604      	mov	r4, r0
   da096:	2501      	movs	r5, #1
   da098:	7833      	ldrb	r3, [r6, #0]
   da09a:	2b50      	cmp	r3, #80	; 0x50
   da09c:	d001      	beq.n	da0a2 <__gethex+0xd4>
   da09e:	2b70      	cmp	r3, #112	; 0x70
   da0a0:	d12a      	bne.n	da0f8 <__gethex+0x12a>
   da0a2:	7873      	ldrb	r3, [r6, #1]
   da0a4:	2b2b      	cmp	r3, #43	; 0x2b
   da0a6:	d008      	beq.n	da0ba <__gethex+0xec>
   da0a8:	2b2d      	cmp	r3, #45	; 0x2d
   da0aa:	d003      	beq.n	da0b4 <__gethex+0xe6>
   da0ac:	1c71      	adds	r1, r6, #1
   da0ae:	f04f 0900 	mov.w	r9, #0
   da0b2:	e005      	b.n	da0c0 <__gethex+0xf2>
   da0b4:	f04f 0901 	mov.w	r9, #1
   da0b8:	e001      	b.n	da0be <__gethex+0xf0>
   da0ba:	f04f 0900 	mov.w	r9, #0
   da0be:	1cb1      	adds	r1, r6, #2
   da0c0:	7808      	ldrb	r0, [r1, #0]
   da0c2:	f7ff ff6f 	bl	d9fa4 <__hexdig_fun>
   da0c6:	1e43      	subs	r3, r0, #1
   da0c8:	b2db      	uxtb	r3, r3
   da0ca:	2b18      	cmp	r3, #24
   da0cc:	d814      	bhi.n	da0f8 <__gethex+0x12a>
   da0ce:	f1a0 0210 	sub.w	r2, r0, #16
   da0d2:	f811 0f01 	ldrb.w	r0, [r1, #1]!
   da0d6:	f7ff ff65 	bl	d9fa4 <__hexdig_fun>
   da0da:	1e43      	subs	r3, r0, #1
   da0dc:	b2db      	uxtb	r3, r3
   da0de:	2b18      	cmp	r3, #24
   da0e0:	d804      	bhi.n	da0ec <__gethex+0x11e>
   da0e2:	230a      	movs	r3, #10
   da0e4:	fb03 0202 	mla	r2, r3, r2, r0
   da0e8:	3a10      	subs	r2, #16
   da0ea:	e7f2      	b.n	da0d2 <__gethex+0x104>
   da0ec:	f1b9 0f00 	cmp.w	r9, #0
   da0f0:	d000      	beq.n	da0f4 <__gethex+0x126>
   da0f2:	4252      	negs	r2, r2
   da0f4:	4414      	add	r4, r2
   da0f6:	e000      	b.n	da0fa <__gethex+0x12c>
   da0f8:	4631      	mov	r1, r6
   da0fa:	f8ca 1000 	str.w	r1, [sl]
   da0fe:	b12d      	cbz	r5, da10c <__gethex+0x13e>
   da100:	f1bb 0f00 	cmp.w	fp, #0
   da104:	bf14      	ite	ne
   da106:	2000      	movne	r0, #0
   da108:	2006      	moveq	r0, #6
   da10a:	e17c      	b.n	da406 <__gethex+0x438>
   da10c:	1bf3      	subs	r3, r6, r7
   da10e:	3b01      	subs	r3, #1
   da110:	4629      	mov	r1, r5
   da112:	2b07      	cmp	r3, #7
   da114:	dd02      	ble.n	da11c <__gethex+0x14e>
   da116:	3101      	adds	r1, #1
   da118:	105b      	asrs	r3, r3, #1
   da11a:	e7fa      	b.n	da112 <__gethex+0x144>
   da11c:	9802      	ldr	r0, [sp, #8]
   da11e:	f000 fb09 	bl	da734 <_Balloc>
   da122:	9b01      	ldr	r3, [sp, #4]
   da124:	f100 0a14 	add.w	sl, r0, #20
   da128:	f04f 0900 	mov.w	r9, #0
   da12c:	f1c3 0301 	rsb	r3, r3, #1
   da130:	4605      	mov	r5, r0
   da132:	f8cd a010 	str.w	sl, [sp, #16]
   da136:	46cb      	mov	fp, r9
   da138:	9308      	str	r3, [sp, #32]
   da13a:	42b7      	cmp	r7, r6
   da13c:	d22f      	bcs.n	da19e <__gethex+0x1d0>
   da13e:	1e73      	subs	r3, r6, #1
   da140:	9305      	str	r3, [sp, #20]
   da142:	9a07      	ldr	r2, [sp, #28]
   da144:	f816 3c01 	ldrb.w	r3, [r6, #-1]
   da148:	4293      	cmp	r3, r2
   da14a:	d00b      	beq.n	da164 <__gethex+0x196>
   da14c:	f1bb 0f20 	cmp.w	fp, #32
   da150:	d116      	bne.n	da180 <__gethex+0x1b2>
   da152:	9b04      	ldr	r3, [sp, #16]
   da154:	f8c3 9000 	str.w	r9, [r3]
   da158:	3304      	adds	r3, #4
   da15a:	f04f 0900 	mov.w	r9, #0
   da15e:	9304      	str	r3, [sp, #16]
   da160:	46cb      	mov	fp, r9
   da162:	e00d      	b.n	da180 <__gethex+0x1b2>
   da164:	9b05      	ldr	r3, [sp, #20]
   da166:	9a08      	ldr	r2, [sp, #32]
   da168:	4413      	add	r3, r2
   da16a:	429f      	cmp	r7, r3
   da16c:	d8ee      	bhi.n	da14c <__gethex+0x17e>
   da16e:	4618      	mov	r0, r3
   da170:	9a01      	ldr	r2, [sp, #4]
   da172:	9903      	ldr	r1, [sp, #12]
   da174:	9309      	str	r3, [sp, #36]	; 0x24
   da176:	f7fe fd48 	bl	d8c0a <strncmp>
   da17a:	9b09      	ldr	r3, [sp, #36]	; 0x24
   da17c:	b168      	cbz	r0, da19a <__gethex+0x1cc>
   da17e:	e7e5      	b.n	da14c <__gethex+0x17e>
   da180:	f816 0c01 	ldrb.w	r0, [r6, #-1]
   da184:	f7ff ff0e 	bl	d9fa4 <__hexdig_fun>
   da188:	f000 000f 	and.w	r0, r0, #15
   da18c:	fa00 f00b 	lsl.w	r0, r0, fp
   da190:	9b05      	ldr	r3, [sp, #20]
   da192:	ea49 0900 	orr.w	r9, r9, r0
   da196:	f10b 0b04 	add.w	fp, fp, #4
   da19a:	461e      	mov	r6, r3
   da19c:	e7cd      	b.n	da13a <__gethex+0x16c>
   da19e:	9804      	ldr	r0, [sp, #16]
   da1a0:	f840 9b04 	str.w	r9, [r0], #4
   da1a4:	ebca 0000 	rsb	r0, sl, r0
   da1a8:	1080      	asrs	r0, r0, #2
   da1aa:	6128      	str	r0, [r5, #16]
   da1ac:	0147      	lsls	r7, r0, #5
   da1ae:	4648      	mov	r0, r9
   da1b0:	f000 fb85 	bl	da8be <__hi0bits>
   da1b4:	f8d8 6000 	ldr.w	r6, [r8]
   da1b8:	1a38      	subs	r0, r7, r0
   da1ba:	42b0      	cmp	r0, r6
   da1bc:	dd26      	ble.n	da20c <__gethex+0x23e>
   da1be:	1b87      	subs	r7, r0, r6
   da1c0:	4639      	mov	r1, r7
   da1c2:	4628      	mov	r0, r5
   da1c4:	f000 fe83 	bl	daece <__any_on>
   da1c8:	b1c8      	cbz	r0, da1fe <__gethex+0x230>
   da1ca:	1e7b      	subs	r3, r7, #1
   da1cc:	1159      	asrs	r1, r3, #5
   da1ce:	f003 021f 	and.w	r2, r3, #31
   da1d2:	f04f 0901 	mov.w	r9, #1
   da1d6:	f85a 1021 	ldr.w	r1, [sl, r1, lsl #2]
   da1da:	fa09 f202 	lsl.w	r2, r9, r2
   da1de:	420a      	tst	r2, r1
   da1e0:	d00e      	beq.n	da200 <__gethex+0x232>
   da1e2:	454b      	cmp	r3, r9
   da1e4:	dc02      	bgt.n	da1ec <__gethex+0x21e>
   da1e6:	f04f 0902 	mov.w	r9, #2
   da1ea:	e009      	b.n	da200 <__gethex+0x232>
   da1ec:	1eb9      	subs	r1, r7, #2
   da1ee:	4628      	mov	r0, r5
   da1f0:	f000 fe6d 	bl	daece <__any_on>
   da1f4:	2800      	cmp	r0, #0
   da1f6:	d0f6      	beq.n	da1e6 <__gethex+0x218>
   da1f8:	f04f 0903 	mov.w	r9, #3
   da1fc:	e000      	b.n	da200 <__gethex+0x232>
   da1fe:	4681      	mov	r9, r0
   da200:	4639      	mov	r1, r7
   da202:	4628      	mov	r0, r5
   da204:	f7ff fe98 	bl	d9f38 <rshift>
   da208:	443c      	add	r4, r7
   da20a:	e00c      	b.n	da226 <__gethex+0x258>
   da20c:	da09      	bge.n	da222 <__gethex+0x254>
   da20e:	1a37      	subs	r7, r6, r0
   da210:	4629      	mov	r1, r5
   da212:	463a      	mov	r2, r7
   da214:	9802      	ldr	r0, [sp, #8]
   da216:	f000 fc87 	bl	dab28 <__lshift>
   da21a:	1be4      	subs	r4, r4, r7
   da21c:	4605      	mov	r5, r0
   da21e:	f100 0a14 	add.w	sl, r0, #20
   da222:	f04f 0900 	mov.w	r9, #0
   da226:	f8d8 3008 	ldr.w	r3, [r8, #8]
   da22a:	429c      	cmp	r4, r3
   da22c:	dd08      	ble.n	da240 <__gethex+0x272>
   da22e:	9802      	ldr	r0, [sp, #8]
   da230:	4629      	mov	r1, r5
   da232:	f000 fab4 	bl	da79e <_Bfree>
   da236:	9a14      	ldr	r2, [sp, #80]	; 0x50
   da238:	2300      	movs	r3, #0
   da23a:	6013      	str	r3, [r2, #0]
   da23c:	20a3      	movs	r0, #163	; 0xa3
   da23e:	e0e2      	b.n	da406 <__gethex+0x438>
   da240:	f8d8 0004 	ldr.w	r0, [r8, #4]
   da244:	4284      	cmp	r4, r0
   da246:	da53      	bge.n	da2f0 <__gethex+0x322>
   da248:	1b04      	subs	r4, r0, r4
   da24a:	42a6      	cmp	r6, r4
   da24c:	dc2e      	bgt.n	da2ac <__gethex+0x2de>
   da24e:	f8d8 300c 	ldr.w	r3, [r8, #12]
   da252:	2b02      	cmp	r3, #2
   da254:	d01a      	beq.n	da28c <__gethex+0x2be>
   da256:	2b03      	cmp	r3, #3
   da258:	d01c      	beq.n	da294 <__gethex+0x2c6>
   da25a:	2b01      	cmp	r3, #1
   da25c:	d11d      	bne.n	da29a <__gethex+0x2cc>
   da25e:	42a6      	cmp	r6, r4
   da260:	d11b      	bne.n	da29a <__gethex+0x2cc>
   da262:	2e01      	cmp	r6, #1
   da264:	dc0b      	bgt.n	da27e <__gethex+0x2b0>
   da266:	9a06      	ldr	r2, [sp, #24]
   da268:	f8d8 3004 	ldr.w	r3, [r8, #4]
   da26c:	6013      	str	r3, [r2, #0]
   da26e:	2301      	movs	r3, #1
   da270:	612b      	str	r3, [r5, #16]
   da272:	f8ca 3000 	str.w	r3, [sl]
   da276:	9b14      	ldr	r3, [sp, #80]	; 0x50
   da278:	2062      	movs	r0, #98	; 0x62
   da27a:	601d      	str	r5, [r3, #0]
   da27c:	e0c3      	b.n	da406 <__gethex+0x438>
   da27e:	1e71      	subs	r1, r6, #1
   da280:	4628      	mov	r0, r5
   da282:	f000 fe24 	bl	daece <__any_on>
   da286:	2800      	cmp	r0, #0
   da288:	d1ed      	bne.n	da266 <__gethex+0x298>
   da28a:	e006      	b.n	da29a <__gethex+0x2cc>
   da28c:	9b15      	ldr	r3, [sp, #84]	; 0x54
   da28e:	2b00      	cmp	r3, #0
   da290:	d0e9      	beq.n	da266 <__gethex+0x298>
   da292:	e002      	b.n	da29a <__gethex+0x2cc>
   da294:	9b15      	ldr	r3, [sp, #84]	; 0x54
   da296:	2b00      	cmp	r3, #0
   da298:	d1e5      	bne.n	da266 <__gethex+0x298>
   da29a:	9802      	ldr	r0, [sp, #8]
   da29c:	4629      	mov	r1, r5
   da29e:	f000 fa7e 	bl	da79e <_Bfree>
   da2a2:	9a14      	ldr	r2, [sp, #80]	; 0x50
   da2a4:	2300      	movs	r3, #0
   da2a6:	6013      	str	r3, [r2, #0]
   da2a8:	2050      	movs	r0, #80	; 0x50
   da2aa:	e0ac      	b.n	da406 <__gethex+0x438>
   da2ac:	1e67      	subs	r7, r4, #1
   da2ae:	f1b9 0f00 	cmp.w	r9, #0
   da2b2:	d106      	bne.n	da2c2 <__gethex+0x2f4>
   da2b4:	b13f      	cbz	r7, da2c6 <__gethex+0x2f8>
   da2b6:	4639      	mov	r1, r7
   da2b8:	4628      	mov	r0, r5
   da2ba:	f000 fe08 	bl	daece <__any_on>
   da2be:	4681      	mov	r9, r0
   da2c0:	e001      	b.n	da2c6 <__gethex+0x2f8>
   da2c2:	f04f 0901 	mov.w	r9, #1
   da2c6:	117a      	asrs	r2, r7, #5
   da2c8:	2301      	movs	r3, #1
   da2ca:	f007 071f 	and.w	r7, r7, #31
   da2ce:	fa03 f707 	lsl.w	r7, r3, r7
   da2d2:	f85a 3022 	ldr.w	r3, [sl, r2, lsl #2]
   da2d6:	4621      	mov	r1, r4
   da2d8:	421f      	tst	r7, r3
   da2da:	4628      	mov	r0, r5
   da2dc:	bf18      	it	ne
   da2de:	f049 0902 	orrne.w	r9, r9, #2
   da2e2:	1b36      	subs	r6, r6, r4
   da2e4:	f7ff fe28 	bl	d9f38 <rshift>
   da2e8:	2702      	movs	r7, #2
   da2ea:	f8d8 4004 	ldr.w	r4, [r8, #4]
   da2ee:	e000      	b.n	da2f2 <__gethex+0x324>
   da2f0:	2701      	movs	r7, #1
   da2f2:	f1b9 0f00 	cmp.w	r9, #0
   da2f6:	f000 8081 	beq.w	da3fc <__gethex+0x42e>
   da2fa:	f8d8 300c 	ldr.w	r3, [r8, #12]
   da2fe:	2b02      	cmp	r3, #2
   da300:	d00e      	beq.n	da320 <__gethex+0x352>
   da302:	2b03      	cmp	r3, #3
   da304:	d010      	beq.n	da328 <__gethex+0x35a>
   da306:	2b01      	cmp	r3, #1
   da308:	d176      	bne.n	da3f8 <__gethex+0x42a>
   da30a:	f019 0f02 	tst.w	r9, #2
   da30e:	d073      	beq.n	da3f8 <__gethex+0x42a>
   da310:	f8da 0000 	ldr.w	r0, [sl]
   da314:	ea49 0900 	orr.w	r9, r9, r0
   da318:	f019 0f01 	tst.w	r9, #1
   da31c:	d107      	bne.n	da32e <__gethex+0x360>
   da31e:	e06b      	b.n	da3f8 <__gethex+0x42a>
   da320:	9b15      	ldr	r3, [sp, #84]	; 0x54
   da322:	f1c3 0301 	rsb	r3, r3, #1
   da326:	9315      	str	r3, [sp, #84]	; 0x54
   da328:	9b15      	ldr	r3, [sp, #84]	; 0x54
   da32a:	2b00      	cmp	r3, #0
   da32c:	d064      	beq.n	da3f8 <__gethex+0x42a>
   da32e:	f8d5 a010 	ldr.w	sl, [r5, #16]
   da332:	f105 0314 	add.w	r3, r5, #20
   da336:	ea4f 098a 	mov.w	r9, sl, lsl #2
   da33a:	eb03 0109 	add.w	r1, r3, r9
   da33e:	2000      	movs	r0, #0
   da340:	681a      	ldr	r2, [r3, #0]
   da342:	f1b2 3fff 	cmp.w	r2, #4294967295	; 0xffffffff
   da346:	d002      	beq.n	da34e <__gethex+0x380>
   da348:	3201      	adds	r2, #1
   da34a:	601a      	str	r2, [r3, #0]
   da34c:	e020      	b.n	da390 <__gethex+0x3c2>
   da34e:	f843 0b04 	str.w	r0, [r3], #4
   da352:	4299      	cmp	r1, r3
   da354:	d8f4      	bhi.n	da340 <__gethex+0x372>
   da356:	68ab      	ldr	r3, [r5, #8]
   da358:	459a      	cmp	sl, r3
   da35a:	db12      	blt.n	da382 <__gethex+0x3b4>
   da35c:	6869      	ldr	r1, [r5, #4]
   da35e:	9802      	ldr	r0, [sp, #8]
   da360:	3101      	adds	r1, #1
   da362:	f000 f9e7 	bl	da734 <_Balloc>
   da366:	692a      	ldr	r2, [r5, #16]
   da368:	3202      	adds	r2, #2
   da36a:	f105 010c 	add.w	r1, r5, #12
   da36e:	4683      	mov	fp, r0
   da370:	0092      	lsls	r2, r2, #2
   da372:	300c      	adds	r0, #12
   da374:	f7fe fbd8 	bl	d8b28 <memcpy>
   da378:	4629      	mov	r1, r5
   da37a:	9802      	ldr	r0, [sp, #8]
   da37c:	f000 fa0f 	bl	da79e <_Bfree>
   da380:	465d      	mov	r5, fp
   da382:	692b      	ldr	r3, [r5, #16]
   da384:	1c5a      	adds	r2, r3, #1
   da386:	eb05 0383 	add.w	r3, r5, r3, lsl #2
   da38a:	612a      	str	r2, [r5, #16]
   da38c:	2201      	movs	r2, #1
   da38e:	615a      	str	r2, [r3, #20]
   da390:	2f02      	cmp	r7, #2
   da392:	f105 0214 	add.w	r2, r5, #20
   da396:	d111      	bne.n	da3bc <__gethex+0x3ee>
   da398:	f8d8 3000 	ldr.w	r3, [r8]
   da39c:	3b01      	subs	r3, #1
   da39e:	429e      	cmp	r6, r3
   da3a0:	d127      	bne.n	da3f2 <__gethex+0x424>
   da3a2:	1171      	asrs	r1, r6, #5
   da3a4:	2301      	movs	r3, #1
   da3a6:	f006 061f 	and.w	r6, r6, #31
   da3aa:	fa03 f606 	lsl.w	r6, r3, r6
   da3ae:	f852 3021 	ldr.w	r3, [r2, r1, lsl #2]
   da3b2:	421e      	tst	r6, r3
   da3b4:	bf0c      	ite	eq
   da3b6:	2702      	moveq	r7, #2
   da3b8:	2701      	movne	r7, #1
   da3ba:	e01a      	b.n	da3f2 <__gethex+0x424>
   da3bc:	692b      	ldr	r3, [r5, #16]
   da3be:	459a      	cmp	sl, r3
   da3c0:	da0a      	bge.n	da3d8 <__gethex+0x40a>
   da3c2:	2101      	movs	r1, #1
   da3c4:	4628      	mov	r0, r5
   da3c6:	f7ff fdb7 	bl	d9f38 <rshift>
   da3ca:	f8d8 3008 	ldr.w	r3, [r8, #8]
   da3ce:	3401      	adds	r4, #1
   da3d0:	429c      	cmp	r4, r3
   da3d2:	f73f af2c 	bgt.w	da22e <__gethex+0x260>
   da3d6:	e00b      	b.n	da3f0 <__gethex+0x422>
   da3d8:	f016 061f 	ands.w	r6, r6, #31
   da3dc:	d008      	beq.n	da3f0 <__gethex+0x422>
   da3de:	4491      	add	r9, r2
   da3e0:	f1c6 0620 	rsb	r6, r6, #32
   da3e4:	f859 0c04 	ldr.w	r0, [r9, #-4]
   da3e8:	f000 fa69 	bl	da8be <__hi0bits>
   da3ec:	42b0      	cmp	r0, r6
   da3ee:	dbe8      	blt.n	da3c2 <__gethex+0x3f4>
   da3f0:	2701      	movs	r7, #1
   da3f2:	f047 0720 	orr.w	r7, r7, #32
   da3f6:	e001      	b.n	da3fc <__gethex+0x42e>
   da3f8:	f047 0710 	orr.w	r7, r7, #16
   da3fc:	9b14      	ldr	r3, [sp, #80]	; 0x50
   da3fe:	601d      	str	r5, [r3, #0]
   da400:	9b06      	ldr	r3, [sp, #24]
   da402:	4638      	mov	r0, r7
   da404:	601c      	str	r4, [r3, #0]
   da406:	b00b      	add	sp, #44	; 0x2c
   da408:	e8bd 8ff0 	ldmia.w	sp!, {r4, r5, r6, r7, r8, r9, sl, fp, pc}

000da40c <L_shift>:
   da40c:	f1c2 0208 	rsb	r2, r2, #8
   da410:	0092      	lsls	r2, r2, #2
   da412:	b570      	push	{r4, r5, r6, lr}
   da414:	f1c2 0620 	rsb	r6, r2, #32
   da418:	6843      	ldr	r3, [r0, #4]
   da41a:	6805      	ldr	r5, [r0, #0]
   da41c:	fa03 f406 	lsl.w	r4, r3, r6
   da420:	432c      	orrs	r4, r5
   da422:	40d3      	lsrs	r3, r2
   da424:	6004      	str	r4, [r0, #0]
   da426:	f840 3f04 	str.w	r3, [r0, #4]!
   da42a:	4288      	cmp	r0, r1
   da42c:	d3f4      	bcc.n	da418 <L_shift+0xc>
   da42e:	bd70      	pop	{r4, r5, r6, pc}

000da430 <__match>:
   da430:	b530      	push	{r4, r5, lr}
   da432:	6803      	ldr	r3, [r0, #0]
   da434:	f811 4b01 	ldrb.w	r4, [r1], #1
   da438:	3301      	adds	r3, #1
   da43a:	b14c      	cbz	r4, da450 <__match+0x20>
   da43c:	781a      	ldrb	r2, [r3, #0]
   da43e:	f1a2 0541 	sub.w	r5, r2, #65	; 0x41
   da442:	2d19      	cmp	r5, #25
   da444:	bf98      	it	ls
   da446:	3220      	addls	r2, #32
   da448:	42a2      	cmp	r2, r4
   da44a:	d0f3      	beq.n	da434 <__match+0x4>
   da44c:	2000      	movs	r0, #0
   da44e:	bd30      	pop	{r4, r5, pc}
   da450:	6003      	str	r3, [r0, #0]
   da452:	2001      	movs	r0, #1
   da454:	bd30      	pop	{r4, r5, pc}

000da456 <__hexnan>:
   da456:	e92d 4ff0 	stmdb	sp!, {r4, r5, r6, r7, r8, r9, sl, fp, lr}
   da45a:	680b      	ldr	r3, [r1, #0]
   da45c:	f8d0 b000 	ldr.w	fp, [r0]
   da460:	115e      	asrs	r6, r3, #5
   da462:	eb02 0686 	add.w	r6, r2, r6, lsl #2
   da466:	f013 031f 	ands.w	r3, r3, #31
   da46a:	b085      	sub	sp, #20
   da46c:	bf18      	it	ne
   da46e:	3604      	addne	r6, #4
   da470:	1f35      	subs	r5, r6, #4
   da472:	4617      	mov	r7, r2
   da474:	2200      	movs	r2, #0
   da476:	4682      	mov	sl, r0
   da478:	9301      	str	r3, [sp, #4]
   da47a:	f846 2c04 	str.w	r2, [r6, #-4]
   da47e:	46a8      	mov	r8, r5
   da480:	462c      	mov	r4, r5
   da482:	9200      	str	r2, [sp, #0]
   da484:	4691      	mov	r9, r2
   da486:	f81b 1f01 	ldrb.w	r1, [fp, #1]!
   da48a:	2900      	cmp	r1, #0
   da48c:	d03c      	beq.n	da508 <__hexnan+0xb2>
   da48e:	4608      	mov	r0, r1
   da490:	9203      	str	r2, [sp, #12]
   da492:	9102      	str	r1, [sp, #8]
   da494:	f7ff fd86 	bl	d9fa4 <__hexdig_fun>
   da498:	9a03      	ldr	r2, [sp, #12]
   da49a:	bb00      	cbnz	r0, da4de <__hexnan+0x88>
   da49c:	9902      	ldr	r1, [sp, #8]
   da49e:	2920      	cmp	r1, #32
   da4a0:	d816      	bhi.n	da4d0 <__hexnan+0x7a>
   da4a2:	9b00      	ldr	r3, [sp, #0]
   da4a4:	4599      	cmp	r9, r3
   da4a6:	ddee      	ble.n	da486 <__hexnan+0x30>
   da4a8:	4544      	cmp	r4, r8
   da4aa:	d205      	bcs.n	da4b8 <__hexnan+0x62>
   da4ac:	2a07      	cmp	r2, #7
   da4ae:	dc03      	bgt.n	da4b8 <__hexnan+0x62>
   da4b0:	4641      	mov	r1, r8
   da4b2:	4620      	mov	r0, r4
   da4b4:	f7ff ffaa 	bl	da40c <L_shift>
   da4b8:	42bc      	cmp	r4, r7
   da4ba:	d923      	bls.n	da504 <__hexnan+0xae>
   da4bc:	2300      	movs	r3, #0
   da4be:	f1a4 0804 	sub.w	r8, r4, #4
   da4c2:	f844 3c04 	str.w	r3, [r4, #-4]
   da4c6:	f8cd 9000 	str.w	r9, [sp]
   da4ca:	4644      	mov	r4, r8
   da4cc:	461a      	mov	r2, r3
   da4ce:	e7da      	b.n	da486 <__hexnan+0x30>
   da4d0:	2929      	cmp	r1, #41	; 0x29
   da4d2:	d148      	bne.n	da566 <__hexnan+0x110>
   da4d4:	f10b 0301 	add.w	r3, fp, #1
   da4d8:	f8ca 3000 	str.w	r3, [sl]
   da4dc:	e014      	b.n	da508 <__hexnan+0xb2>
   da4de:	3201      	adds	r2, #1
   da4e0:	2a08      	cmp	r2, #8
   da4e2:	f109 0901 	add.w	r9, r9, #1
   da4e6:	dd06      	ble.n	da4f6 <__hexnan+0xa0>
   da4e8:	42bc      	cmp	r4, r7
   da4ea:	d9cc      	bls.n	da486 <__hexnan+0x30>
   da4ec:	2300      	movs	r3, #0
   da4ee:	f844 3c04 	str.w	r3, [r4, #-4]
   da4f2:	2201      	movs	r2, #1
   da4f4:	3c04      	subs	r4, #4
   da4f6:	6821      	ldr	r1, [r4, #0]
   da4f8:	f000 000f 	and.w	r0, r0, #15
   da4fc:	ea40 1001 	orr.w	r0, r0, r1, lsl #4
   da500:	6020      	str	r0, [r4, #0]
   da502:	e7c0      	b.n	da486 <__hexnan+0x30>
   da504:	2208      	movs	r2, #8
   da506:	e7be      	b.n	da486 <__hexnan+0x30>
   da508:	f1b9 0f00 	cmp.w	r9, #0
   da50c:	d02b      	beq.n	da566 <__hexnan+0x110>
   da50e:	4544      	cmp	r4, r8
   da510:	d205      	bcs.n	da51e <__hexnan+0xc8>
   da512:	2a07      	cmp	r2, #7
   da514:	dc03      	bgt.n	da51e <__hexnan+0xc8>
   da516:	4641      	mov	r1, r8
   da518:	4620      	mov	r0, r4
   da51a:	f7ff ff77 	bl	da40c <L_shift>
   da51e:	42bc      	cmp	r4, r7
   da520:	d90c      	bls.n	da53c <__hexnan+0xe6>
   da522:	463b      	mov	r3, r7
   da524:	f854 2b04 	ldr.w	r2, [r4], #4
   da528:	f843 2b04 	str.w	r2, [r3], #4
   da52c:	42a5      	cmp	r5, r4
   da52e:	d2f9      	bcs.n	da524 <__hexnan+0xce>
   da530:	2200      	movs	r2, #0
   da532:	f843 2b04 	str.w	r2, [r3], #4
   da536:	429d      	cmp	r5, r3
   da538:	d2fb      	bcs.n	da532 <__hexnan+0xdc>
   da53a:	e00b      	b.n	da554 <__hexnan+0xfe>
   da53c:	9b01      	ldr	r3, [sp, #4]
   da53e:	b14b      	cbz	r3, da554 <__hexnan+0xfe>
   da540:	f1c3 0220 	rsb	r2, r3, #32
   da544:	f04f 33ff 	mov.w	r3, #4294967295	; 0xffffffff
   da548:	40d3      	lsrs	r3, r2
   da54a:	f856 2c04 	ldr.w	r2, [r6, #-4]
   da54e:	4013      	ands	r3, r2
   da550:	f846 3c04 	str.w	r3, [r6, #-4]
   da554:	682b      	ldr	r3, [r5, #0]
   da556:	b943      	cbnz	r3, da56a <__hexnan+0x114>
   da558:	42bd      	cmp	r5, r7
   da55a:	d102      	bne.n	da562 <__hexnan+0x10c>
   da55c:	2301      	movs	r3, #1
   da55e:	602b      	str	r3, [r5, #0]
   da560:	e003      	b.n	da56a <__hexnan+0x114>
   da562:	3d04      	subs	r5, #4
   da564:	e7f6      	b.n	da554 <__hexnan+0xfe>
   da566:	2004      	movs	r0, #4
   da568:	e000      	b.n	da56c <__hexnan+0x116>
   da56a:	2005      	movs	r0, #5
   da56c:	b005      	add	sp, #20
   da56e:	e8bd 8ff0 	ldmia.w	sp!, {r4, r5, r6, r7, r8, r9, sl, fp, pc}
	...

000da574 <_findenv_r>:
   da574:	e92d 4ff8 	stmdb	sp!, {r3, r4, r5, r6, r7, r8, r9, sl, fp, lr}
   da578:	4607      	mov	r7, r0
   da57a:	468b      	mov	fp, r1
   da57c:	4690      	mov	r8, r2
   da57e:	f000 fcd6 	bl	daf2e <__env_lock>
   da582:	4b19      	ldr	r3, [pc, #100]	; (da5e8 <_findenv_r+0x74>)
   da584:	681d      	ldr	r5, [r3, #0]
   da586:	469a      	mov	sl, r3
   da588:	b13d      	cbz	r5, da59a <_findenv_r+0x26>
   da58a:	465c      	mov	r4, fp
   da58c:	4623      	mov	r3, r4
   da58e:	f813 2b01 	ldrb.w	r2, [r3], #1
   da592:	b142      	cbz	r2, da5a6 <_findenv_r+0x32>
   da594:	2a3d      	cmp	r2, #61	; 0x3d
   da596:	461c      	mov	r4, r3
   da598:	d1f8      	bne.n	da58c <_findenv_r+0x18>
   da59a:	4638      	mov	r0, r7
   da59c:	f000 fcc8 	bl	daf30 <__env_unlock>
   da5a0:	2000      	movs	r0, #0
   da5a2:	e8bd 8ff8 	ldmia.w	sp!, {r3, r4, r5, r6, r7, r8, r9, sl, fp, pc}
   da5a6:	ebcb 0404 	rsb	r4, fp, r4
   da5aa:	46a9      	mov	r9, r5
   da5ac:	f859 0b04 	ldr.w	r0, [r9], #4
   da5b0:	2800      	cmp	r0, #0
   da5b2:	d0f2      	beq.n	da59a <_findenv_r+0x26>
   da5b4:	4622      	mov	r2, r4
   da5b6:	4659      	mov	r1, fp
   da5b8:	f7fe fb27 	bl	d8c0a <strncmp>
   da5bc:	b988      	cbnz	r0, da5e2 <_findenv_r+0x6e>
   da5be:	f859 3c04 	ldr.w	r3, [r9, #-4]
   da5c2:	191e      	adds	r6, r3, r4
   da5c4:	5d1b      	ldrb	r3, [r3, r4]
   da5c6:	2b3d      	cmp	r3, #61	; 0x3d
   da5c8:	d10b      	bne.n	da5e2 <_findenv_r+0x6e>
   da5ca:	f8da 3000 	ldr.w	r3, [sl]
   da5ce:	1aed      	subs	r5, r5, r3
   da5d0:	10ad      	asrs	r5, r5, #2
   da5d2:	4638      	mov	r0, r7
   da5d4:	f8c8 5000 	str.w	r5, [r8]
   da5d8:	f000 fcaa 	bl	daf30 <__env_unlock>
   da5dc:	1c70      	adds	r0, r6, #1
   da5de:	e8bd 8ff8 	ldmia.w	sp!, {r3, r4, r5, r6, r7, r8, r9, sl, fp, pc}
   da5e2:	464d      	mov	r5, r9
   da5e4:	e7e1      	b.n	da5aa <_findenv_r+0x36>
   da5e6:	bf00      	nop
   da5e8:	2003e128 	.word	0x2003e128

000da5ec <_getenv_r>:
   da5ec:	b507      	push	{r0, r1, r2, lr}
   da5ee:	aa01      	add	r2, sp, #4
   da5f0:	f7ff ffc0 	bl	da574 <_findenv_r>
   da5f4:	b003      	add	sp, #12
   da5f6:	f85d fb04 	ldr.w	pc, [sp], #4
	...

000da5fc <__gettzinfo>:
   da5fc:	4800      	ldr	r0, [pc, #0]	; (da600 <__gettzinfo+0x4>)
   da5fe:	4770      	bx	lr
   da600:	2003e0e8 	.word	0x2003e0e8

000da604 <gmtime_r>:
   da604:	6802      	ldr	r2, [r0, #0]
   da606:	4b47      	ldr	r3, [pc, #284]	; (da724 <gmtime_r+0x120>)
   da608:	b5f0      	push	{r4, r5, r6, r7, lr}
   da60a:	fb92 f4f3 	sdiv	r4, r2, r3
   da60e:	fb03 2214 	mls	r2, r3, r4, r2
   da612:	2a00      	cmp	r2, #0
   da614:	bfbc      	itt	lt
   da616:	f502 32a8 	addlt.w	r2, r2, #86016	; 0x15000
   da61a:	f502 72c0 	addlt.w	r2, r2, #384	; 0x180
   da61e:	f44f 6061 	mov.w	r0, #3600	; 0xe10
   da622:	f504 242f 	add.w	r4, r4, #716800	; 0xaf000
   da626:	fb92 f3f0 	sdiv	r3, r2, r0
   da62a:	fb00 2213 	mls	r2, r0, r3, r2
   da62e:	f04f 003c 	mov.w	r0, #60	; 0x3c
   da632:	bfac      	ite	ge
   da634:	f604 246c 	addwge	r4, r4, #2668	; 0xa6c
   da638:	f604 246b 	addwlt	r4, r4, #2667	; 0xa6b
   da63c:	608b      	str	r3, [r1, #8]
   da63e:	fb92 f3f0 	sdiv	r3, r2, r0
   da642:	fb00 2213 	mls	r2, r0, r3, r2
   da646:	604b      	str	r3, [r1, #4]
   da648:	600a      	str	r2, [r1, #0]
   da64a:	2307      	movs	r3, #7
   da64c:	1ce2      	adds	r2, r4, #3
   da64e:	fb92 f3f3 	sdiv	r3, r2, r3
   da652:	ebc3 03c3 	rsb	r3, r3, r3, lsl #3
   da656:	1ad3      	subs	r3, r2, r3
   da658:	618b      	str	r3, [r1, #24]
   da65a:	4b33      	ldr	r3, [pc, #204]	; (da728 <gmtime_r+0x124>)
   da65c:	4d33      	ldr	r5, [pc, #204]	; (da72c <gmtime_r+0x128>)
   da65e:	fb94 f5f5 	sdiv	r5, r4, r5
   da662:	fb03 4405 	mla	r4, r3, r5, r4
   da666:	f648 62ac 	movw	r2, #36524	; 0x8eac
   da66a:	fbb4 f2f2 	udiv	r2, r4, r2
   da66e:	4422      	add	r2, r4
   da670:	f240 57b4 	movw	r7, #1460	; 0x5b4
   da674:	fbb4 f3f7 	udiv	r3, r4, r7
   da678:	1ad2      	subs	r2, r2, r3
   da67a:	482d      	ldr	r0, [pc, #180]	; (da730 <gmtime_r+0x12c>)
   da67c:	fbb4 f0f0 	udiv	r0, r4, r0
   da680:	f648 6694 	movw	r6, #36500	; 0x8e94
   da684:	1a13      	subs	r3, r2, r0
   da686:	fbb3 f6f6 	udiv	r6, r3, r6
   da68a:	4434      	add	r4, r6
   da68c:	f240 126d 	movw	r2, #365	; 0x16d
   da690:	fbb3 f0f2 	udiv	r0, r3, r2
   da694:	fbb3 f3f7 	udiv	r3, r3, r7
   da698:	1ae3      	subs	r3, r4, r3
   da69a:	fb02 3310 	mls	r3, r2, r0, r3
   da69e:	2499      	movs	r4, #153	; 0x99
   da6a0:	eb03 0283 	add.w	r2, r3, r3, lsl #2
   da6a4:	3202      	adds	r2, #2
   da6a6:	fbb2 f2f4 	udiv	r2, r2, r4
   da6aa:	2a0a      	cmp	r2, #10
   da6ac:	fb04 f402 	mul.w	r4, r4, r2
   da6b0:	f104 0602 	add.w	r6, r4, #2
   da6b4:	f04f 0405 	mov.w	r4, #5
   da6b8:	fbb6 f4f4 	udiv	r4, r6, r4
   da6bc:	bf34      	ite	cc
   da6be:	2602      	movcc	r6, #2
   da6c0:	f06f 0609 	mvncs.w	r6, #9
   da6c4:	4416      	add	r6, r2
   da6c6:	f44f 72c8 	mov.w	r2, #400	; 0x190
   da6ca:	fb02 0505 	mla	r5, r2, r5, r0
   da6ce:	1c5f      	adds	r7, r3, #1
   da6d0:	2e01      	cmp	r6, #1
   da6d2:	bf98      	it	ls
   da6d4:	3501      	addls	r5, #1
   da6d6:	f5b3 7f99 	cmp.w	r3, #306	; 0x132
   da6da:	eba7 0704 	sub.w	r7, r7, r4
   da6de:	d302      	bcc.n	da6e6 <gmtime_r+0xe2>
   da6e0:	f5a3 7299 	sub.w	r2, r3, #306	; 0x132
   da6e4:	e014      	b.n	da710 <gmtime_r+0x10c>
   da6e6:	0782      	lsls	r2, r0, #30
   da6e8:	d105      	bne.n	da6f6 <gmtime_r+0xf2>
   da6ea:	2464      	movs	r4, #100	; 0x64
   da6ec:	fbb0 f2f4 	udiv	r2, r0, r4
   da6f0:	fb04 0212 	mls	r2, r4, r2, r0
   da6f4:	b94a      	cbnz	r2, da70a <gmtime_r+0x106>
   da6f6:	f44f 72c8 	mov.w	r2, #400	; 0x190
   da6fa:	fbb0 f4f2 	udiv	r4, r0, r2
   da6fe:	fb02 0014 	mls	r0, r2, r4, r0
   da702:	fab0 f280 	clz	r2, r0
   da706:	0952      	lsrs	r2, r2, #5
   da708:	e000      	b.n	da70c <gmtime_r+0x108>
   da70a:	2201      	movs	r2, #1
   da70c:	333b      	adds	r3, #59	; 0x3b
   da70e:	441a      	add	r2, r3
   da710:	f2a5 756c 	subw	r5, r5, #1900	; 0x76c
   da714:	2300      	movs	r3, #0
   da716:	61ca      	str	r2, [r1, #28]
   da718:	614d      	str	r5, [r1, #20]
   da71a:	610e      	str	r6, [r1, #16]
   da71c:	60cf      	str	r7, [r1, #12]
   da71e:	620b      	str	r3, [r1, #32]
   da720:	4608      	mov	r0, r1
   da722:	bdf0      	pop	{r4, r5, r6, r7, pc}
   da724:	00015180 	.word	0x00015180
   da728:	fffdc54f 	.word	0xfffdc54f
   da72c:	00023ab1 	.word	0x00023ab1
   da730:	00023ab0 	.word	0x00023ab0

000da734 <_Balloc>:
   da734:	b570      	push	{r4, r5, r6, lr}
   da736:	6a45      	ldr	r5, [r0, #36]	; 0x24
   da738:	4604      	mov	r4, r0
   da73a:	460e      	mov	r6, r1
   da73c:	b93d      	cbnz	r5, da74e <_Balloc+0x1a>
   da73e:	2010      	movs	r0, #16
   da740:	f7fb fd6c 	bl	d621c <malloc>
   da744:	6260      	str	r0, [r4, #36]	; 0x24
   da746:	6045      	str	r5, [r0, #4]
   da748:	6085      	str	r5, [r0, #8]
   da74a:	6005      	str	r5, [r0, #0]
   da74c:	60c5      	str	r5, [r0, #12]
   da74e:	6a65      	ldr	r5, [r4, #36]	; 0x24
   da750:	68eb      	ldr	r3, [r5, #12]
   da752:	b143      	cbz	r3, da766 <_Balloc+0x32>
   da754:	6a63      	ldr	r3, [r4, #36]	; 0x24
   da756:	68db      	ldr	r3, [r3, #12]
   da758:	f853 0026 	ldr.w	r0, [r3, r6, lsl #2]
   da75c:	b178      	cbz	r0, da77e <_Balloc+0x4a>
   da75e:	6802      	ldr	r2, [r0, #0]
   da760:	f843 2026 	str.w	r2, [r3, r6, lsl #2]
   da764:	e017      	b.n	da796 <_Balloc+0x62>
   da766:	2221      	movs	r2, #33	; 0x21
   da768:	2104      	movs	r1, #4
   da76a:	4620      	mov	r0, r4
   da76c:	f000 fbd1 	bl	daf12 <_calloc_r>
   da770:	6a63      	ldr	r3, [r4, #36]	; 0x24
   da772:	60e8      	str	r0, [r5, #12]
   da774:	68db      	ldr	r3, [r3, #12]
   da776:	2b00      	cmp	r3, #0
   da778:	d1ec      	bne.n	da754 <_Balloc+0x20>
   da77a:	2000      	movs	r0, #0
   da77c:	bd70      	pop	{r4, r5, r6, pc}
   da77e:	2101      	movs	r1, #1
   da780:	fa01 f506 	lsl.w	r5, r1, r6
   da784:	1d6a      	adds	r2, r5, #5
   da786:	0092      	lsls	r2, r2, #2
   da788:	4620      	mov	r0, r4
   da78a:	f000 fbc2 	bl	daf12 <_calloc_r>
   da78e:	2800      	cmp	r0, #0
   da790:	d0f3      	beq.n	da77a <_Balloc+0x46>
   da792:	6046      	str	r6, [r0, #4]
   da794:	6085      	str	r5, [r0, #8]
   da796:	2300      	movs	r3, #0
   da798:	6103      	str	r3, [r0, #16]
   da79a:	60c3      	str	r3, [r0, #12]
   da79c:	bd70      	pop	{r4, r5, r6, pc}

000da79e <_Bfree>:
   da79e:	b570      	push	{r4, r5, r6, lr}
   da7a0:	6a44      	ldr	r4, [r0, #36]	; 0x24
   da7a2:	4606      	mov	r6, r0
   da7a4:	460d      	mov	r5, r1
   da7a6:	b93c      	cbnz	r4, da7b8 <_Bfree+0x1a>
   da7a8:	2010      	movs	r0, #16
   da7aa:	f7fb fd37 	bl	d621c <malloc>
   da7ae:	6270      	str	r0, [r6, #36]	; 0x24
   da7b0:	6044      	str	r4, [r0, #4]
   da7b2:	6084      	str	r4, [r0, #8]
   da7b4:	6004      	str	r4, [r0, #0]
   da7b6:	60c4      	str	r4, [r0, #12]
   da7b8:	b13d      	cbz	r5, da7ca <_Bfree+0x2c>
   da7ba:	6a73      	ldr	r3, [r6, #36]	; 0x24
   da7bc:	686a      	ldr	r2, [r5, #4]
   da7be:	68db      	ldr	r3, [r3, #12]
   da7c0:	f853 1022 	ldr.w	r1, [r3, r2, lsl #2]
   da7c4:	6029      	str	r1, [r5, #0]
   da7c6:	f843 5022 	str.w	r5, [r3, r2, lsl #2]
   da7ca:	bd70      	pop	{r4, r5, r6, pc}

000da7cc <__multadd>:
   da7cc:	e92d 41f0 	stmdb	sp!, {r4, r5, r6, r7, r8, lr}
   da7d0:	690d      	ldr	r5, [r1, #16]
   da7d2:	461f      	mov	r7, r3
   da7d4:	4606      	mov	r6, r0
   da7d6:	460c      	mov	r4, r1
   da7d8:	f101 0e14 	add.w	lr, r1, #20
   da7dc:	2300      	movs	r3, #0
   da7de:	f8de 0000 	ldr.w	r0, [lr]
   da7e2:	b281      	uxth	r1, r0
   da7e4:	fb02 7101 	mla	r1, r2, r1, r7
   da7e8:	0c0f      	lsrs	r7, r1, #16
   da7ea:	0c00      	lsrs	r0, r0, #16
   da7ec:	fb02 7000 	mla	r0, r2, r0, r7
   da7f0:	b289      	uxth	r1, r1
   da7f2:	3301      	adds	r3, #1
   da7f4:	eb01 4100 	add.w	r1, r1, r0, lsl #16
   da7f8:	429d      	cmp	r5, r3
   da7fa:	ea4f 4710 	mov.w	r7, r0, lsr #16
   da7fe:	f84e 1b04 	str.w	r1, [lr], #4
   da802:	dcec      	bgt.n	da7de <__multadd+0x12>
   da804:	b1d7      	cbz	r7, da83c <__multadd+0x70>
   da806:	68a3      	ldr	r3, [r4, #8]
   da808:	429d      	cmp	r5, r3
   da80a:	db12      	blt.n	da832 <__multadd+0x66>
   da80c:	6861      	ldr	r1, [r4, #4]
   da80e:	4630      	mov	r0, r6
   da810:	3101      	adds	r1, #1
   da812:	f7ff ff8f 	bl	da734 <_Balloc>
   da816:	6922      	ldr	r2, [r4, #16]
   da818:	3202      	adds	r2, #2
   da81a:	f104 010c 	add.w	r1, r4, #12
   da81e:	4680      	mov	r8, r0
   da820:	0092      	lsls	r2, r2, #2
   da822:	300c      	adds	r0, #12
   da824:	f7fe f980 	bl	d8b28 <memcpy>
   da828:	4621      	mov	r1, r4
   da82a:	4630      	mov	r0, r6
   da82c:	f7ff ffb7 	bl	da79e <_Bfree>
   da830:	4644      	mov	r4, r8
   da832:	eb04 0385 	add.w	r3, r4, r5, lsl #2
   da836:	3501      	adds	r5, #1
   da838:	615f      	str	r7, [r3, #20]
   da83a:	6125      	str	r5, [r4, #16]
   da83c:	4620      	mov	r0, r4
   da83e:	e8bd 81f0 	ldmia.w	sp!, {r4, r5, r6, r7, r8, pc}

000da842 <__s2b>:
   da842:	e92d 43f8 	stmdb	sp!, {r3, r4, r5, r6, r7, r8, r9, lr}
   da846:	460c      	mov	r4, r1
   da848:	4615      	mov	r5, r2
   da84a:	461f      	mov	r7, r3
   da84c:	2209      	movs	r2, #9
   da84e:	3308      	adds	r3, #8
   da850:	4606      	mov	r6, r0
   da852:	fb93 f3f2 	sdiv	r3, r3, r2
   da856:	2100      	movs	r1, #0
   da858:	2201      	movs	r2, #1
   da85a:	429a      	cmp	r2, r3
   da85c:	da02      	bge.n	da864 <__s2b+0x22>
   da85e:	0052      	lsls	r2, r2, #1
   da860:	3101      	adds	r1, #1
   da862:	e7fa      	b.n	da85a <__s2b+0x18>
   da864:	4630      	mov	r0, r6
   da866:	f7ff ff65 	bl	da734 <_Balloc>
   da86a:	9b08      	ldr	r3, [sp, #32]
   da86c:	6143      	str	r3, [r0, #20]
   da86e:	2d09      	cmp	r5, #9
   da870:	f04f 0301 	mov.w	r3, #1
   da874:	6103      	str	r3, [r0, #16]
   da876:	dd11      	ble.n	da89c <__s2b+0x5a>
   da878:	f104 0809 	add.w	r8, r4, #9
   da87c:	46c1      	mov	r9, r8
   da87e:	442c      	add	r4, r5
   da880:	f819 3b01 	ldrb.w	r3, [r9], #1
   da884:	4601      	mov	r1, r0
   da886:	3b30      	subs	r3, #48	; 0x30
   da888:	220a      	movs	r2, #10
   da88a:	4630      	mov	r0, r6
   da88c:	f7ff ff9e 	bl	da7cc <__multadd>
   da890:	45a1      	cmp	r9, r4
   da892:	d1f5      	bne.n	da880 <__s2b+0x3e>
   da894:	eb08 0405 	add.w	r4, r8, r5
   da898:	3c08      	subs	r4, #8
   da89a:	e001      	b.n	da8a0 <__s2b+0x5e>
   da89c:	340a      	adds	r4, #10
   da89e:	2509      	movs	r5, #9
   da8a0:	1b2d      	subs	r5, r5, r4
   da8a2:	1963      	adds	r3, r4, r5
   da8a4:	429f      	cmp	r7, r3
   da8a6:	dd08      	ble.n	da8ba <__s2b+0x78>
   da8a8:	f814 3b01 	ldrb.w	r3, [r4], #1
   da8ac:	4601      	mov	r1, r0
   da8ae:	3b30      	subs	r3, #48	; 0x30
   da8b0:	220a      	movs	r2, #10
   da8b2:	4630      	mov	r0, r6
   da8b4:	f7ff ff8a 	bl	da7cc <__multadd>
   da8b8:	e7f3      	b.n	da8a2 <__s2b+0x60>
   da8ba:	e8bd 83f8 	ldmia.w	sp!, {r3, r4, r5, r6, r7, r8, r9, pc}

000da8be <__hi0bits>:
   da8be:	0c03      	lsrs	r3, r0, #16
   da8c0:	041b      	lsls	r3, r3, #16
   da8c2:	b913      	cbnz	r3, da8ca <__hi0bits+0xc>
   da8c4:	0400      	lsls	r0, r0, #16
   da8c6:	2310      	movs	r3, #16
   da8c8:	e000      	b.n	da8cc <__hi0bits+0xe>
   da8ca:	2300      	movs	r3, #0
   da8cc:	f010 4f7f 	tst.w	r0, #4278190080	; 0xff000000
   da8d0:	bf04      	itt	eq
   da8d2:	0200      	lsleq	r0, r0, #8
   da8d4:	3308      	addeq	r3, #8
   da8d6:	f010 4f70 	tst.w	r0, #4026531840	; 0xf0000000
   da8da:	bf04      	itt	eq
   da8dc:	0100      	lsleq	r0, r0, #4
   da8de:	3304      	addeq	r3, #4
   da8e0:	f010 4f40 	tst.w	r0, #3221225472	; 0xc0000000
   da8e4:	bf04      	itt	eq
   da8e6:	0080      	lsleq	r0, r0, #2
   da8e8:	3302      	addeq	r3, #2
   da8ea:	2800      	cmp	r0, #0
   da8ec:	db03      	blt.n	da8f6 <__hi0bits+0x38>
   da8ee:	0042      	lsls	r2, r0, #1
   da8f0:	d503      	bpl.n	da8fa <__hi0bits+0x3c>
   da8f2:	1c58      	adds	r0, r3, #1
   da8f4:	4770      	bx	lr
   da8f6:	4618      	mov	r0, r3
   da8f8:	4770      	bx	lr
   da8fa:	2020      	movs	r0, #32
   da8fc:	4770      	bx	lr

000da8fe <__lo0bits>:
   da8fe:	6803      	ldr	r3, [r0, #0]
   da900:	f013 0207 	ands.w	r2, r3, #7
   da904:	d00b      	beq.n	da91e <__lo0bits+0x20>
   da906:	07d9      	lsls	r1, r3, #31
   da908:	d422      	bmi.n	da950 <__lo0bits+0x52>
   da90a:	079a      	lsls	r2, r3, #30
   da90c:	bf4b      	itete	mi
   da90e:	085b      	lsrmi	r3, r3, #1
   da910:	089b      	lsrpl	r3, r3, #2
   da912:	6003      	strmi	r3, [r0, #0]
   da914:	6003      	strpl	r3, [r0, #0]
   da916:	bf4c      	ite	mi
   da918:	2001      	movmi	r0, #1
   da91a:	2002      	movpl	r0, #2
   da91c:	4770      	bx	lr
   da91e:	b299      	uxth	r1, r3
   da920:	b909      	cbnz	r1, da926 <__lo0bits+0x28>
   da922:	0c1b      	lsrs	r3, r3, #16
   da924:	2210      	movs	r2, #16
   da926:	f013 0fff 	tst.w	r3, #255	; 0xff
   da92a:	bf04      	itt	eq
   da92c:	0a1b      	lsreq	r3, r3, #8
   da92e:	3208      	addeq	r2, #8
   da930:	0719      	lsls	r1, r3, #28
   da932:	bf04      	itt	eq
   da934:	091b      	lsreq	r3, r3, #4
   da936:	3204      	addeq	r2, #4
   da938:	0799      	lsls	r1, r3, #30
   da93a:	bf04      	itt	eq
   da93c:	089b      	lsreq	r3, r3, #2
   da93e:	3202      	addeq	r2, #2
   da940:	07d9      	lsls	r1, r3, #31
   da942:	d402      	bmi.n	da94a <__lo0bits+0x4c>
   da944:	085b      	lsrs	r3, r3, #1
   da946:	d005      	beq.n	da954 <__lo0bits+0x56>
   da948:	3201      	adds	r2, #1
   da94a:	6003      	str	r3, [r0, #0]
   da94c:	4610      	mov	r0, r2
   da94e:	4770      	bx	lr
   da950:	2000      	movs	r0, #0
   da952:	4770      	bx	lr
   da954:	2020      	movs	r0, #32
   da956:	4770      	bx	lr

000da958 <__i2b>:
   da958:	b510      	push	{r4, lr}
   da95a:	460c      	mov	r4, r1
   da95c:	2101      	movs	r1, #1
   da95e:	f7ff fee9 	bl	da734 <_Balloc>
   da962:	2201      	movs	r2, #1
   da964:	6144      	str	r4, [r0, #20]
   da966:	6102      	str	r2, [r0, #16]
   da968:	bd10      	pop	{r4, pc}

000da96a <__multiply>:
   da96a:	e92d 4ff7 	stmdb	sp!, {r0, r1, r2, r4, r5, r6, r7, r8, r9, sl, fp, lr}
   da96e:	4614      	mov	r4, r2
   da970:	690a      	ldr	r2, [r1, #16]
   da972:	6923      	ldr	r3, [r4, #16]
   da974:	429a      	cmp	r2, r3
   da976:	bfb8      	it	lt
   da978:	460b      	movlt	r3, r1
   da97a:	4688      	mov	r8, r1
   da97c:	bfbc      	itt	lt
   da97e:	46a0      	movlt	r8, r4
   da980:	461c      	movlt	r4, r3
   da982:	f8d8 7010 	ldr.w	r7, [r8, #16]
   da986:	f8d4 9010 	ldr.w	r9, [r4, #16]
   da98a:	f8d8 3008 	ldr.w	r3, [r8, #8]
   da98e:	f8d8 1004 	ldr.w	r1, [r8, #4]
   da992:	eb07 0609 	add.w	r6, r7, r9
   da996:	429e      	cmp	r6, r3
   da998:	bfc8      	it	gt
   da99a:	3101      	addgt	r1, #1
   da99c:	f7ff feca 	bl	da734 <_Balloc>
   da9a0:	f100 0514 	add.w	r5, r0, #20
   da9a4:	eb05 0c86 	add.w	ip, r5, r6, lsl #2
   da9a8:	462b      	mov	r3, r5
   da9aa:	2200      	movs	r2, #0
   da9ac:	4563      	cmp	r3, ip
   da9ae:	d202      	bcs.n	da9b6 <__multiply+0x4c>
   da9b0:	f843 2b04 	str.w	r2, [r3], #4
   da9b4:	e7fa      	b.n	da9ac <__multiply+0x42>
   da9b6:	f104 0214 	add.w	r2, r4, #20
   da9ba:	f108 0114 	add.w	r1, r8, #20
   da9be:	eb02 0389 	add.w	r3, r2, r9, lsl #2
   da9c2:	eb01 0787 	add.w	r7, r1, r7, lsl #2
   da9c6:	9300      	str	r3, [sp, #0]
   da9c8:	9b00      	ldr	r3, [sp, #0]
   da9ca:	9201      	str	r2, [sp, #4]
   da9cc:	4293      	cmp	r3, r2
   da9ce:	d957      	bls.n	daa80 <__multiply+0x116>
   da9d0:	f8b2 b000 	ldrh.w	fp, [r2]
   da9d4:	f1bb 0f00 	cmp.w	fp, #0
   da9d8:	d023      	beq.n	daa22 <__multiply+0xb8>
   da9da:	4689      	mov	r9, r1
   da9dc:	46ae      	mov	lr, r5
   da9de:	f04f 0800 	mov.w	r8, #0
   da9e2:	f859 4b04 	ldr.w	r4, [r9], #4
   da9e6:	f8be a000 	ldrh.w	sl, [lr]
   da9ea:	b2a3      	uxth	r3, r4
   da9ec:	fb0b a303 	mla	r3, fp, r3, sl
   da9f0:	ea4f 4a14 	mov.w	sl, r4, lsr #16
   da9f4:	f8de 4000 	ldr.w	r4, [lr]
   da9f8:	4443      	add	r3, r8
   da9fa:	ea4f 4814 	mov.w	r8, r4, lsr #16
   da9fe:	fb0b 840a 	mla	r4, fp, sl, r8
   daa02:	eb04 4413 	add.w	r4, r4, r3, lsr #16
   daa06:	46f2      	mov	sl, lr
   daa08:	b29b      	uxth	r3, r3
   daa0a:	ea43 4304 	orr.w	r3, r3, r4, lsl #16
   daa0e:	454f      	cmp	r7, r9
   daa10:	ea4f 4814 	mov.w	r8, r4, lsr #16
   daa14:	f84a 3b04 	str.w	r3, [sl], #4
   daa18:	d901      	bls.n	daa1e <__multiply+0xb4>
   daa1a:	46d6      	mov	lr, sl
   daa1c:	e7e1      	b.n	da9e2 <__multiply+0x78>
   daa1e:	f8ce 8004 	str.w	r8, [lr, #4]
   daa22:	9b01      	ldr	r3, [sp, #4]
   daa24:	f8b3 a002 	ldrh.w	sl, [r3, #2]
   daa28:	3204      	adds	r2, #4
   daa2a:	f1ba 0f00 	cmp.w	sl, #0
   daa2e:	d021      	beq.n	daa74 <__multiply+0x10a>
   daa30:	682b      	ldr	r3, [r5, #0]
   daa32:	462c      	mov	r4, r5
   daa34:	4689      	mov	r9, r1
   daa36:	f04f 0800 	mov.w	r8, #0
   daa3a:	f8b9 e000 	ldrh.w	lr, [r9]
   daa3e:	f8b4 b002 	ldrh.w	fp, [r4, #2]
   daa42:	fb0a be0e 	mla	lr, sl, lr, fp
   daa46:	44f0      	add	r8, lr
   daa48:	46a3      	mov	fp, r4
   daa4a:	b29b      	uxth	r3, r3
   daa4c:	ea43 4308 	orr.w	r3, r3, r8, lsl #16
   daa50:	f84b 3b04 	str.w	r3, [fp], #4
   daa54:	f859 3b04 	ldr.w	r3, [r9], #4
   daa58:	f8b4 e004 	ldrh.w	lr, [r4, #4]
   daa5c:	0c1b      	lsrs	r3, r3, #16
   daa5e:	fb0a e303 	mla	r3, sl, r3, lr
   daa62:	eb03 4318 	add.w	r3, r3, r8, lsr #16
   daa66:	454f      	cmp	r7, r9
   daa68:	ea4f 4813 	mov.w	r8, r3, lsr #16
   daa6c:	d901      	bls.n	daa72 <__multiply+0x108>
   daa6e:	465c      	mov	r4, fp
   daa70:	e7e3      	b.n	daa3a <__multiply+0xd0>
   daa72:	6063      	str	r3, [r4, #4]
   daa74:	3504      	adds	r5, #4
   daa76:	e7a7      	b.n	da9c8 <__multiply+0x5e>
   daa78:	f85c 3d04 	ldr.w	r3, [ip, #-4]!
   daa7c:	b913      	cbnz	r3, daa84 <__multiply+0x11a>
   daa7e:	3e01      	subs	r6, #1
   daa80:	2e00      	cmp	r6, #0
   daa82:	dcf9      	bgt.n	daa78 <__multiply+0x10e>
   daa84:	6106      	str	r6, [r0, #16]
   daa86:	b003      	add	sp, #12
   daa88:	e8bd 8ff0 	ldmia.w	sp!, {r4, r5, r6, r7, r8, r9, sl, fp, pc}

000daa8c <__pow5mult>:
   daa8c:	e92d 43f8 	stmdb	sp!, {r3, r4, r5, r6, r7, r8, r9, lr}
   daa90:	4615      	mov	r5, r2
   daa92:	f012 0203 	ands.w	r2, r2, #3
   daa96:	4606      	mov	r6, r0
   daa98:	460f      	mov	r7, r1
   daa9a:	d007      	beq.n	daaac <__pow5mult+0x20>
   daa9c:	3a01      	subs	r2, #1
   daa9e:	4c21      	ldr	r4, [pc, #132]	; (dab24 <__pow5mult+0x98>)
   daaa0:	2300      	movs	r3, #0
   daaa2:	f854 2022 	ldr.w	r2, [r4, r2, lsl #2]
   daaa6:	f7ff fe91 	bl	da7cc <__multadd>
   daaaa:	4607      	mov	r7, r0
   daaac:	10ad      	asrs	r5, r5, #2
   daaae:	d036      	beq.n	dab1e <__pow5mult+0x92>
   daab0:	6a74      	ldr	r4, [r6, #36]	; 0x24
   daab2:	b93c      	cbnz	r4, daac4 <__pow5mult+0x38>
   daab4:	2010      	movs	r0, #16
   daab6:	f7fb fbb1 	bl	d621c <malloc>
   daaba:	6270      	str	r0, [r6, #36]	; 0x24
   daabc:	6044      	str	r4, [r0, #4]
   daabe:	6084      	str	r4, [r0, #8]
   daac0:	6004      	str	r4, [r0, #0]
   daac2:	60c4      	str	r4, [r0, #12]
   daac4:	f8d6 8024 	ldr.w	r8, [r6, #36]	; 0x24
   daac8:	f8d8 4008 	ldr.w	r4, [r8, #8]
   daacc:	b94c      	cbnz	r4, daae2 <__pow5mult+0x56>
   daace:	f240 2171 	movw	r1, #625	; 0x271
   daad2:	4630      	mov	r0, r6
   daad4:	f7ff ff40 	bl	da958 <__i2b>
   daad8:	2300      	movs	r3, #0
   daada:	f8c8 0008 	str.w	r0, [r8, #8]
   daade:	4604      	mov	r4, r0
   daae0:	6003      	str	r3, [r0, #0]
   daae2:	f04f 0800 	mov.w	r8, #0
   daae6:	07eb      	lsls	r3, r5, #31
   daae8:	d50a      	bpl.n	dab00 <__pow5mult+0x74>
   daaea:	4639      	mov	r1, r7
   daaec:	4622      	mov	r2, r4
   daaee:	4630      	mov	r0, r6
   daaf0:	f7ff ff3b 	bl	da96a <__multiply>
   daaf4:	4639      	mov	r1, r7
   daaf6:	4681      	mov	r9, r0
   daaf8:	4630      	mov	r0, r6
   daafa:	f7ff fe50 	bl	da79e <_Bfree>
   daafe:	464f      	mov	r7, r9
   dab00:	106d      	asrs	r5, r5, #1
   dab02:	d00c      	beq.n	dab1e <__pow5mult+0x92>
   dab04:	6820      	ldr	r0, [r4, #0]
   dab06:	b108      	cbz	r0, dab0c <__pow5mult+0x80>
   dab08:	4604      	mov	r4, r0
   dab0a:	e7ec      	b.n	daae6 <__pow5mult+0x5a>
   dab0c:	4622      	mov	r2, r4
   dab0e:	4621      	mov	r1, r4
   dab10:	4630      	mov	r0, r6
   dab12:	f7ff ff2a 	bl	da96a <__multiply>
   dab16:	6020      	str	r0, [r4, #0]
   dab18:	f8c0 8000 	str.w	r8, [r0]
   dab1c:	e7f4      	b.n	dab08 <__pow5mult+0x7c>
   dab1e:	4638      	mov	r0, r7
   dab20:	e8bd 83f8 	ldmia.w	sp!, {r3, r4, r5, r6, r7, r8, r9, pc}
   dab24:	000db948 	.word	0x000db948

000dab28 <__lshift>:
   dab28:	e92d 47f0 	stmdb	sp!, {r4, r5, r6, r7, r8, r9, sl, lr}
   dab2c:	460c      	mov	r4, r1
   dab2e:	ea4f 1a62 	mov.w	sl, r2, asr #5
   dab32:	6926      	ldr	r6, [r4, #16]
   dab34:	6849      	ldr	r1, [r1, #4]
   dab36:	68a3      	ldr	r3, [r4, #8]
   dab38:	4456      	add	r6, sl
   dab3a:	4607      	mov	r7, r0
   dab3c:	4691      	mov	r9, r2
   dab3e:	1c75      	adds	r5, r6, #1
   dab40:	42ab      	cmp	r3, r5
   dab42:	da02      	bge.n	dab4a <__lshift+0x22>
   dab44:	3101      	adds	r1, #1
   dab46:	005b      	lsls	r3, r3, #1
   dab48:	e7fa      	b.n	dab40 <__lshift+0x18>
   dab4a:	4638      	mov	r0, r7
   dab4c:	f7ff fdf2 	bl	da734 <_Balloc>
   dab50:	2300      	movs	r3, #0
   dab52:	4680      	mov	r8, r0
   dab54:	f100 0114 	add.w	r1, r0, #20
   dab58:	461a      	mov	r2, r3
   dab5a:	4553      	cmp	r3, sl
   dab5c:	da03      	bge.n	dab66 <__lshift+0x3e>
   dab5e:	f841 2023 	str.w	r2, [r1, r3, lsl #2]
   dab62:	3301      	adds	r3, #1
   dab64:	e7f9      	b.n	dab5a <__lshift+0x32>
   dab66:	ea2a 73ea 	bic.w	r3, sl, sl, asr #31
   dab6a:	6920      	ldr	r0, [r4, #16]
   dab6c:	eb01 0383 	add.w	r3, r1, r3, lsl #2
   dab70:	f019 091f 	ands.w	r9, r9, #31
   dab74:	f104 0114 	add.w	r1, r4, #20
   dab78:	eb01 0e80 	add.w	lr, r1, r0, lsl #2
   dab7c:	d014      	beq.n	daba8 <__lshift+0x80>
   dab7e:	f1c9 0c20 	rsb	ip, r9, #32
   dab82:	2200      	movs	r2, #0
   dab84:	6808      	ldr	r0, [r1, #0]
   dab86:	fa00 f009 	lsl.w	r0, r0, r9
   dab8a:	4302      	orrs	r2, r0
   dab8c:	469a      	mov	sl, r3
   dab8e:	f843 2b04 	str.w	r2, [r3], #4
   dab92:	f851 2b04 	ldr.w	r2, [r1], #4
   dab96:	458e      	cmp	lr, r1
   dab98:	fa22 f20c 	lsr.w	r2, r2, ip
   dab9c:	d8f2      	bhi.n	dab84 <__lshift+0x5c>
   dab9e:	f8ca 2004 	str.w	r2, [sl, #4]
   daba2:	b142      	cbz	r2, dabb6 <__lshift+0x8e>
   daba4:	1cb5      	adds	r5, r6, #2
   daba6:	e006      	b.n	dabb6 <__lshift+0x8e>
   daba8:	3b04      	subs	r3, #4
   dabaa:	f851 2b04 	ldr.w	r2, [r1], #4
   dabae:	f843 2f04 	str.w	r2, [r3, #4]!
   dabb2:	458e      	cmp	lr, r1
   dabb4:	d8f9      	bhi.n	dabaa <__lshift+0x82>
   dabb6:	3d01      	subs	r5, #1
   dabb8:	4638      	mov	r0, r7
   dabba:	f8c8 5010 	str.w	r5, [r8, #16]
   dabbe:	4621      	mov	r1, r4
   dabc0:	f7ff fded 	bl	da79e <_Bfree>
   dabc4:	4640      	mov	r0, r8
   dabc6:	e8bd 87f0 	ldmia.w	sp!, {r4, r5, r6, r7, r8, r9, sl, pc}

000dabca <__mcmp>:
   dabca:	6903      	ldr	r3, [r0, #16]
   dabcc:	690a      	ldr	r2, [r1, #16]
   dabce:	1a9b      	subs	r3, r3, r2
   dabd0:	b510      	push	{r4, lr}
   dabd2:	d111      	bne.n	dabf8 <__mcmp+0x2e>
   dabd4:	0092      	lsls	r2, r2, #2
   dabd6:	3014      	adds	r0, #20
   dabd8:	3114      	adds	r1, #20
   dabda:	1883      	adds	r3, r0, r2
   dabdc:	440a      	add	r2, r1
   dabde:	f853 4d04 	ldr.w	r4, [r3, #-4]!
   dabe2:	f852 1d04 	ldr.w	r1, [r2, #-4]!
   dabe6:	428c      	cmp	r4, r1
   dabe8:	d002      	beq.n	dabf0 <__mcmp+0x26>
   dabea:	d307      	bcc.n	dabfc <__mcmp+0x32>
   dabec:	2001      	movs	r0, #1
   dabee:	bd10      	pop	{r4, pc}
   dabf0:	4298      	cmp	r0, r3
   dabf2:	d3f4      	bcc.n	dabde <__mcmp+0x14>
   dabf4:	2000      	movs	r0, #0
   dabf6:	bd10      	pop	{r4, pc}
   dabf8:	4618      	mov	r0, r3
   dabfa:	bd10      	pop	{r4, pc}
   dabfc:	f04f 30ff 	mov.w	r0, #4294967295	; 0xffffffff
   dac00:	bd10      	pop	{r4, pc}

000dac02 <__mdiff>:
   dac02:	e92d 43f8 	stmdb	sp!, {r3, r4, r5, r6, r7, r8, r9, lr}
   dac06:	460c      	mov	r4, r1
   dac08:	4607      	mov	r7, r0
   dac0a:	4611      	mov	r1, r2
   dac0c:	4620      	mov	r0, r4
   dac0e:	4615      	mov	r5, r2
   dac10:	f7ff ffdb 	bl	dabca <__mcmp>
   dac14:	1e06      	subs	r6, r0, #0
   dac16:	d108      	bne.n	dac2a <__mdiff+0x28>
   dac18:	4631      	mov	r1, r6
   dac1a:	4638      	mov	r0, r7
   dac1c:	f7ff fd8a 	bl	da734 <_Balloc>
   dac20:	2301      	movs	r3, #1
   dac22:	6103      	str	r3, [r0, #16]
   dac24:	6146      	str	r6, [r0, #20]
   dac26:	e8bd 83f8 	ldmia.w	sp!, {r3, r4, r5, r6, r7, r8, r9, pc}
   dac2a:	bfbc      	itt	lt
   dac2c:	4623      	movlt	r3, r4
   dac2e:	462c      	movlt	r4, r5
   dac30:	4638      	mov	r0, r7
   dac32:	6861      	ldr	r1, [r4, #4]
   dac34:	bfba      	itte	lt
   dac36:	461d      	movlt	r5, r3
   dac38:	2601      	movlt	r6, #1
   dac3a:	2600      	movge	r6, #0
   dac3c:	f7ff fd7a 	bl	da734 <_Balloc>
   dac40:	692b      	ldr	r3, [r5, #16]
   dac42:	60c6      	str	r6, [r0, #12]
   dac44:	6926      	ldr	r6, [r4, #16]
   dac46:	f105 0914 	add.w	r9, r5, #20
   dac4a:	3414      	adds	r4, #20
   dac4c:	eb04 0786 	add.w	r7, r4, r6, lsl #2
   dac50:	eb09 0883 	add.w	r8, r9, r3, lsl #2
   dac54:	f100 0514 	add.w	r5, r0, #20
   dac58:	f04f 0c00 	mov.w	ip, #0
   dac5c:	f854 3b04 	ldr.w	r3, [r4], #4
   dac60:	f859 2b04 	ldr.w	r2, [r9], #4
   dac64:	fa1c f183 	uxtah	r1, ip, r3
   dac68:	fa1f fe82 	uxth.w	lr, r2
   dac6c:	0c12      	lsrs	r2, r2, #16
   dac6e:	ebce 0101 	rsb	r1, lr, r1
   dac72:	ebc2 4313 	rsb	r3, r2, r3, lsr #16
   dac76:	eb03 4321 	add.w	r3, r3, r1, asr #16
   dac7a:	b289      	uxth	r1, r1
   dac7c:	ea4f 4c23 	mov.w	ip, r3, asr #16
   dac80:	45c8      	cmp	r8, r9
   dac82:	ea41 4303 	orr.w	r3, r1, r3, lsl #16
   dac86:	46a6      	mov	lr, r4
   dac88:	f845 3b04 	str.w	r3, [r5], #4
   dac8c:	d8e6      	bhi.n	dac5c <__mdiff+0x5a>
   dac8e:	45be      	cmp	lr, r7
   dac90:	d20e      	bcs.n	dacb0 <__mdiff+0xae>
   dac92:	f85e 1b04 	ldr.w	r1, [lr], #4
   dac96:	fa1c f281 	uxtah	r2, ip, r1
   dac9a:	1413      	asrs	r3, r2, #16
   dac9c:	eb03 4311 	add.w	r3, r3, r1, lsr #16
   daca0:	b292      	uxth	r2, r2
   daca2:	ea42 4203 	orr.w	r2, r2, r3, lsl #16
   daca6:	ea4f 4c23 	mov.w	ip, r3, asr #16
   dacaa:	f845 2b04 	str.w	r2, [r5], #4
   dacae:	e7ee      	b.n	dac8e <__mdiff+0x8c>
   dacb0:	f855 3d04 	ldr.w	r3, [r5, #-4]!
   dacb4:	b90b      	cbnz	r3, dacba <__mdiff+0xb8>
   dacb6:	3e01      	subs	r6, #1
   dacb8:	e7fa      	b.n	dacb0 <__mdiff+0xae>
   dacba:	6106      	str	r6, [r0, #16]
   dacbc:	e8bd 83f8 	ldmia.w	sp!, {r3, r4, r5, r6, r7, r8, r9, pc}

000dacc0 <__ulp>:
   dacc0:	4b12      	ldr	r3, [pc, #72]	; (dad0c <__ulp+0x4c>)
   dacc2:	ee10 2a90 	vmov	r2, s1
   dacc6:	401a      	ands	r2, r3
   dacc8:	f1a2 7350 	sub.w	r3, r2, #54525952	; 0x3400000
   daccc:	2b00      	cmp	r3, #0
   dacce:	dd02      	ble.n	dacd6 <__ulp+0x16>
   dacd0:	2000      	movs	r0, #0
   dacd2:	4619      	mov	r1, r3
   dacd4:	e017      	b.n	dad06 <__ulp+0x46>
   dacd6:	425b      	negs	r3, r3
   dacd8:	151b      	asrs	r3, r3, #20
   dacda:	2b13      	cmp	r3, #19
   dacdc:	f04f 0000 	mov.w	r0, #0
   dace0:	f04f 0100 	mov.w	r1, #0
   dace4:	dc04      	bgt.n	dacf0 <__ulp+0x30>
   dace6:	f44f 2200 	mov.w	r2, #524288	; 0x80000
   dacea:	fa42 f103 	asr.w	r1, r2, r3
   dacee:	e00a      	b.n	dad06 <__ulp+0x46>
   dacf0:	3b14      	subs	r3, #20
   dacf2:	2b1e      	cmp	r3, #30
   dacf4:	f04f 0201 	mov.w	r2, #1
   dacf8:	bfda      	itte	le
   dacfa:	f1c3 031f 	rsble	r3, r3, #31
   dacfe:	fa02 f303 	lslle.w	r3, r2, r3
   dad02:	4613      	movgt	r3, r2
   dad04:	4618      	mov	r0, r3
   dad06:	ec41 0b10 	vmov	d0, r0, r1
   dad0a:	4770      	bx	lr
   dad0c:	7ff00000 	.word	0x7ff00000

000dad10 <__b2d>:
   dad10:	b5f8      	push	{r3, r4, r5, r6, r7, lr}
   dad12:	6905      	ldr	r5, [r0, #16]
   dad14:	f100 0614 	add.w	r6, r0, #20
   dad18:	eb06 0585 	add.w	r5, r6, r5, lsl #2
   dad1c:	1f2f      	subs	r7, r5, #4
   dad1e:	f855 4c04 	ldr.w	r4, [r5, #-4]
   dad22:	4620      	mov	r0, r4
   dad24:	f7ff fdcb 	bl	da8be <__hi0bits>
   dad28:	f1c0 0320 	rsb	r3, r0, #32
   dad2c:	280a      	cmp	r0, #10
   dad2e:	600b      	str	r3, [r1, #0]
   dad30:	dc14      	bgt.n	dad5c <__b2d+0x4c>
   dad32:	f1c0 0e0b 	rsb	lr, r0, #11
   dad36:	fa24 f10e 	lsr.w	r1, r4, lr
   dad3a:	42be      	cmp	r6, r7
   dad3c:	f041 537f 	orr.w	r3, r1, #1069547520	; 0x3fc00000
   dad40:	bf34      	ite	cc
   dad42:	f855 1c08 	ldrcc.w	r1, [r5, #-8]
   dad46:	2100      	movcs	r1, #0
   dad48:	3015      	adds	r0, #21
   dad4a:	fa04 f000 	lsl.w	r0, r4, r0
   dad4e:	fa21 f10e 	lsr.w	r1, r1, lr
   dad52:	f443 1340 	orr.w	r3, r3, #3145728	; 0x300000
   dad56:	ea40 0201 	orr.w	r2, r0, r1
   dad5a:	e023      	b.n	dada4 <__b2d+0x94>
   dad5c:	42be      	cmp	r6, r7
   dad5e:	bf3a      	itte	cc
   dad60:	f1a5 0708 	subcc.w	r7, r5, #8
   dad64:	f855 1c08 	ldrcc.w	r1, [r5, #-8]
   dad68:	2100      	movcs	r1, #0
   dad6a:	380b      	subs	r0, #11
   dad6c:	d015      	beq.n	dad9a <__b2d+0x8a>
   dad6e:	4084      	lsls	r4, r0
   dad70:	f1c0 0520 	rsb	r5, r0, #32
   dad74:	f044 547f 	orr.w	r4, r4, #1069547520	; 0x3fc00000
   dad78:	f444 1440 	orr.w	r4, r4, #3145728	; 0x300000
   dad7c:	42b7      	cmp	r7, r6
   dad7e:	fa21 fe05 	lsr.w	lr, r1, r5
   dad82:	ea44 030e 	orr.w	r3, r4, lr
   dad86:	bf8c      	ite	hi
   dad88:	f857 4c04 	ldrhi.w	r4, [r7, #-4]
   dad8c:	2400      	movls	r4, #0
   dad8e:	fa01 f000 	lsl.w	r0, r1, r0
   dad92:	40ec      	lsrs	r4, r5
   dad94:	ea40 0204 	orr.w	r2, r0, r4
   dad98:	e004      	b.n	dada4 <__b2d+0x94>
   dad9a:	f044 537f 	orr.w	r3, r4, #1069547520	; 0x3fc00000
   dad9e:	f443 1340 	orr.w	r3, r3, #3145728	; 0x300000
   dada2:	460a      	mov	r2, r1
   dada4:	ec43 2b10 	vmov	d0, r2, r3
   dada8:	bdf8      	pop	{r3, r4, r5, r6, r7, pc}

000dadaa <__d2b>:
   dadaa:	e92d 43f7 	stmdb	sp!, {r0, r1, r2, r4, r5, r6, r7, r8, r9, lr}
   dadae:	460e      	mov	r6, r1
   dadb0:	2101      	movs	r1, #1
   dadb2:	ec59 8b10 	vmov	r8, r9, d0
   dadb6:	4615      	mov	r5, r2
   dadb8:	f7ff fcbc 	bl	da734 <_Balloc>
   dadbc:	f3c9 540a 	ubfx	r4, r9, #20, #11
   dadc0:	4607      	mov	r7, r0
   dadc2:	f3c9 0313 	ubfx	r3, r9, #0, #20
   dadc6:	b10c      	cbz	r4, dadcc <__d2b+0x22>
   dadc8:	f443 1380 	orr.w	r3, r3, #1048576	; 0x100000
   dadcc:	9301      	str	r3, [sp, #4]
   dadce:	f1b8 0f00 	cmp.w	r8, #0
   dadd2:	d019      	beq.n	dae08 <__d2b+0x5e>
   dadd4:	a802      	add	r0, sp, #8
   dadd6:	f840 8d08 	str.w	r8, [r0, #-8]!
   dadda:	f7ff fd90 	bl	da8fe <__lo0bits>
   dadde:	9b00      	ldr	r3, [sp, #0]
   dade0:	b148      	cbz	r0, dadf6 <__d2b+0x4c>
   dade2:	9a01      	ldr	r2, [sp, #4]
   dade4:	f1c0 0120 	rsb	r1, r0, #32
   dade8:	fa02 f101 	lsl.w	r1, r2, r1
   dadec:	430b      	orrs	r3, r1
   dadee:	40c2      	lsrs	r2, r0
   dadf0:	617b      	str	r3, [r7, #20]
   dadf2:	9201      	str	r2, [sp, #4]
   dadf4:	e000      	b.n	dadf8 <__d2b+0x4e>
   dadf6:	617b      	str	r3, [r7, #20]
   dadf8:	9b01      	ldr	r3, [sp, #4]
   dadfa:	61bb      	str	r3, [r7, #24]
   dadfc:	2b00      	cmp	r3, #0
   dadfe:	bf14      	ite	ne
   dae00:	2102      	movne	r1, #2
   dae02:	2101      	moveq	r1, #1
   dae04:	6139      	str	r1, [r7, #16]
   dae06:	e007      	b.n	dae18 <__d2b+0x6e>
   dae08:	a801      	add	r0, sp, #4
   dae0a:	f7ff fd78 	bl	da8fe <__lo0bits>
   dae0e:	9b01      	ldr	r3, [sp, #4]
   dae10:	617b      	str	r3, [r7, #20]
   dae12:	2101      	movs	r1, #1
   dae14:	6139      	str	r1, [r7, #16]
   dae16:	3020      	adds	r0, #32
   dae18:	b134      	cbz	r4, dae28 <__d2b+0x7e>
   dae1a:	f2a4 4433 	subw	r4, r4, #1075	; 0x433
   dae1e:	4404      	add	r4, r0
   dae20:	6034      	str	r4, [r6, #0]
   dae22:	f1c0 0035 	rsb	r0, r0, #53	; 0x35
   dae26:	e009      	b.n	dae3c <__d2b+0x92>
   dae28:	eb07 0381 	add.w	r3, r7, r1, lsl #2
   dae2c:	f2a0 4032 	subw	r0, r0, #1074	; 0x432
   dae30:	6030      	str	r0, [r6, #0]
   dae32:	6918      	ldr	r0, [r3, #16]
   dae34:	f7ff fd43 	bl	da8be <__hi0bits>
   dae38:	ebc0 1041 	rsb	r0, r0, r1, lsl #5
   dae3c:	6028      	str	r0, [r5, #0]
   dae3e:	4638      	mov	r0, r7
   dae40:	b003      	add	sp, #12
   dae42:	e8bd 83f0 	ldmia.w	sp!, {r4, r5, r6, r7, r8, r9, pc}

000dae46 <__ratio>:
   dae46:	e92d 43f7 	stmdb	sp!, {r0, r1, r2, r4, r5, r6, r7, r8, r9, lr}
   dae4a:	4688      	mov	r8, r1
   dae4c:	4669      	mov	r1, sp
   dae4e:	4681      	mov	r9, r0
   dae50:	f7ff ff5e 	bl	dad10 <__b2d>
   dae54:	a901      	add	r1, sp, #4
   dae56:	4640      	mov	r0, r8
   dae58:	ec55 4b10 	vmov	r4, r5, d0
   dae5c:	f7ff ff58 	bl	dad10 <__b2d>
   dae60:	f8d9 3010 	ldr.w	r3, [r9, #16]
   dae64:	f8d8 2010 	ldr.w	r2, [r8, #16]
   dae68:	1a9a      	subs	r2, r3, r2
   dae6a:	e89d 000a 	ldmia.w	sp, {r1, r3}
   dae6e:	1ac9      	subs	r1, r1, r3
   dae70:	ec57 6b10 	vmov	r6, r7, d0
   dae74:	eb01 1342 	add.w	r3, r1, r2, lsl #5
   dae78:	2b00      	cmp	r3, #0
   dae7a:	bfcc      	ite	gt
   dae7c:	eb05 5503 	addgt.w	r5, r5, r3, lsl #20
   dae80:	eba7 5703 	suble.w	r7, r7, r3, lsl #20
   dae84:	4632      	mov	r2, r6
   dae86:	463b      	mov	r3, r7
   dae88:	4620      	mov	r0, r4
   dae8a:	4629      	mov	r1, r5
   dae8c:	f7fd f96e 	bl	d816c <__aeabi_ddiv>
   dae90:	ec41 0b10 	vmov	d0, r0, r1
   dae94:	b003      	add	sp, #12
   dae96:	e8bd 83f0 	ldmia.w	sp!, {r4, r5, r6, r7, r8, r9, pc}

000dae9a <__copybits>:
   dae9a:	3901      	subs	r1, #1
   dae9c:	b510      	push	{r4, lr}
   dae9e:	1149      	asrs	r1, r1, #5
   daea0:	6914      	ldr	r4, [r2, #16]
   daea2:	3101      	adds	r1, #1
   daea4:	f102 0314 	add.w	r3, r2, #20
   daea8:	eb00 0181 	add.w	r1, r0, r1, lsl #2
   daeac:	eb03 0484 	add.w	r4, r3, r4, lsl #2
   daeb0:	42a3      	cmp	r3, r4
   daeb2:	4602      	mov	r2, r0
   daeb4:	d204      	bcs.n	daec0 <__copybits+0x26>
   daeb6:	f853 2b04 	ldr.w	r2, [r3], #4
   daeba:	f840 2b04 	str.w	r2, [r0], #4
   daebe:	e7f7      	b.n	daeb0 <__copybits+0x16>
   daec0:	2300      	movs	r3, #0
   daec2:	428a      	cmp	r2, r1
   daec4:	d202      	bcs.n	daecc <__copybits+0x32>
   daec6:	f842 3b04 	str.w	r3, [r2], #4
   daeca:	e7fa      	b.n	daec2 <__copybits+0x28>
   daecc:	bd10      	pop	{r4, pc}

000daece <__any_on>:
   daece:	f100 0214 	add.w	r2, r0, #20
   daed2:	6900      	ldr	r0, [r0, #16]
   daed4:	114b      	asrs	r3, r1, #5
   daed6:	4298      	cmp	r0, r3
   daed8:	b510      	push	{r4, lr}
   daeda:	db0c      	blt.n	daef6 <__any_on+0x28>
   daedc:	dd0c      	ble.n	daef8 <__any_on+0x2a>
   daede:	f011 011f 	ands.w	r1, r1, #31
   daee2:	d009      	beq.n	daef8 <__any_on+0x2a>
   daee4:	f852 4023 	ldr.w	r4, [r2, r3, lsl #2]
   daee8:	fa24 f001 	lsr.w	r0, r4, r1
   daeec:	fa00 f101 	lsl.w	r1, r0, r1
   daef0:	428c      	cmp	r4, r1
   daef2:	d10c      	bne.n	daf0e <__any_on+0x40>
   daef4:	e000      	b.n	daef8 <__any_on+0x2a>
   daef6:	4603      	mov	r3, r0
   daef8:	eb02 0383 	add.w	r3, r2, r3, lsl #2
   daefc:	4293      	cmp	r3, r2
   daefe:	d904      	bls.n	daf0a <__any_on+0x3c>
   daf00:	f853 1d04 	ldr.w	r1, [r3, #-4]!
   daf04:	2900      	cmp	r1, #0
   daf06:	d0f9      	beq.n	daefc <__any_on+0x2e>
   daf08:	e001      	b.n	daf0e <__any_on+0x40>
   daf0a:	2000      	movs	r0, #0
   daf0c:	bd10      	pop	{r4, pc}
   daf0e:	2001      	movs	r0, #1
   daf10:	bd10      	pop	{r4, pc}

000daf12 <_calloc_r>:
   daf12:	b538      	push	{r3, r4, r5, lr}
   daf14:	fb02 f401 	mul.w	r4, r2, r1
   daf18:	4621      	mov	r1, r4
   daf1a:	f7fb f9af 	bl	d627c <_malloc_r>
   daf1e:	4605      	mov	r5, r0
   daf20:	b118      	cbz	r0, daf2a <_calloc_r+0x18>
   daf22:	4622      	mov	r2, r4
   daf24:	2100      	movs	r1, #0
   daf26:	f7fd fe0a 	bl	d8b3e <memset>
   daf2a:	4628      	mov	r0, r5
   daf2c:	bd38      	pop	{r3, r4, r5, pc}

000daf2e <__env_lock>:
   daf2e:	4770      	bx	lr

000daf30 <__env_unlock>:
   daf30:	4770      	bx	lr

000daf32 <link_code_end>:
	...

000daf34 <dynalib_user>:
   daf34:	4021 000d 405d 000d 4089 000d 408d 000d     !@..]@...@...@..
   daf44:	0000 0000 0100 0402 1008 7453 7261 7574     ..........Startu
   daf54:	2070 7553 6363 7365 6673 6c75 0000 0000     p Successful....
	...
   daf8c:	0000 6554 706d 4d5f 7861 3a20 2520 3366     ..Temp_Max : %f3
   daf9c:	312e 0066 6554 706d 4d5f 7869 3a20 2520     .1f.Temp_Mix : %
   dafac:	2e33 6631 4800 6d75 6469 7469 5f79 614d     3.1f.Humidity_Ma
   dafbc:	3a78 2520 2e33 6631 4800 6d75 6469 7469     x: %3.1f.Humidit
   dafcc:	5f79 694d 206e 203a 3325 312e 0066 227b     y_Min : %3.1f.{"
   dafdc:	6554 706d 7265 7461 7275 2265 253a 2e34     Temperature":%4.
   dafec:	6631 202c 4822 6d75 6469 7469 2279 253a     1f, "Humidity":%
   daffc:	2e34 6631 202c 5022 6572 7373 7275 2265     4.1f, "Pressure"
   db00c:	253a 2e34 6631 007d 7473 726f 6761 2d65     :%4.1f}.storage-
   db01c:	6166 6963 696c 7974 682d 6f6f 006b 6f4e     facility-hook.No
   db02c:	4420 7461 0061 6255 6469 746f 2073 6f48      Data.Ubidots Ho
   db03c:	6b6f 5200 7365 6f70 736e 2065 6552 6563     ok.Response Rece
   db04c:	7669 6465 5300 6174 6574 2500 2e34 6631     ived.State.%4.1f
   db05c:	432a 2500 2e34 6631 2525 2500 2e34 6631     *C.%4.1f%%.%4.1f
   db06c:	5048 0061 6146 6c69 6465 7420 206f 6570     HPa.Failed to pe
   db07c:	6672 726f 206d 6572 6461 6e69 2067 283a     rform reading :(
   db08c:	4c00 676f 7b00 7422 6d65 6570 6172 7574     .Log.{"temperatu
   db09c:	6572 3a22 7274 6575 4100 454c 5452 4620     re":true.ALERT F
   db0ac:	4f52 204d 754b 766d 4961 546f 203a 6554     ROM KumvaIoT: Te
   db0bc:	706d 7265 7461 7275 2065 6854 6572 6873     mperature Thresh
   db0cc:	6c6f 2064 7243 736f 6573 2e64 4320 7275     old Crossed. Cur
   db0dc:	6572 746e 5420 6d65 6570 6172 7574 6572     rent Temperature
   db0ec:	6920 3a73 2520 2e34 6631 7300 736d 772d      is: %4.1f.sms-w
   db0fc:	6265 6f68 6b6f 4100 656c 7472 7b00 6822     ebhook.Alert.{"h
   db10c:	6d75 6469 7469 2279 743a 7572 0065 4c41     umidity":true.AL
   db11c:	5245 2054 5246 4d4f 4b20 6d75 6176 6f49     ERT FROM KumvaIo
   db12c:	3a54 4820 6d75 6469 7469 2079 6854 6572     T: Humidity Thre
   db13c:	6873 6c6f 2064 7243 736f 6573 2e64 4320     shold Crossed. C
   db14c:	7275 6572 746e 4820 6d75 6469 7469 2079     urrent Humidity 
   db15c:	7369 203a 3425 312e 2066 6e61 2064 7543     is: %4.1f and Cu
   db16c:	7272 6e65 2074 6554 706d 7265 7461 7275     rrent Temperatur
   db17c:	2065 7369 203a 3425 312e 0066 6553 2074     e is: %4.1f.Set 
   db18c:	6556 6272 736f 2065 6f4d 6564 3000 4300     Verbose Mode.0.C
   db19c:	656c 7261 6465 5620 7265 6f62 6573 4d20     leared Verbose M
   db1ac:	646f 0065 7246 6d6f 2520 2073 6f74 2520     ode.From %s to %
   db1bc:	0073 7453 7461 2065 7254 6e61 6973 6974     s.State Transiti
   db1cc:	6e6f 4500 7272 726f 7420 6b61 6e69 2067     on.Error taking 
   db1dc:	654d 7361 7275 6d65 6e65 7374 7300 6170     Measurements.spa
   db1ec:	6b72 642f 7665 6369 2f65 6573 7373 6f69     rk/device/sessio
   db1fc:	2f6e 6e65 0064 7245 6f72 2072 7453 7461     n/end.Error Stat
   db20c:	2065 202d 6552 6573 0074 7055 6570 2072     e - Reset.Upper 
   db21c:	6854 6572 6873 6c6f 2064 6553 0074 6f4c     Threshold Set.Lo
   db22c:	6577 2072 6854 6572 6873 6c6f 2064 6553     wer Threshold Se
   db23c:	0074 6552 656c 7361 0065 6574 706d 7265     t.Release.temper
   db24c:	7461 7275 0065 7568 696d 6964 7974 7000     ature.humidity.p
   db25c:	6572 7373 7275 0065 6574 706d 7265 7461     ressure.temperat
   db26c:	7275 2d65 7055 6570 0072 6574 706d 7265     ure-Upper.temper
   db27c:	7461 7275 2d65 6f6c 6577 0072 7568 696d     ature-lower.humi
   db28c:	6964 7974 752d 7070 7265 6800 6d75 6469     dity-upper.humid
   db29c:	7469 2d79 6f6c 6577 0072 654d 7361 7275     ity-lower.Measur
   db2ac:	2d65 6f4e 0077 6556 6272 736f 2d65 6f4d     e-Now.Verbose-Mo
   db2bc:	6564 5400 6d65 2d70 7055 6570 2d72 694c     de.Temp-Upper-Li
   db2cc:	696d 0074 6554 706d 4c2d 776f 7265 4c2d     mit.Temp-Lower-L
   db2dc:	6d69 7469 4800 6d75 6469 7469 2d79 6f4c     imit.Humidity-Lo
   db2ec:	6577 2d72 694c 696d 0074 7548 696d 7464     wer-Limit.Humidt
   db2fc:	2d79 7075 6570 2d72 694c 696d 0074 7245     y-upper-Limit.Er
   db30c:	6f72 2072 202d 4d42 3645 3038 4920 696e     ror - BME680 Ini
   db31c:	6974 6c61 7a69 7461 6f69 006e 6146 6c69     tialization.Fail
   db32c:	6465 7420 206f 6f63 6e6e 6365 0074 7453     ed to connect.St
   db33c:	7261 7574 0070 2e31 3530 0000               artup.1.05..

000db348 <_ZTVN5spark13CellularClassE>:
	...
   db350:	635f 000d 6355 000d 634b 000d 6301 000d     _c..Uc..Kc...c..
   db360:	633f 000d 6333 000d 6327 000d 631f 000d     ?c..3c..'c...c..
   db370:	6315 000d 630b 000d 6e09 000d               .c...c...n..

000db37c <_ZTVSt15_Sp_counted_ptrIPN8particle6detail10FutureImplIbNS1_13FutureContextEEELN9__gnu_cxx12_Lock_policyE0EE>:
	...
   db384:	6399 000d 639f 000d 63f5 000d 63ad 000d     .c...c...c...c..
   db394:	639b 000d                                   .c..

000db398 <_ZTVN5spark13EthernetClassE>:
	...
   db3a0:	6a0b 000d 6a01 000d 69f7 000d 69ed 000d     .j...j...i...i..
   db3b0:	69e1 000d 69d5 000d 69c9 000d 69c1 000d     .i...i...i...i..
   db3c0:	69b7 000d 69ad 000d 6e09 000d               .i...i...n..

000db3cc <_ZTV7TwoWire>:
	...
   db3d4:	6a29 000d 6a73 000d 6a4b 000d 6a2b 000d     )j..sj..Kj..+j..
   db3e4:	6a53 000d 6a5b 000d 6a63 000d 6a6b 000d     Sj..[j..cj..kj..

000db3f4 <_ZTV9IPAddress>:
	...
   db3fc:	6b41 000d 6b31 000d 6b33 000d 6162 6475     Ak..1k..3k..baud
   db40c:	5300 7265 6169 006c 6553 6972 6c61 0031     .Serial.Serial1.
   db41c:	7974 6570 7000 7261 6d61 6300 646d 6900     type.param.cmd.i
   db42c:	0064 6e68 0064 7473 6d72 6600 6c69 0074     d.hnd.strm.filt.
   db43c:	766c 006c 6461 4864 6e61 6c64 7265 7200     lvl.addHandler.r
   db44c:	6d65 766f 4865 6e61 6c64 7265 6500 756e     emoveHandler.enu
   db45c:	486d 6e61 6c64 7265 0073 534a 4e4f 7453     mHandlers.JSONSt
   db46c:	6572 6d61 6f4c 4867 6e61 6c64 7265 6100     reamLogHandler.a
   db47c:	7070 2500 3130 7530 0020 205d 2500 0064     pp.%010u .] .%d.
   db48c:	202c 2800 3a29 0020 5b20 6300 646f 2065     , .(): . [.code 
   db49c:	203d 2500 0069 6564 6174 6c69 2073 203d     = .%i.details = 
   db4ac:	0d00 000a 6e6c 6600 006e 6f63 6564 6400     ....ln.fn.code.d
   db4bc:	7465 6961 006c 6f6e 656e 7400 6172 6563     etail.none.trace
   db4cc:	6900 666e 006f 6177 6e72 6500 7272 726f     .info.warn.error
   db4dc:	7000 6e61 6369 6100 6c6c 0000               .panic.all..

000db4e8 <_ZTVN5spark9MeshClassE>:
	...
   db4f0:	6c83 000d 6c79 000d 6c6f 000d 6c65 000d     .l..yl..ol..el..
   db500:	6c59 000d 6c4d 000d 6c41 000d 6c39 000d     Yl..Ml..Al..9l..
   db510:	6c2f 000d 6c25 000d 6e09 000d               /l..%l...n..

000db51c <_ZTVN5spark12NetworkClassE>:
	...
   db524:	6da1 000d 6dab 000d 6db5 000d 6dbf 000d     .m...m...m...m..
   db534:	6dc9 000d 6dd5 000d 6de1 000d 6ded 000d     .m...m...m...m..
   db544:	6df5 000d 6dff 000d 6e09 000d               .m...m...n..

000db550 <_ZTV8SPIClass>:
	...
   db558:	6fd1 000d 6fd3 000d                         .o...o..

000db560 <_ZN12_GLOBAL__N_1L14clock_divisorsE>:
   db560:	0800 1810 2820 3830 2b25 3330 3a64 3025     .... (08%+03d:%0
   db570:	7532 2500 2d59 6d25 252d 5464 4825 253a     2u.%Y-%m-%dT%H:%
   db580:	3a4d 5325 7a25 6100 6373 6974 656d 0000     M:%S%z.asctime..

000db590 <_ZTV11USARTSerial>:
	...
   db598:	7435 000d 7485 000d 7493 000d 6ee9 000d     5t...t...t...n..
   db5a8:	7449 000d 746b 000d 7457 000d 747f 000d     It..kt..Wt...t..
   db5b8:	7437 000d 743b 000d                         7t..;t..

000db5c0 <_ZTV9USBSerial>:
	...
   db5c8:	753d 000d 758d 000d 759b 000d 6ee9 000d     =u...u...u...n..
   db5d8:	7579 000d 753f 000d 7555 000d 7587 000d     yu..?u..Uu...u..
   db5e8:	756b 000d 7539 000d                         ku..9u..

000db5f0 <_ZSt7nothrow>:
	...

000db5f1 <_ctype_>:
   db5f1:	2000 2020 2020 2020 2020 2828 2828 2028     .         ((((( 
   db601:	2020 2020 2020 2020 2020 2020 2020 2020                     
   db611:	8820 1010 1010 1010 1010 1010 1010 1010      ...............
   db621:	0410 0404 0404 0404 0404 1004 1010 1010     ................
   db631:	1010 4141 4141 4141 0101 0101 0101 0101     ..AAAAAA........
   db641:	0101 0101 0101 0101 0101 0101 1010 1010     ................
   db651:	1010 4242 4242 4242 0202 0202 0202 0202     ..BBBBBB........
   db661:	0202 0202 0202 0202 0202 0202 1010 1010     ................
   db671:	0020 0000 0000 0000 0000 0000 0000 0000      ...............
	...

000db6f4 <__sf_fake_stdin>:
	...

000db714 <__sf_fake_stdout>:
	...

000db734 <__sf_fake_stderr>:
	...
   db754:	4f50 4953 0058 002e                         POSIX...

000db75c <__month_lengths>:
   db75c:	001f 0000 001c 0000 001f 0000 001e 0000     ................
   db76c:	001f 0000 001e 0000 001f 0000 001f 0000     ................
   db77c:	001e 0000 001f 0000 001e 0000 001f 0000     ................
   db78c:	001f 0000 001d 0000 001f 0000 001e 0000     ................
   db79c:	001f 0000 001e 0000 001f 0000 001f 0000     ................
   db7ac:	001e 0000 001f 0000 001e 0000 001f 0000     ................

000db7bc <fpi.5344>:
   db7bc:	0035 0000 fbce ffff 03cb 0000 0001 0000     5...............
   db7cc:	0000 0000                                   ....

000db7d0 <fpinan.5380>:
   db7d0:	0034 0000 fbce ffff 03cb 0000 0001 0000     4...............
   db7e0:	0000 0000 666e 6900 696e 7974 6100 006e     ....nf.inity.an.

000db7f0 <tinytens>:
   db7f0:	89bc 97d8 d2b2 3c9c a733 d5a8 f623 3949     .......<3...#.I9
   db800:	a73d 44f4 0ffd 32a5 979d cf8c ba08 255b     =..D...2......[%
   db810:	6f43 64ac 0628 1168 5a54 4700 544d 2500     Co.d(.h.TZ.GMT.%
   db820:	3031 5e5b 2d30 2c39 2d2b 255d 006e 254d     10[^0-9,+-]%n.M%
   db830:	7568 6e25 252e 7568 6e25 252e 7568 6e25     hu%n.%hu%n.%hu%n
   db840:	2f00 6825 2575 3a6e 6825 2575 3a6e 6825     ./%hu%n:%hu%n:%h
   db850:	2575 006e 0000 0000                         u%n.....

000db858 <__mprec_tens>:
   db858:	0000 0000 0000 3ff0 0000 0000 0000 4024     .......?......$@
   db868:	0000 0000 0000 4059 0000 0000 4000 408f     ......Y@.....@.@
   db878:	0000 0000 8800 40c3 0000 0000 6a00 40f8     .......@.....j.@
   db888:	0000 0000 8480 412e 0000 0000 12d0 4163     .......A......cA
   db898:	0000 0000 d784 4197 0000 0000 cd65 41cd     .......A....e..A
   db8a8:	0000 2000 a05f 4202 0000 e800 4876 4237     ... _..B....vH7B
   db8b8:	0000 a200 1a94 426d 0000 e540 309c 42a2     ......mB..@..0.B
   db8c8:	0000 1e90 bcc4 42d6 0000 2634 6bf5 430c     .......B..4&.k.C
   db8d8:	8000 37e0 c379 4341 a000 85d8 3457 4376     ...7y.AC....W4vC
   db8e8:	c800 674e c16d 43ab 3d00 6091 58e4 43e1     ..Ngm..C.=.`.X.C
   db8f8:	8c40 78b5 af1d 4415 ef50 d6e2 1ae4 444b     @..x...DP.....KD
   db908:	d592 064d f0cf 4480 4af6 c7e1 2d02 44b5     ..M....D.J...-.D
   db918:	9db4 79d9 7843 44ea                         ...yCx.D

000db920 <__mprec_bigtens>:
   db920:	8000 37e0 c379 4341 6e17 b505 b8b5 4693     ...7y.AC.n.....F
   db930:	f9f5 e93f 4f03 4d38 1d32 f930 7748 5a82     ..?..O8M2.0.Hw.Z
   db940:	bf3c 7f73 4fdd 7515                         <.s..O.u

000db948 <p05.5387>:
   db948:	0005 0000 0019 0000 007d 0000               ........}...

000db954 <link_const_variable_data_end>:
   db954:	000d57a5 	.word	0x000d57a5
   db958:	000d5cc1 	.word	0x000d5cc1
   db95c:	000d62d9 	.word	0x000d62d9
   db960:	000d6369 	.word	0x000d6369
   db964:	000d6a15 	.word	0x000d6a15
   db968:	000d6c15 	.word	0x000d6c15
   db96c:	000d6d51 	.word	0x000d6d51
   db970:	000d6ed5 	.word	0x000d6ed5
   db974:	000d6fb5 	.word	0x000d6fb5
   db978:	000d72e1 	.word	0x000d72e1
   db97c:	000d7421 	.word	0x000d7421
   db980:	000d7919 	.word	0x000d7919
   db984:	000d79dd 	.word	0x000d79dd
   db988:	000d7a61 	.word	0x000d7a61
   db98c:	000d7ae5 	.word	0x000d7ae5
